	.text
	.attribute	4, 16
	.attribute	5, "rv32i2p0"
	.file	"board.c"
	.file	1 "C:/Vega/rv32m1_sdk_riscv/boards/rv32m1_vega/rtos_examples/freertos_hello/ri5cy/riscvgcc/../../../../../../devices/RV32M1/drivers" "fsl_clock.h"
	.file	2 "C:\\Vega" "riscv32-unknown-elf-gcc\\riscv32-unknown-elf\\include\\machine\\_default_types.h"
	.file	3 "C:\\Vega" "riscv32-unknown-elf-gcc\\riscv32-unknown-elf\\include\\sys\\_stdint.h"
	.file	4 "C:/Vega/rv32m1_sdk_riscv/boards/rv32m1_vega/rtos_examples/freertos_hello/ri5cy/riscvgcc/../../../../../../devices/RV32M1" "RV32M1_ri5cy.h"
	.section	.text.BOARD_InitDebugConsole,"ax",@progbits
	.globl	BOARD_InitDebugConsole          # -- Begin function BOARD_InitDebugConsole
	.p2align	2
	.type	BOARD_InitDebugConsole,@function
BOARD_InitDebugConsole:                 # @BOARD_InitDebugConsole
.Lfunc_begin0:
	.file	5 "C:/Vega/rv32m1_sdk_riscv/boards/rv32m1_vega/rtos_examples/freertos_hello/ri5cy" "board.c"
	.loc	5 23 0                          # C:/Vega/rv32m1_sdk_riscv/boards/rv32m1_vega/rtos_examples/freertos_hello/ri5cy/board.c:23:0
	.cfi_sections .debug_frame
	.cfi_startproc
# %bb.0:                                # %entry
	addi	sp, sp, -16
	.cfi_def_cfa_offset 16
	sw	ra, 12(sp)
	sw	s0, 8(sp)
	.cfi_offset ra, -4
	.cfi_offset s0, -8
	addi	s0, sp, 16
	.cfi_def_cfa s0, 0
	lui	a0, 262187
	addi	a0, a0, 264
	addi	a1, zero, 3
.Ltmp0:
	.loc	5 24 5 prologue_end             # C:/Vega/rv32m1_sdk_riscv/boards/rv32m1_vega/rtos_examples/freertos_hello/ri5cy/board.c:24:5
	sw	a0, -16(s0)
	call	CLOCK_SetIpSrc
	.loc	5 26 31                         # C:/Vega/rv32m1_sdk_riscv/boards/rv32m1_vega/rtos_examples/freertos_hello/ri5cy/board.c:26:31
	lw	a0, -16(s0)
	call	CLOCK_GetIpFreq
	.loc	5 26 14 is_stmt 0               # C:/Vega/rv32m1_sdk_riscv/boards/rv32m1_vega/rtos_examples/freertos_hello/ri5cy/board.c:26:14
	sw	a0, -12(s0)
	.loc	5 28 77 is_stmt 1               # C:/Vega/rv32m1_sdk_riscv/boards/rv32m1_vega/rtos_examples/freertos_hello/ri5cy/board.c:28:77
	lw	a3, -12(s0)
	lui	a0, 28
	addi	a1, a0, 512
	lui	a0, 262210
	addi	a2, zero, 2
	.loc	5 28 5 is_stmt 0                # C:/Vega/rv32m1_sdk_riscv/boards/rv32m1_vega/rtos_examples/freertos_hello/ri5cy/board.c:28:5
	call	DbgConsole_Init
	.loc	5 29 1 is_stmt 1                # C:/Vega/rv32m1_sdk_riscv/boards/rv32m1_vega/rtos_examples/freertos_hello/ri5cy/board.c:29:1
	lw	s0, 8(sp)
	lw	ra, 12(sp)
	addi	sp, sp, 16
	ret
.Ltmp1:
.Lfunc_end0:
	.size	BOARD_InitDebugConsole, .Lfunc_end0-BOARD_InitDebugConsole
	.cfi_endproc
                                        # -- End function
	.section	.text.CLOCK_SetIpSrc,"ax",@progbits
	.p2align	2                               # -- Begin function CLOCK_SetIpSrc
	.type	CLOCK_SetIpSrc,@function
CLOCK_SetIpSrc:                         # @CLOCK_SetIpSrc
.Lfunc_begin1:
	.loc	1 821 0                         # C:/Vega/rv32m1_sdk_riscv/boards/rv32m1_vega/rtos_examples/freertos_hello/ri5cy/riscvgcc/../../../../../../devices/RV32M1/drivers/fsl_clock.h:821:0
	.cfi_startproc
# %bb.0:                                # %entry
	addi	sp, sp, -32
	.cfi_def_cfa_offset 32
	sw	ra, 28(sp)
	sw	s0, 24(sp)
	.cfi_offset ra, -4
	.cfi_offset s0, -8
	addi	s0, sp, 32
	.cfi_def_cfa s0, 0
	sw	a0, -12(s0)
	sw	a1, -16(s0)
.Ltmp2:
	.loc	1 822 43 prologue_end           # C:/Vega/rv32m1_sdk_riscv/boards/rv32m1_vega/rtos_examples/freertos_hello/ri5cy/riscvgcc/../../../../../../devices/RV32M1/drivers/fsl_clock.h:822:43
	lw	a0, -12(s0)
	.loc	1 822 21 is_stmt 0              # C:/Vega/rv32m1_sdk_riscv/boards/rv32m1_vega/rtos_examples/freertos_hello/ri5cy/riscvgcc/../../../../../../devices/RV32M1/drivers/fsl_clock.h:822:21
	lw	a0, 0(a0)
	.loc	1 822 14                        # C:/Vega/rv32m1_sdk_riscv/boards/rv32m1_vega/rtos_examples/freertos_hello/ri5cy/riscvgcc/../../../../../../devices/RV32M1/drivers/fsl_clock.h:822:14
	sw	a0, -20(s0)
	.loc	1 824 11 is_stmt 1              # C:/Vega/rv32m1_sdk_riscv/boards/rv32m1_vega/rtos_examples/freertos_hello/ri5cy/riscvgcc/../../../../../../devices/RV32M1/drivers/fsl_clock.h:824:11
	lbu	a0, -17(s0)
	andi	a0, a0, 128
	mv	a1, zero
	.loc	1 824 6 is_stmt 0               # C:/Vega/rv32m1_sdk_riscv/boards/rv32m1_vega/rtos_examples/freertos_hello/ri5cy/riscvgcc/../../../../../../devices/RV32M1/drivers/fsl_clock.h:824:6
	beq	a0, a1, .LBB1_2
	j	.LBB1_1
.LBB1_1:                                # %cond.true
	j	.LBB1_3
.LBB1_2:                                # %cond.false
	.loc	1 824 40                        # C:/Vega/rv32m1_sdk_riscv/boards/rv32m1_vega/rtos_examples/freertos_hello/ri5cy/riscvgcc/../../../../../../devices/RV32M1/drivers/fsl_clock.h:824:40
	lui	a0, %hi(.L.str)
	addi	a0, a0, %lo(.L.str)
	lui	a1, %hi(.L__func__.CLOCK_SetIpSrc)
	addi	a2, a1, %lo(.L__func__.CLOCK_SetIpSrc)
	lui	a1, %hi(.L.str.1)
	addi	a3, a1, %lo(.L.str.1)
	addi	a1, zero, 824
	call	__assert_func
.LBB1_3:                                # %cond.end
	.loc	1 825 13 is_stmt 1              # C:/Vega/rv32m1_sdk_riscv/boards/rv32m1_vega/rtos_examples/freertos_hello/ri5cy/riscvgcc/../../../../../../devices/RV32M1/drivers/fsl_clock.h:825:13
	lbu	a0, -17(s0)
	andi	a0, a0, 32
	mv	a1, zero
	.loc	1 825 6 is_stmt 0               # C:/Vega/rv32m1_sdk_riscv/boards/rv32m1_vega/rtos_examples/freertos_hello/ri5cy/riscvgcc/../../../../../../devices/RV32M1/drivers/fsl_clock.h:825:6
	bne	a0, a1, .LBB1_5
	j	.LBB1_4
.LBB1_4:                                # %cond.true3
	j	.LBB1_6
.LBB1_5:                                # %cond.false4
	.loc	1 825 43                        # C:/Vega/rv32m1_sdk_riscv/boards/rv32m1_vega/rtos_examples/freertos_hello/ri5cy/riscvgcc/../../../../../../devices/RV32M1/drivers/fsl_clock.h:825:43
	lui	a0, %hi(.L.str)
	addi	a0, a0, %lo(.L.str)
	lui	a1, %hi(.L__func__.CLOCK_SetIpSrc)
	addi	a2, a1, %lo(.L__func__.CLOCK_SetIpSrc)
	lui	a1, %hi(.L.str.2)
	addi	a3, a1, %lo(.L.str.2)
	addi	a1, zero, 825
	call	__assert_func
.LBB1_6:                                # %cond.end5
	.loc	1 827 12 is_stmt 1              # C:/Vega/rv32m1_sdk_riscv/boards/rv32m1_vega/rtos_examples/freertos_hello/ri5cy/riscvgcc/../../../../../../devices/RV32M1/drivers/fsl_clock.h:827:12
	lw	a0, -20(s0)
	lui	a1, 1019904
	addi	a1, a1, -1
	.loc	1 827 16 is_stmt 0              # C:/Vega/rv32m1_sdk_riscv/boards/rv32m1_vega/rtos_examples/freertos_hello/ri5cy/riscvgcc/../../../../../../devices/RV32M1/drivers/fsl_clock.h:827:16
	and	a0, a0, a1
	.loc	1 827 60                        # C:/Vega/rv32m1_sdk_riscv/boards/rv32m1_vega/rtos_examples/freertos_hello/ri5cy/riscvgcc/../../../../../../devices/RV32M1/drivers/fsl_clock.h:827:60
	lw	a1, -16(s0)
	.loc	1 827 66                        # C:/Vega/rv32m1_sdk_riscv/boards/rv32m1_vega/rtos_examples/freertos_hello/ri5cy/riscvgcc/../../../../../../devices/RV32M1/drivers/fsl_clock.h:827:66
	slli	a1, a1, 24
	lui	a2, 28672
	.loc	1 827 77                        # C:/Vega/rv32m1_sdk_riscv/boards/rv32m1_vega/rtos_examples/freertos_hello/ri5cy/riscvgcc/../../../../../../devices/RV32M1/drivers/fsl_clock.h:827:77
	and	a1, a1, a2
	.loc	1 827 33                        # C:/Vega/rv32m1_sdk_riscv/boards/rv32m1_vega/rtos_examples/freertos_hello/ri5cy/riscvgcc/../../../../../../devices/RV32M1/drivers/fsl_clock.h:827:33
	or	a0, a0, a1
	.loc	1 827 9                         # C:/Vega/rv32m1_sdk_riscv/boards/rv32m1_vega/rtos_examples/freertos_hello/ri5cy/riscvgcc/../../../../../../devices/RV32M1/drivers/fsl_clock.h:827:9
	sw	a0, -20(s0)
	.loc	1 833 36 is_stmt 1              # C:/Vega/rv32m1_sdk_riscv/boards/rv32m1_vega/rtos_examples/freertos_hello/ri5cy/riscvgcc/../../../../../../devices/RV32M1/drivers/fsl_clock.h:833:36
	lw	a0, -20(s0)
	lui	a1, 786432
	addi	a1, a1, -1
	.loc	1 833 40 is_stmt 0              # C:/Vega/rv32m1_sdk_riscv/boards/rv32m1_vega/rtos_examples/freertos_hello/ri5cy/riscvgcc/../../../../../../devices/RV32M1/drivers/fsl_clock.h:833:40
	and	a0, a0, a1
	.loc	1 833 28                        # C:/Vega/rv32m1_sdk_riscv/boards/rv32m1_vega/rtos_examples/freertos_hello/ri5cy/riscvgcc/../../../../../../devices/RV32M1/drivers/fsl_clock.h:833:28
	lw	a1, -12(s0)
	.loc	1 833 34                        # C:/Vega/rv32m1_sdk_riscv/boards/rv32m1_vega/rtos_examples/freertos_hello/ri5cy/riscvgcc/../../../../../../devices/RV32M1/drivers/fsl_clock.h:833:34
	sw	a0, 0(a1)
	.loc	1 834 36 is_stmt 1              # C:/Vega/rv32m1_sdk_riscv/boards/rv32m1_vega/rtos_examples/freertos_hello/ri5cy/riscvgcc/../../../../../../devices/RV32M1/drivers/fsl_clock.h:834:36
	lw	a0, -20(s0)
	.loc	1 834 28 is_stmt 0              # C:/Vega/rv32m1_sdk_riscv/boards/rv32m1_vega/rtos_examples/freertos_hello/ri5cy/riscvgcc/../../../../../../devices/RV32M1/drivers/fsl_clock.h:834:28
	lw	a1, -12(s0)
	.loc	1 834 34                        # C:/Vega/rv32m1_sdk_riscv/boards/rv32m1_vega/rtos_examples/freertos_hello/ri5cy/riscvgcc/../../../../../../devices/RV32M1/drivers/fsl_clock.h:834:34
	sw	a0, 0(a1)
	.loc	1 835 1 is_stmt 1               # C:/Vega/rv32m1_sdk_riscv/boards/rv32m1_vega/rtos_examples/freertos_hello/ri5cy/riscvgcc/../../../../../../devices/RV32M1/drivers/fsl_clock.h:835:1
	lw	s0, 24(sp)
	lw	ra, 28(sp)
	addi	sp, sp, 32
	ret
.Ltmp3:
.Lfunc_end1:
	.size	CLOCK_SetIpSrc, .Lfunc_end1-CLOCK_SetIpSrc
	.cfi_endproc
                                        # -- End function
	.type	.L.str,@object                  # @.str
	.section	.rodata.str1.1,"aMS",@progbits,1
.L.str:
	.asciz	"C:/Vega/rv32m1_sdk_riscv/boards/rv32m1_vega/rtos_examples/freertos_hello/ri5cy/riscvgcc/../../../../../../devices/RV32M1/drivers/fsl_clock.h"
	.size	.L.str, 141

	.type	.L__func__.CLOCK_SetIpSrc,@object # @__func__.CLOCK_SetIpSrc
.L__func__.CLOCK_SetIpSrc:
	.asciz	"CLOCK_SetIpSrc"
	.size	.L__func__.CLOCK_SetIpSrc, 15

	.type	.L.str.1,@object                # @.str.1
.L.str.1:
	.asciz	"reg & PCC_CLKCFG_PR_MASK"
	.size	.L.str.1, 25

	.type	.L.str.2,@object                # @.str.2
.L.str.2:
	.asciz	"!(reg & PCC_CLKCFG_INUSE_MASK)"
	.size	.L.str.2, 31

	.section	".note.GNU-stack","",@progbits
	.addrsig
	.addrsig_sym CLOCK_SetIpSrc
	.addrsig_sym CLOCK_GetIpFreq
	.addrsig_sym DbgConsole_Init
	.addrsig_sym __assert_func