	.text
	.attribute	4, 16
	.attribute	5, "rv32i2p0"
	.file	"freertos_hello.c"
	.file	1 "C:/Vega/rv32m1_sdk_riscv/boards/rv32m1_vega/rtos_examples/freertos_hello/ri5cy/riscvgcc/../../../../../../rtos/freertos_9.0.0/Source/portable/GCC/RISCY" "portmacro.h"
	.section	.text.main,"ax",@progbits
	.globl	main                            # -- Begin function main
	.p2align	2
	.type	main,@function
main:                                   # @main
.Lfunc_begin0:
	.file	2 "C:/Vega/rv32m1_sdk_riscv/boards/rv32m1_vega/rtos_examples/freertos_hello/ri5cy" "freertos_hello.c"
	.loc	2 40 0                          # C:/Vega/rv32m1_sdk_riscv/boards/rv32m1_vega/rtos_examples/freertos_hello/ri5cy/freertos_hello.c:40:0
	.cfi_sections .debug_frame
	.cfi_startproc
# %bb.0:                                # %entry
	addi	sp, sp, -16
	.cfi_def_cfa_offset 16
.Ltmp0:
	.loc	2 42 5 prologue_end             # C:/Vega/rv32m1_sdk_riscv/boards/rv32m1_vega/rtos_examples/freertos_hello/ri5cy/freertos_hello.c:42:5
	sw	ra, 12(sp)
	sw	s0, 8(sp)
	.cfi_offset ra, -4
	.cfi_offset s0, -8
	addi	s0, sp, 16
	.cfi_def_cfa s0, 0
	call	BOARD_InitPins
	.loc	2 43 5                          # C:/Vega/rv32m1_sdk_riscv/boards/rv32m1_vega/rtos_examples/freertos_hello/ri5cy/freertos_hello.c:43:5
	call	BOARD_BootClockRUN
	.loc	2 44 5                          # C:/Vega/rv32m1_sdk_riscv/boards/rv32m1_vega/rtos_examples/freertos_hello/ri5cy/freertos_hello.c:44:5
	call	BOARD_InitDebugConsole
.Ltmp1:
	.loc	2 45 9                          # C:/Vega/rv32m1_sdk_riscv/boards/rv32m1_vega/rtos_examples/freertos_hello/ri5cy/freertos_hello.c:45:9
	lui	a0, %hi(hello_task)
	addi	a0, a0, %lo(hello_task)
	lui	a1, %hi(.L.str)
	addi	a1, a1, %lo(.L.str)
	addi	a2, zero, 266
	addi	a4, zero, 4
	mv	a3, zero
	sw	a3, -12(s0)
	lw	a5, -12(s0)
	call	xTaskCreate
	addi	a1, zero, 1
.Ltmp2:
	.loc	2 45 9 is_stmt 0                # C:/Vega/rv32m1_sdk_riscv/boards/rv32m1_vega/rtos_examples/freertos_hello/ri5cy/freertos_hello.c:45:9
	beq	a0, a1, .LBB0_3
	j	.LBB0_1
.LBB0_1:                                # %if.then
.Ltmp3:
	.loc	2 47 9 is_stmt 1                # C:/Vega/rv32m1_sdk_riscv/boards/rv32m1_vega/rtos_examples/freertos_hello/ri5cy/freertos_hello.c:47:9
	lui	a0, %hi(.L.str.1)
	addi	a0, a0, %lo(.L.str.1)
	call	DbgConsole_Printf
	.loc	2 48 9                          # C:/Vega/rv32m1_sdk_riscv/boards/rv32m1_vega/rtos_examples/freertos_hello/ri5cy/freertos_hello.c:48:9
	j	.LBB0_2
.LBB0_2:                                # %while.body
                                        # =>This Inner Loop Header: Depth=1
	j	.LBB0_2
.Ltmp4:
.LBB0_3:                                # %if.end
	.loc	2 51 5                          # C:/Vega/rv32m1_sdk_riscv/boards/rv32m1_vega/rtos_examples/freertos_hello/ri5cy/freertos_hello.c:51:5
	call	vTaskStartScheduler
	.loc	2 52 5                          # C:/Vega/rv32m1_sdk_riscv/boards/rv32m1_vega/rtos_examples/freertos_hello/ri5cy/freertos_hello.c:52:5
	j	.LBB0_4
.LBB0_4:                                # %for.cond
                                        # =>This Inner Loop Header: Depth=1
.Ltmp5:
	.loc	2 52 5 is_stmt 0                # C:/Vega/rv32m1_sdk_riscv/boards/rv32m1_vega/rtos_examples/freertos_hello/ri5cy/freertos_hello.c:52:5
	j	.LBB0_4
.Ltmp6:
.Lfunc_end0:
	.size	main, .Lfunc_end0-main
	.cfi_endproc
                                        # -- End function
	.section	.text.hello_task,"ax",@progbits
	.p2align	2                               # -- Begin function hello_task
	.type	hello_task,@function
hello_task:                             # @hello_task
.Lfunc_begin1:
	.loc	2 60 0 is_stmt 1                # C:/Vega/rv32m1_sdk_riscv/boards/rv32m1_vega/rtos_examples/freertos_hello/ri5cy/freertos_hello.c:60:0
	.cfi_startproc
# %bb.0:                                # %entry
	addi	sp, sp, -16
	.cfi_def_cfa_offset 16
	sw	ra, 12(sp)
	sw	s0, 8(sp)
	.cfi_offset ra, -4
	.cfi_offset s0, -8
	addi	s0, sp, 16
	.cfi_def_cfa s0, 0
	sw	a0, -12(s0)
.Ltmp7:
	.loc	2 61 5 prologue_end             # C:/Vega/rv32m1_sdk_riscv/boards/rv32m1_vega/rtos_examples/freertos_hello/ri5cy/freertos_hello.c:61:5
	j	.LBB1_1
.LBB1_1:                                # %for.cond
                                        # =>This Inner Loop Header: Depth=1
.Ltmp8:
	.loc	2 63 9                          # C:/Vega/rv32m1_sdk_riscv/boards/rv32m1_vega/rtos_examples/freertos_hello/ri5cy/freertos_hello.c:63:9
	lui	a0, %hi(.L.str.2)
	addi	a0, a0, %lo(.L.str.2)
	call	DbgConsole_Printf
	mv	a1, zero
	.loc	2 64 9                          # C:/Vega/rv32m1_sdk_riscv/boards/rv32m1_vega/rtos_examples/freertos_hello/ri5cy/freertos_hello.c:64:9
	sw	a0, -16(s0)
	mv	a0, a1
	call	vTaskSuspend
.Ltmp9:
	.loc	2 61 5                          # C:/Vega/rv32m1_sdk_riscv/boards/rv32m1_vega/rtos_examples/freertos_hello/ri5cy/freertos_hello.c:61:5
	j	.LBB1_1
.Ltmp10:
.Lfunc_end1:
	.size	hello_task, .Lfunc_end1-hello_task
	.cfi_endproc
                                        # -- End function
	.type	.L.str,@object                  # @.str
	.section	.rodata.str1.1,"aMS",@progbits,1
.L.str:
	.asciz	"Hello_task"
	.size	.L.str, 11

	.type	.L.str.1,@object                # @.str.1
.L.str.1:
	.asciz	"Task creation failed!.\r\n"
	.size	.L.str.1, 25

	.type	.L.str.2,@object                # @.str.2
.L.str.2:
	.asciz	"Hello world.\r\n"
	.size	.L.str.2, 15

	.section	".note.GNU-stack","",@progbits
	.addrsig
	.addrsig_sym BOARD_InitPins
	.addrsig_sym BOARD_BootClockRUN
	.addrsig_sym BOARD_InitDebugConsole
	.addrsig_sym xTaskCreate
	.addrsig_sym hello_task
	.addrsig_sym DbgConsole_Printf
	.addrsig_sym vTaskStartScheduler
	.addrsig_sym vTaskSuspend