	.text
	.attribute	4, 16
	.attribute	5, "rv32i2p0"
	.file	"fsl_lpuart.c"
	.file	1 "C:\\Vega" "riscv32-unknown-elf-gcc\\riscv32-unknown-elf\\include\\machine\\_default_types.h"
	.file	2 "C:\\Vega" "riscv32-unknown-elf-gcc\\riscv32-unknown-elf\\include\\sys\\_stdint.h"
	.file	3 "C:/Vega/rv32m1_sdk_riscv/boards/rv32m1_vega/rtos_examples/freertos_hello/ri5cy/riscvgcc/../../../../../../devices/RV32M1/drivers" "fsl_lpuart.h"
	.file	4 "C:\\" "Program Files\\LLVM\\lib\\clang\\11.0.0\\include\\stddef.h"
	.file	5 "C:/Vega/rv32m1_sdk_riscv/boards/rv32m1_vega/rtos_examples/freertos_hello/ri5cy/riscvgcc/../../../../../../devices/RV32M1" "RV32M1_ri5cy.h"
	.file	6 "C:/Vega/rv32m1_sdk_riscv/boards/rv32m1_vega/rtos_examples/freertos_hello/ri5cy/riscvgcc/../../../../../../devices/RV32M1/drivers" "fsl_common.h"
	.file	7 "C:/Vega/rv32m1_sdk_riscv/devices/RV32M1/drivers" "fsl_lpuart.c"
	.file	8 "C:/Vega/rv32m1_sdk_riscv/boards/rv32m1_vega/rtos_examples/freertos_hello/ri5cy/riscvgcc/../../../../../../devices/RV32M1/drivers" "fsl_clock.h"
	.section	.text.LPUART_GetInstance,"ax",@progbits
	.globl	LPUART_GetInstance              # -- Begin function LPUART_GetInstance
	.p2align	2
	.type	LPUART_GetInstance,@function
LPUART_GetInstance:                     # @LPUART_GetInstance
.Lfunc_begin0:
	.loc	7 114 0                         # C:/Vega/rv32m1_sdk_riscv/devices/RV32M1/drivers/fsl_lpuart.c:114:0
	.cfi_sections .debug_frame
	.cfi_startproc
# %bb.0:                                # %entry
	addi	sp, sp, -16
	.cfi_def_cfa_offset 16
	sw	ra, 12(sp)
	sw	s0, 8(sp)
	.cfi_offset ra, -4
	.cfi_offset s0, -8
	addi	s0, sp, 16
	.cfi_def_cfa s0, 0
	sw	a0, -12(s0)
	mv	a0, zero
.Ltmp0:
	.loc	7 118 19 prologue_end           # C:/Vega/rv32m1_sdk_riscv/devices/RV32M1/drivers/fsl_lpuart.c:118:19
	sw	a0, -16(s0)
	.loc	7 118 10 is_stmt 0              # C:/Vega/rv32m1_sdk_riscv/devices/RV32M1/drivers/fsl_lpuart.c:118:10
	j	.LBB0_1
.LBB0_1:                                # %for.cond
                                        # =>This Inner Loop Header: Depth=1
.Ltmp1:
	.loc	7 118 24                        # C:/Vega/rv32m1_sdk_riscv/devices/RV32M1/drivers/fsl_lpuart.c:118:24
	lw	a0, -16(s0)
	addi	a1, zero, 3
.Ltmp2:
	.loc	7 118 5                         # C:/Vega/rv32m1_sdk_riscv/devices/RV32M1/drivers/fsl_lpuart.c:118:5
	bltu	a1, a0, .LBB0_6
	j	.LBB0_2
.LBB0_2:                                # %for.body
                                        #   in Loop: Header=BB0_1 Depth=1
.Ltmp3:
	.loc	7 120 27 is_stmt 1              # C:/Vega/rv32m1_sdk_riscv/devices/RV32M1/drivers/fsl_lpuart.c:120:27
	lw	a0, -16(s0)
	.loc	7 120 13 is_stmt 0              # C:/Vega/rv32m1_sdk_riscv/devices/RV32M1/drivers/fsl_lpuart.c:120:13
	lui	a1, %hi(s_lpuartBases)
	addi	a1, a1, %lo(s_lpuartBases)
	slli	a0, a0, 2
	add	a0, a0, a1
	lw	a0, 0(a0)
	.loc	7 120 40                        # C:/Vega/rv32m1_sdk_riscv/devices/RV32M1/drivers/fsl_lpuart.c:120:40
	lw	a1, -12(s0)
.Ltmp4:
	.loc	7 120 13                        # C:/Vega/rv32m1_sdk_riscv/devices/RV32M1/drivers/fsl_lpuart.c:120:13
	bne	a0, a1, .LBB0_4
	j	.LBB0_3
.LBB0_3:                                # %if.then
.Ltmp5:
	.loc	7 122 13 is_stmt 1              # C:/Vega/rv32m1_sdk_riscv/devices/RV32M1/drivers/fsl_lpuart.c:122:13
	j	.LBB0_6
.Ltmp6:
.LBB0_4:                                # %if.end
                                        #   in Loop: Header=BB0_1 Depth=1
	.loc	7 124 5                         # C:/Vega/rv32m1_sdk_riscv/devices/RV32M1/drivers/fsl_lpuart.c:124:5
	j	.LBB0_5
.Ltmp7:
.LBB0_5:                                # %for.inc
                                        #   in Loop: Header=BB0_1 Depth=1
	.loc	7 118 97                        # C:/Vega/rv32m1_sdk_riscv/devices/RV32M1/drivers/fsl_lpuart.c:118:97
	lw	a0, -16(s0)
	addi	a0, a0, 1
	sw	a0, -16(s0)
	.loc	7 118 5 is_stmt 0               # C:/Vega/rv32m1_sdk_riscv/devices/RV32M1/drivers/fsl_lpuart.c:118:5
	j	.LBB0_1
.Ltmp8:
.LBB0_6:                                # %for.end
	.loc	7 126 7 is_stmt 1               # C:/Vega/rv32m1_sdk_riscv/devices/RV32M1/drivers/fsl_lpuart.c:126:7
	lw	a0, -16(s0)
	addi	a1, zero, 3
	.loc	7 126 6 is_stmt 0               # C:/Vega/rv32m1_sdk_riscv/devices/RV32M1/drivers/fsl_lpuart.c:126:6
	bltu	a1, a0, .LBB0_8
	j	.LBB0_7
.LBB0_7:                                # %cond.true
	j	.LBB0_9
.LBB0_8:                                # %cond.false
	.loc	7 126 84                        # C:/Vega/rv32m1_sdk_riscv/devices/RV32M1/drivers/fsl_lpuart.c:126:84
	lui	a0, %hi(.L.str)
	addi	a0, a0, %lo(.L.str)
	lui	a1, %hi(.L__func__.LPUART_GetInstance)
	addi	a2, a1, %lo(.L__func__.LPUART_GetInstance)
	lui	a1, %hi(.L.str.1)
	addi	a3, a1, %lo(.L.str.1)
	addi	a1, zero, 126
	call	__assert_func
.LBB0_9:                                # %cond.end
	.loc	7 128 12 is_stmt 1              # C:/Vega/rv32m1_sdk_riscv/devices/RV32M1/drivers/fsl_lpuart.c:128:12
	lw	a0, -16(s0)
	.loc	7 128 5 is_stmt 0               # C:/Vega/rv32m1_sdk_riscv/devices/RV32M1/drivers/fsl_lpuart.c:128:5
	lw	s0, 8(sp)
	lw	ra, 12(sp)
	addi	sp, sp, 16
	ret
.Ltmp9:
.Lfunc_end0:
	.size	LPUART_GetInstance, .Lfunc_end0-LPUART_GetInstance
	.cfi_endproc
                                        # -- End function
	.section	.text.LPUART_Init,"ax",@progbits
	.globl	LPUART_Init                     # -- Begin function LPUART_Init
	.p2align	2
	.type	LPUART_Init,@function
LPUART_Init:                            # @LPUART_Init
.Lfunc_begin1:
	.loc	7 212 0 is_stmt 1               # C:/Vega/rv32m1_sdk_riscv/devices/RV32M1/drivers/fsl_lpuart.c:212:0
	.cfi_startproc
# %bb.0:                                # %entry
	addi	sp, sp, -112
	.cfi_def_cfa_offset 112
	sw	ra, 108(sp)
	sw	s0, 104(sp)
	.cfi_offset ra, -4
	.cfi_offset s0, -8
	addi	s0, sp, 112
	.cfi_def_cfa s0, 0
	sw	a0, -16(s0)
	sw	a1, -20(s0)
	sw	a2, -24(s0)
.Ltmp10:
	.loc	7 213 7 prologue_end            # C:/Vega/rv32m1_sdk_riscv/devices/RV32M1/drivers/fsl_lpuart.c:213:7
	lw	a0, -20(s0)
	mv	a1, zero
	.loc	7 213 6 is_stmt 0               # C:/Vega/rv32m1_sdk_riscv/devices/RV32M1/drivers/fsl_lpuart.c:213:6
	beq	a0, a1, .LBB1_2
	j	.LBB1_1
.LBB1_1:                                # %cond.true
	j	.LBB1_3
.LBB1_2:                                # %cond.false
	.loc	7 213 27                        # C:/Vega/rv32m1_sdk_riscv/devices/RV32M1/drivers/fsl_lpuart.c:213:27
	lui	a0, %hi(.L.str)
	addi	a0, a0, %lo(.L.str)
	lui	a1, %hi(.L__func__.LPUART_Init)
	addi	a2, a1, %lo(.L__func__.LPUART_Init)
	lui	a1, %hi(.L.str.2)
	addi	a3, a1, %lo(.L.str.2)
	addi	a1, zero, 213
	call	__assert_func
.LBB1_3:                                # %cond.end
	.loc	7 214 7 is_stmt 1               # C:/Vega/rv32m1_sdk_riscv/devices/RV32M1/drivers/fsl_lpuart.c:214:7
	lw	a0, -20(s0)
	.loc	7 214 15 is_stmt 0              # C:/Vega/rv32m1_sdk_riscv/devices/RV32M1/drivers/fsl_lpuart.c:214:15
	lw	a0, 0(a0)
	mv	a1, zero
	.loc	7 214 6                         # C:/Vega/rv32m1_sdk_riscv/devices/RV32M1/drivers/fsl_lpuart.c:214:6
	beq	a0, a1, .LBB1_5
	j	.LBB1_4
.LBB1_4:                                # %cond.true2
	j	.LBB1_6
.LBB1_5:                                # %cond.false3
	.loc	7 214 41                        # C:/Vega/rv32m1_sdk_riscv/devices/RV32M1/drivers/fsl_lpuart.c:214:41
	lui	a0, %hi(.L.str)
	addi	a0, a0, %lo(.L.str)
	lui	a1, %hi(.L__func__.LPUART_Init)
	addi	a2, a1, %lo(.L__func__.LPUART_Init)
	lui	a1, %hi(.L.str.3)
	addi	a3, a1, %lo(.L.str.3)
	addi	a1, zero, 214
	call	__assert_func
.LBB1_6:                                # %cond.end4
	.loc	7 216 14 is_stmt 1              # C:/Vega/rv32m1_sdk_riscv/devices/RV32M1/drivers/fsl_lpuart.c:216:14
	lw	a0, -20(s0)
	.loc	7 216 22 is_stmt 0              # C:/Vega/rv32m1_sdk_riscv/devices/RV32M1/drivers/fsl_lpuart.c:216:22
	lbu	a0, 20(a0)
	addi	a1, zero, 8
	.loc	7 216 6                         # C:/Vega/rv32m1_sdk_riscv/devices/RV32M1/drivers/fsl_lpuart.c:216:6
	blt	a1, a0, .LBB1_8
	j	.LBB1_7
.LBB1_7:                                # %cond.true6
	j	.LBB1_9
.LBB1_8:                                # %cond.false7
	.loc	7 216 51                        # C:/Vega/rv32m1_sdk_riscv/devices/RV32M1/drivers/fsl_lpuart.c:216:51
	lui	a0, %hi(.L.str)
	addi	a0, a0, %lo(.L.str)
	lui	a1, %hi(.L__func__.LPUART_Init)
	addi	a2, a1, %lo(.L__func__.LPUART_Init)
	lui	a1, %hi(.L.str.4)
	addi	a3, a1, %lo(.L.str.4)
	addi	a1, zero, 216
	call	__assert_func
.LBB1_9:                                # %cond.end8
	.loc	7 217 14 is_stmt 1              # C:/Vega/rv32m1_sdk_riscv/devices/RV32M1/drivers/fsl_lpuart.c:217:14
	lw	a0, -20(s0)
	.loc	7 217 22 is_stmt 0              # C:/Vega/rv32m1_sdk_riscv/devices/RV32M1/drivers/fsl_lpuart.c:217:22
	lbu	a0, 21(a0)
	addi	a1, zero, 8
	.loc	7 217 6                         # C:/Vega/rv32m1_sdk_riscv/devices/RV32M1/drivers/fsl_lpuart.c:217:6
	blt	a1, a0, .LBB1_11
	j	.LBB1_10
.LBB1_10:                               # %cond.true12
	j	.LBB1_12
.LBB1_11:                               # %cond.false13
	.loc	7 217 51                        # C:/Vega/rv32m1_sdk_riscv/devices/RV32M1/drivers/fsl_lpuart.c:217:51
	lui	a0, %hi(.L.str)
	addi	a0, a0, %lo(.L.str)
	lui	a1, %hi(.L__func__.LPUART_Init)
	addi	a2, a1, %lo(.L__func__.LPUART_Init)
	lui	a1, %hi(.L.str.5)
	addi	a3, a1, %lo(.L.str.5)
	addi	a1, zero, 217
	call	__assert_func
.LBB1_12:                               # %cond.end14
	.loc	7 230 16 is_stmt 1              # C:/Vega/rv32m1_sdk_riscv/devices/RV32M1/drivers/fsl_lpuart.c:230:16
	lw	a0, -20(s0)
	.loc	7 230 24 is_stmt 0              # C:/Vega/rv32m1_sdk_riscv/devices/RV32M1/drivers/fsl_lpuart.c:230:24
	lw	a0, 0(a0)
	.loc	7 230 14                        # C:/Vega/rv32m1_sdk_riscv/devices/RV32M1/drivers/fsl_lpuart.c:230:14
	sw	a0, -52(s0)
	mv	a0, zero
	.loc	7 231 9 is_stmt 1               # C:/Vega/rv32m1_sdk_riscv/devices/RV32M1/drivers/fsl_lpuart.c:231:9
	sw	a0, -36(s0)
	.loc	7 232 9                         # C:/Vega/rv32m1_sdk_riscv/devices/RV32M1/drivers/fsl_lpuart.c:232:9
	sh	a0, -30(s0)
	addi	a0, zero, 4
.Ltmp11:
	.loc	7 233 18                        # C:/Vega/rv32m1_sdk_riscv/devices/RV32M1/drivers/fsl_lpuart.c:233:18
	sw	a0, -40(s0)
	.loc	7 233 10 is_stmt 0              # C:/Vega/rv32m1_sdk_riscv/devices/RV32M1/drivers/fsl_lpuart.c:233:10
	j	.LBB1_13
.LBB1_13:                               # %for.cond
                                        # =>This Inner Loop Header: Depth=1
.Ltmp12:
	.loc	7 233 23                        # C:/Vega/rv32m1_sdk_riscv/devices/RV32M1/drivers/fsl_lpuart.c:233:23
	lw	a0, -40(s0)
	addi	a1, zero, 32
.Ltmp13:
	.loc	7 233 5                         # C:/Vega/rv32m1_sdk_riscv/devices/RV32M1/drivers/fsl_lpuart.c:233:5
	bltu	a1, a0, .LBB1_22
	j	.LBB1_14
.LBB1_14:                               # %for.body
                                        #   in Loop: Header=BB1_13 Depth=1
.Ltmp14:
	.loc	7 236 20 is_stmt 1              # C:/Vega/rv32m1_sdk_riscv/devices/RV32M1/drivers/fsl_lpuart.c:236:20
	lw	a0, -24(s0)
	.loc	7 236 35 is_stmt 0              # C:/Vega/rv32m1_sdk_riscv/devices/RV32M1/drivers/fsl_lpuart.c:236:35
	lw	a1, -20(s0)
	.loc	7 236 43                        # C:/Vega/rv32m1_sdk_riscv/devices/RV32M1/drivers/fsl_lpuart.c:236:43
	lw	a1, 0(a1)
	.loc	7 236 58                        # C:/Vega/rv32m1_sdk_riscv/devices/RV32M1/drivers/fsl_lpuart.c:236:58
	lw	a2, -40(s0)
	.loc	7 236 56                        # C:/Vega/rv32m1_sdk_riscv/devices/RV32M1/drivers/fsl_lpuart.c:236:56
	sw	a0, -60(s0)
	mv	a0, a1
	mv	a1, a2
	call	__mulsi3
	.loc	7 236 32                        # C:/Vega/rv32m1_sdk_riscv/devices/RV32M1/drivers/fsl_lpuart.c:236:32
	lw	a1, -60(s0)
	sw	a0, -64(s0)
	mv	a0, a1
	lw	a1, -64(s0)
	call	__udivsi3
	.loc	7 236 17                        # C:/Vega/rv32m1_sdk_riscv/devices/RV32M1/drivers/fsl_lpuart.c:236:17
	sh	a0, -32(s0)
.Ltmp15:
	.loc	7 238 13 is_stmt 1              # C:/Vega/rv32m1_sdk_riscv/devices/RV32M1/drivers/fsl_lpuart.c:238:13
	lhu	a0, -32(s0)
	mv	a1, zero
.Ltmp16:
	.loc	7 238 13 is_stmt 0              # C:/Vega/rv32m1_sdk_riscv/devices/RV32M1/drivers/fsl_lpuart.c:238:13
	bne	a0, a1, .LBB1_16
	j	.LBB1_15
.LBB1_15:                               # %if.then
                                        #   in Loop: Header=BB1_13 Depth=1
	.loc	7 0 13                          # C:/Vega/rv32m1_sdk_riscv/devices/RV32M1/drivers/fsl_lpuart.c:0:13
	addi	a0, zero, 1
.Ltmp17:
	.loc	7 240 21 is_stmt 1              # C:/Vega/rv32m1_sdk_riscv/devices/RV32M1/drivers/fsl_lpuart.c:240:21
	sh	a0, -32(s0)
	.loc	7 241 9                         # C:/Vega/rv32m1_sdk_riscv/devices/RV32M1/drivers/fsl_lpuart.c:241:9
	j	.LBB1_16
.Ltmp18:
.LBB1_16:                               # %if.end
                                        #   in Loop: Header=BB1_13 Depth=1
	.loc	7 243 27                        # C:/Vega/rv32m1_sdk_riscv/devices/RV32M1/drivers/fsl_lpuart.c:243:27
	lw	a0, -24(s0)
	.loc	7 243 42 is_stmt 0              # C:/Vega/rv32m1_sdk_riscv/devices/RV32M1/drivers/fsl_lpuart.c:243:42
	lw	a1, -40(s0)
	.loc	7 243 52                        # C:/Vega/rv32m1_sdk_riscv/devices/RV32M1/drivers/fsl_lpuart.c:243:52
	lhu	a2, -32(s0)
	.loc	7 243 50                        # C:/Vega/rv32m1_sdk_riscv/devices/RV32M1/drivers/fsl_lpuart.c:243:50
	sw	a0, -68(s0)
	mv	a0, a1
	mv	a1, a2
	call	__mulsi3
	.loc	7 243 39                        # C:/Vega/rv32m1_sdk_riscv/devices/RV32M1/drivers/fsl_lpuart.c:243:39
	lw	a1, -68(s0)
	sw	a0, -72(s0)
	mv	a0, a1
	lw	a1, -72(s0)
	call	__udivsi3
	.loc	7 243 24                        # C:/Vega/rv32m1_sdk_riscv/devices/RV32M1/drivers/fsl_lpuart.c:243:24
	sw	a0, -48(s0)
	.loc	7 245 20 is_stmt 1              # C:/Vega/rv32m1_sdk_riscv/devices/RV32M1/drivers/fsl_lpuart.c:245:20
	lw	a0, -48(s0)
	.loc	7 245 37 is_stmt 0              # C:/Vega/rv32m1_sdk_riscv/devices/RV32M1/drivers/fsl_lpuart.c:245:37
	lw	a1, -20(s0)
	.loc	7 245 45                        # C:/Vega/rv32m1_sdk_riscv/devices/RV32M1/drivers/fsl_lpuart.c:245:45
	lw	a1, 0(a1)
	.loc	7 245 35                        # C:/Vega/rv32m1_sdk_riscv/devices/RV32M1/drivers/fsl_lpuart.c:245:35
	sub	a0, a0, a1
	.loc	7 245 18                        # C:/Vega/rv32m1_sdk_riscv/devices/RV32M1/drivers/fsl_lpuart.c:245:18
	sw	a0, -44(s0)
.Ltmp19:
	.loc	7 248 13 is_stmt 1              # C:/Vega/rv32m1_sdk_riscv/devices/RV32M1/drivers/fsl_lpuart.c:248:13
	lw	a0, -44(s0)
	.loc	7 248 25 is_stmt 0              # C:/Vega/rv32m1_sdk_riscv/devices/RV32M1/drivers/fsl_lpuart.c:248:25
	lw	a1, -20(s0)
	.loc	7 248 33                        # C:/Vega/rv32m1_sdk_riscv/devices/RV32M1/drivers/fsl_lpuart.c:248:33
	lw	a1, 0(a1)
	.loc	7 248 49                        # C:/Vega/rv32m1_sdk_riscv/devices/RV32M1/drivers/fsl_lpuart.c:248:49
	lw	a2, -24(s0)
	.loc	7 248 64                        # C:/Vega/rv32m1_sdk_riscv/devices/RV32M1/drivers/fsl_lpuart.c:248:64
	lw	a3, -40(s0)
	.loc	7 248 75                        # C:/Vega/rv32m1_sdk_riscv/devices/RV32M1/drivers/fsl_lpuart.c:248:75
	lhu	a4, -32(s0)
	.loc	7 248 83                        # C:/Vega/rv32m1_sdk_riscv/devices/RV32M1/drivers/fsl_lpuart.c:248:83
	addi	a4, a4, 1
	.loc	7 248 72                        # C:/Vega/rv32m1_sdk_riscv/devices/RV32M1/drivers/fsl_lpuart.c:248:72
	sw	a0, -76(s0)
	mv	a0, a3
	sw	a1, -80(s0)
	mv	a1, a4
	sw	a2, -84(s0)
	call	__mulsi3
	.loc	7 248 61                        # C:/Vega/rv32m1_sdk_riscv/devices/RV32M1/drivers/fsl_lpuart.c:248:61
	lw	a1, -84(s0)
	sw	a0, -88(s0)
	mv	a0, a1
	lw	a1, -88(s0)
	call	__udivsi3
	.loc	7 248 46                        # C:/Vega/rv32m1_sdk_riscv/devices/RV32M1/drivers/fsl_lpuart.c:248:46
	lw	a1, -80(s0)
	sub	a0, a1, a0
.Ltmp20:
	.loc	7 248 13                        # C:/Vega/rv32m1_sdk_riscv/devices/RV32M1/drivers/fsl_lpuart.c:248:13
	lw	a1, -76(s0)
	bgeu	a0, a1, .LBB1_18
	j	.LBB1_17
.LBB1_17:                               # %if.then34
                                        #   in Loop: Header=BB1_13 Depth=1
.Ltmp21:
	.loc	7 250 24 is_stmt 1              # C:/Vega/rv32m1_sdk_riscv/devices/RV32M1/drivers/fsl_lpuart.c:250:24
	lw	a0, -20(s0)
	.loc	7 250 32 is_stmt 0              # C:/Vega/rv32m1_sdk_riscv/devices/RV32M1/drivers/fsl_lpuart.c:250:32
	lw	a0, 0(a0)
	.loc	7 250 48                        # C:/Vega/rv32m1_sdk_riscv/devices/RV32M1/drivers/fsl_lpuart.c:250:48
	lw	a1, -24(s0)
	.loc	7 250 63                        # C:/Vega/rv32m1_sdk_riscv/devices/RV32M1/drivers/fsl_lpuart.c:250:63
	lw	a2, -40(s0)
	.loc	7 250 74                        # C:/Vega/rv32m1_sdk_riscv/devices/RV32M1/drivers/fsl_lpuart.c:250:74
	lhu	a3, -32(s0)
	.loc	7 250 82                        # C:/Vega/rv32m1_sdk_riscv/devices/RV32M1/drivers/fsl_lpuart.c:250:82
	addi	a3, a3, 1
	.loc	7 250 71                        # C:/Vega/rv32m1_sdk_riscv/devices/RV32M1/drivers/fsl_lpuart.c:250:71
	sw	a0, -92(s0)
	mv	a0, a2
	sw	a1, -96(s0)
	mv	a1, a3
	call	__mulsi3
	.loc	7 250 60                        # C:/Vega/rv32m1_sdk_riscv/devices/RV32M1/drivers/fsl_lpuart.c:250:60
	lw	a1, -96(s0)
	sw	a0, -100(s0)
	mv	a0, a1
	lw	a1, -100(s0)
	call	__udivsi3
	.loc	7 250 45                        # C:/Vega/rv32m1_sdk_riscv/devices/RV32M1/drivers/fsl_lpuart.c:250:45
	lw	a1, -92(s0)
	sub	a0, a1, a0
	.loc	7 250 22                        # C:/Vega/rv32m1_sdk_riscv/devices/RV32M1/drivers/fsl_lpuart.c:250:22
	sw	a0, -44(s0)
	.loc	7 251 20 is_stmt 1              # C:/Vega/rv32m1_sdk_riscv/devices/RV32M1/drivers/fsl_lpuart.c:251:20
	lh	a0, -32(s0)
	addi	a0, a0, 1
	sh	a0, -32(s0)
	.loc	7 252 9                         # C:/Vega/rv32m1_sdk_riscv/devices/RV32M1/drivers/fsl_lpuart.c:252:9
	j	.LBB1_18
.Ltmp22:
.LBB1_18:                               # %if.end41
                                        #   in Loop: Header=BB1_13 Depth=1
	.loc	7 254 13                        # C:/Vega/rv32m1_sdk_riscv/devices/RV32M1/drivers/fsl_lpuart.c:254:13
	lw	a0, -44(s0)
	.loc	7 254 25 is_stmt 0              # C:/Vega/rv32m1_sdk_riscv/devices/RV32M1/drivers/fsl_lpuart.c:254:25
	lw	a1, -52(s0)
.Ltmp23:
	.loc	7 254 13                        # C:/Vega/rv32m1_sdk_riscv/devices/RV32M1/drivers/fsl_lpuart.c:254:13
	bltu	a1, a0, .LBB1_20
	j	.LBB1_19
.LBB1_19:                               # %if.then44
                                        #   in Loop: Header=BB1_13 Depth=1
.Ltmp24:
	.loc	7 256 24 is_stmt 1              # C:/Vega/rv32m1_sdk_riscv/devices/RV32M1/drivers/fsl_lpuart.c:256:24
	lw	a0, -44(s0)
	.loc	7 256 22 is_stmt 0              # C:/Vega/rv32m1_sdk_riscv/devices/RV32M1/drivers/fsl_lpuart.c:256:22
	sw	a0, -52(s0)
	.loc	7 257 19 is_stmt 1              # C:/Vega/rv32m1_sdk_riscv/devices/RV32M1/drivers/fsl_lpuart.c:257:19
	lw	a0, -40(s0)
	.loc	7 257 17 is_stmt 0              # C:/Vega/rv32m1_sdk_riscv/devices/RV32M1/drivers/fsl_lpuart.c:257:17
	sw	a0, -36(s0)
	.loc	7 258 19 is_stmt 1              # C:/Vega/rv32m1_sdk_riscv/devices/RV32M1/drivers/fsl_lpuart.c:258:19
	lh	a0, -32(s0)
	.loc	7 258 17 is_stmt 0              # C:/Vega/rv32m1_sdk_riscv/devices/RV32M1/drivers/fsl_lpuart.c:258:17
	sh	a0, -30(s0)
	.loc	7 259 9 is_stmt 1               # C:/Vega/rv32m1_sdk_riscv/devices/RV32M1/drivers/fsl_lpuart.c:259:9
	j	.LBB1_20
.Ltmp25:
.LBB1_20:                               # %if.end45
                                        #   in Loop: Header=BB1_13 Depth=1
	.loc	7 260 5                         # C:/Vega/rv32m1_sdk_riscv/devices/RV32M1/drivers/fsl_lpuart.c:260:5
	j	.LBB1_21
.Ltmp26:
.LBB1_21:                               # %for.inc
                                        #   in Loop: Header=BB1_13 Depth=1
	.loc	7 233 45                        # C:/Vega/rv32m1_sdk_riscv/devices/RV32M1/drivers/fsl_lpuart.c:233:45
	lw	a0, -40(s0)
	addi	a0, a0, 1
	sw	a0, -40(s0)
	.loc	7 233 5 is_stmt 0               # C:/Vega/rv32m1_sdk_riscv/devices/RV32M1/drivers/fsl_lpuart.c:233:5
	j	.LBB1_13
.Ltmp27:
.LBB1_22:                               # %for.end
	.loc	7 264 9 is_stmt 1               # C:/Vega/rv32m1_sdk_riscv/devices/RV32M1/drivers/fsl_lpuart.c:264:9
	lw	a0, -52(s0)
	.loc	7 264 22 is_stmt 0              # C:/Vega/rv32m1_sdk_riscv/devices/RV32M1/drivers/fsl_lpuart.c:264:22
	lw	a1, -20(s0)
	.loc	7 264 30                        # C:/Vega/rv32m1_sdk_riscv/devices/RV32M1/drivers/fsl_lpuart.c:264:30
	lw	a1, 0(a1)
	addi	a2, zero, 100
	.loc	7 264 43                        # C:/Vega/rv32m1_sdk_riscv/devices/RV32M1/drivers/fsl_lpuart.c:264:43
	sw	a0, -104(s0)
	mv	a0, a1
	mv	a1, a2
	call	__udivsi3
	.loc	7 264 50                        # C:/Vega/rv32m1_sdk_riscv/devices/RV32M1/drivers/fsl_lpuart.c:264:50
	slli	a1, a0, 1
	add	a0, a1, a0
.Ltmp28:
	.loc	7 264 9                         # C:/Vega/rv32m1_sdk_riscv/devices/RV32M1/drivers/fsl_lpuart.c:264:9
	lw	a1, -104(s0)
	bgeu	a0, a1, .LBB1_24
	j	.LBB1_23
.LBB1_23:                               # %if.then52
	.loc	7 0 9                           # C:/Vega/rv32m1_sdk_riscv/devices/RV32M1/drivers/fsl_lpuart.c:0:9
	addi	a0, zero, 1313
.Ltmp29:
	.loc	7 267 9 is_stmt 1               # C:/Vega/rv32m1_sdk_riscv/devices/RV32M1/drivers/fsl_lpuart.c:267:9
	sw	a0, -12(s0)
	j	.LBB1_47
.Ltmp30:
.LBB1_24:                               # %if.end53
	.loc	7 272 44                        # C:/Vega/rv32m1_sdk_riscv/devices/RV32M1/drivers/fsl_lpuart.c:272:44
	lw	a0, -16(s0)
	.loc	7 272 25 is_stmt 0              # C:/Vega/rv32m1_sdk_riscv/devices/RV32M1/drivers/fsl_lpuart.c:272:25
	call	LPUART_GetInstance
	.loc	7 272 14                        # C:/Vega/rv32m1_sdk_riscv/devices/RV32M1/drivers/fsl_lpuart.c:272:14
	sw	a0, -56(s0)
	.loc	7 275 37 is_stmt 1              # C:/Vega/rv32m1_sdk_riscv/devices/RV32M1/drivers/fsl_lpuart.c:275:37
	lw	a0, -56(s0)
	.loc	7 275 23 is_stmt 0              # C:/Vega/rv32m1_sdk_riscv/devices/RV32M1/drivers/fsl_lpuart.c:275:23
	lui	a1, %hi(s_lpuartClock)
	addi	a1, a1, %lo(s_lpuartClock)
	slli	a0, a0, 2
	add	a0, a0, a1
	lw	a0, 0(a0)
	.loc	7 275 5                         # C:/Vega/rv32m1_sdk_riscv/devices/RV32M1/drivers/fsl_lpuart.c:275:5
	call	CLOCK_EnableClock
	.loc	7 284 26 is_stmt 1              # C:/Vega/rv32m1_sdk_riscv/devices/RV32M1/drivers/fsl_lpuart.c:284:26
	lw	a0, -16(s0)
	.loc	7 284 5 is_stmt 0               # C:/Vega/rv32m1_sdk_riscv/devices/RV32M1/drivers/fsl_lpuart.c:284:5
	call	LPUART_SoftwareReset
	.loc	7 290 12 is_stmt 1              # C:/Vega/rv32m1_sdk_riscv/devices/RV32M1/drivers/fsl_lpuart.c:290:12
	lw	a0, -16(s0)
	.loc	7 290 18 is_stmt 0              # C:/Vega/rv32m1_sdk_riscv/devices/RV32M1/drivers/fsl_lpuart.c:290:18
	lw	a0, 16(a0)
	.loc	7 290 10                        # C:/Vega/rv32m1_sdk_riscv/devices/RV32M1/drivers/fsl_lpuart.c:290:10
	sw	a0, -28(s0)
.Ltmp31:
	.loc	7 294 10 is_stmt 1              # C:/Vega/rv32m1_sdk_riscv/devices/RV32M1/drivers/fsl_lpuart.c:294:10
	lw	a0, -36(s0)
	addi	a1, zero, 4
	.loc	7 294 19 is_stmt 0              # C:/Vega/rv32m1_sdk_riscv/devices/RV32M1/drivers/fsl_lpuart.c:294:19
	bltu	a0, a1, .LBB1_27
	j	.LBB1_25
.LBB1_25:                               # %land.lhs.true
	.loc	7 294 23                        # C:/Vega/rv32m1_sdk_riscv/devices/RV32M1/drivers/fsl_lpuart.c:294:23
	lw	a0, -36(s0)
	addi	a1, zero, 7
.Ltmp32:
	.loc	7 294 9                         # C:/Vega/rv32m1_sdk_riscv/devices/RV32M1/drivers/fsl_lpuart.c:294:9
	bltu	a1, a0, .LBB1_27
	j	.LBB1_26
.LBB1_26:                               # %if.then58
.Ltmp33:
	.loc	7 296 14 is_stmt 1              # C:/Vega/rv32m1_sdk_riscv/devices/RV32M1/drivers/fsl_lpuart.c:296:14
	lw	a0, -28(s0)
	lui	a1, 32
	or	a0, a0, a1
	sw	a0, -28(s0)
	.loc	7 297 5                         # C:/Vega/rv32m1_sdk_riscv/devices/RV32M1/drivers/fsl_lpuart.c:297:5
	j	.LBB1_27
.Ltmp34:
.LBB1_27:                               # %if.end59
	.loc	7 300 10                        # C:/Vega/rv32m1_sdk_riscv/devices/RV32M1/drivers/fsl_lpuart.c:300:10
	lw	a0, -28(s0)
	lui	a1, 921600
	addi	a1, a1, -1
	and	a0, a0, a1
	sw	a0, -28(s0)
	.loc	7 301 38                        # C:/Vega/rv32m1_sdk_riscv/devices/RV32M1/drivers/fsl_lpuart.c:301:38
	lw	a0, -36(s0)
	.loc	7 301 42 is_stmt 0              # C:/Vega/rv32m1_sdk_riscv/devices/RV32M1/drivers/fsl_lpuart.c:301:42
	addi	a0, a0, -1
	.loc	7 301 48                        # C:/Vega/rv32m1_sdk_riscv/devices/RV32M1/drivers/fsl_lpuart.c:301:48
	slli	a0, a0, 24
	lui	a1, 126976
	.loc	7 301 59                        # C:/Vega/rv32m1_sdk_riscv/devices/RV32M1/drivers/fsl_lpuart.c:301:59
	and	a0, a0, a1
	.loc	7 301 10                        # C:/Vega/rv32m1_sdk_riscv/devices/RV32M1/drivers/fsl_lpuart.c:301:10
	lw	a1, -28(s0)
	or	a0, a1, a0
	sw	a0, -28(s0)
	.loc	7 304 10 is_stmt 1              # C:/Vega/rv32m1_sdk_riscv/devices/RV32M1/drivers/fsl_lpuart.c:304:10
	lw	a0, -28(s0)
	lui	a1, 1048574
	and	a0, a0, a1
	sw	a0, -28(s0)
	.loc	7 305 18                        # C:/Vega/rv32m1_sdk_riscv/devices/RV32M1/drivers/fsl_lpuart.c:305:18
	lw	a0, -28(s0)
	.loc	7 305 39 is_stmt 0              # C:/Vega/rv32m1_sdk_riscv/devices/RV32M1/drivers/fsl_lpuart.c:305:39
	lhu	a1, -30(s0)
	lui	a2, 2
	addi	a2, a2, -1
	.loc	7 305 66                        # C:/Vega/rv32m1_sdk_riscv/devices/RV32M1/drivers/fsl_lpuart.c:305:66
	and	a1, a1, a2
	.loc	7 305 23                        # C:/Vega/rv32m1_sdk_riscv/devices/RV32M1/drivers/fsl_lpuart.c:305:23
	or	a0, a0, a1
	.loc	7 305 5                         # C:/Vega/rv32m1_sdk_riscv/devices/RV32M1/drivers/fsl_lpuart.c:305:5
	lw	a1, -16(s0)
	.loc	7 305 16                        # C:/Vega/rv32m1_sdk_riscv/devices/RV32M1/drivers/fsl_lpuart.c:305:16
	sw	a0, 16(a1)
	.loc	7 308 5 is_stmt 1               # C:/Vega/rv32m1_sdk_riscv/devices/RV32M1/drivers/fsl_lpuart.c:308:5
	lw	a0, -16(s0)
	.loc	7 308 16 is_stmt 0              # C:/Vega/rv32m1_sdk_riscv/devices/RV32M1/drivers/fsl_lpuart.c:308:16
	lw	a1, 16(a0)
	lui	a2, 917504
	addi	a2, a2, -1
	and	a1, a1, a2
	sw	a1, 16(a0)
	.loc	7 310 12 is_stmt 1              # C:/Vega/rv32m1_sdk_riscv/devices/RV32M1/drivers/fsl_lpuart.c:310:12
	lw	a0, -16(s0)
	.loc	7 310 18 is_stmt 0              # C:/Vega/rv32m1_sdk_riscv/devices/RV32M1/drivers/fsl_lpuart.c:310:18
	lw	a0, 24(a0)
	.loc	7 310 23                        # C:/Vega/rv32m1_sdk_riscv/devices/RV32M1/drivers/fsl_lpuart.c:310:23
	andi	a0, a0, -1816
	.loc	7 310 10                        # C:/Vega/rv32m1_sdk_riscv/devices/RV32M1/drivers/fsl_lpuart.c:310:10
	sw	a0, -28(s0)
	.loc	7 315 18 is_stmt 1              # C:/Vega/rv32m1_sdk_riscv/devices/RV32M1/drivers/fsl_lpuart.c:315:18
	lw	a0, -20(s0)
	.loc	7 315 26 is_stmt 0              # C:/Vega/rv32m1_sdk_riscv/devices/RV32M1/drivers/fsl_lpuart.c:315:26
	lbu	a1, 4(a0)
	.loc	7 315 72                        # C:/Vega/rv32m1_sdk_riscv/devices/RV32M1/drivers/fsl_lpuart.c:315:72
	lw	a2, 36(a0)
	.loc	7 315 87                        # C:/Vega/rv32m1_sdk_riscv/devices/RV32M1/drivers/fsl_lpuart.c:315:87
	slli	a2, a2, 8
	.loc	7 315 97                        # C:/Vega/rv32m1_sdk_riscv/devices/RV32M1/drivers/fsl_lpuart.c:315:97
	andi	a2, a2, 1792
	.loc	7 315 37                        # C:/Vega/rv32m1_sdk_riscv/devices/RV32M1/drivers/fsl_lpuart.c:315:37
	or	a1, a1, a2
	.loc	7 315 144                       # C:/Vega/rv32m1_sdk_riscv/devices/RV32M1/drivers/fsl_lpuart.c:315:144
	lw	a0, 32(a0)
	.loc	7 315 157                       # C:/Vega/rv32m1_sdk_riscv/devices/RV32M1/drivers/fsl_lpuart.c:315:157
	slli	a0, a0, 2
	.loc	7 315 167                       # C:/Vega/rv32m1_sdk_riscv/devices/RV32M1/drivers/fsl_lpuart.c:315:167
	andi	a0, a0, 4
	.loc	7 315 109                       # C:/Vega/rv32m1_sdk_riscv/devices/RV32M1/drivers/fsl_lpuart.c:315:109
	or	a0, a1, a0
	.loc	7 314 10 is_stmt 1              # C:/Vega/rv32m1_sdk_riscv/devices/RV32M1/drivers/fsl_lpuart.c:314:10
	lw	a1, -28(s0)
	or	a0, a1, a0
	sw	a0, -28(s0)
.Ltmp35:
	.loc	7 318 34                        # C:/Vega/rv32m1_sdk_riscv/devices/RV32M1/drivers/fsl_lpuart.c:318:34
	lw	a0, -20(s0)
	.loc	7 318 42 is_stmt 0              # C:/Vega/rv32m1_sdk_riscv/devices/RV32M1/drivers/fsl_lpuart.c:318:42
	lw	a0, 8(a0)
	addi	a1, zero, 1
.Ltmp36:
	.loc	7 318 9                         # C:/Vega/rv32m1_sdk_riscv/devices/RV32M1/drivers/fsl_lpuart.c:318:9
	bne	a0, a1, .LBB1_32
	j	.LBB1_28
.LBB1_28:                               # %if.then83
.Ltmp37:
	.loc	7 320 39 is_stmt 1              # C:/Vega/rv32m1_sdk_riscv/devices/RV32M1/drivers/fsl_lpuart.c:320:39
	lw	a0, -20(s0)
	.loc	7 320 47 is_stmt 0              # C:/Vega/rv32m1_sdk_riscv/devices/RV32M1/drivers/fsl_lpuart.c:320:47
	lw	a0, 4(a0)
	mv	a1, zero
.Ltmp38:
	.loc	7 320 13                        # C:/Vega/rv32m1_sdk_riscv/devices/RV32M1/drivers/fsl_lpuart.c:320:13
	beq	a0, a1, .LBB1_30
	j	.LBB1_29
.LBB1_29:                               # %if.then87
.Ltmp39:
	.loc	7 322 18 is_stmt 1              # C:/Vega/rv32m1_sdk_riscv/devices/RV32M1/drivers/fsl_lpuart.c:322:18
	lw	a0, -28(s0)
	lui	a1, 1048575
	addi	a1, a1, 2047
	and	a0, a0, a1
	sw	a0, -28(s0)
	.loc	7 323 9                         # C:/Vega/rv32m1_sdk_riscv/devices/RV32M1/drivers/fsl_lpuart.c:323:9
	j	.LBB1_31
.Ltmp40:
.LBB1_30:                               # %if.else
	.loc	7 326 18                        # C:/Vega/rv32m1_sdk_riscv/devices/RV32M1/drivers/fsl_lpuart.c:326:18
	lw	a0, -28(s0)
	lui	a1, 1
	addi	a1, a1, -2048
	or	a0, a0, a1
	sw	a0, -28(s0)
	j	.LBB1_31
.Ltmp41:
.LBB1_31:                               # %if.end90
	.loc	7 328 5                         # C:/Vega/rv32m1_sdk_riscv/devices/RV32M1/drivers/fsl_lpuart.c:328:5
	j	.LBB1_35
.Ltmp42:
.LBB1_32:                               # %if.else91
	.loc	7 332 39                        # C:/Vega/rv32m1_sdk_riscv/devices/RV32M1/drivers/fsl_lpuart.c:332:39
	lw	a0, -20(s0)
	.loc	7 332 47 is_stmt 0              # C:/Vega/rv32m1_sdk_riscv/devices/RV32M1/drivers/fsl_lpuart.c:332:47
	lw	a0, 4(a0)
	mv	a1, zero
.Ltmp43:
	.loc	7 332 13                        # C:/Vega/rv32m1_sdk_riscv/devices/RV32M1/drivers/fsl_lpuart.c:332:13
	beq	a0, a1, .LBB1_34
	j	.LBB1_33
.LBB1_33:                               # %if.then95
.Ltmp44:
	.loc	7 334 18 is_stmt 1              # C:/Vega/rv32m1_sdk_riscv/devices/RV32M1/drivers/fsl_lpuart.c:334:18
	lw	a0, -28(s0)
	ori	a0, a0, 16
	sw	a0, -28(s0)
	.loc	7 335 9                         # C:/Vega/rv32m1_sdk_riscv/devices/RV32M1/drivers/fsl_lpuart.c:335:9
	j	.LBB1_34
.Ltmp45:
.LBB1_34:                               # %if.end97
	.loc	7 0 9 is_stmt 0                 # C:/Vega/rv32m1_sdk_riscv/devices/RV32M1/drivers/fsl_lpuart.c:0:9
	j	.LBB1_35
.LBB1_35:                               # %if.end98
	.loc	7 338 18 is_stmt 1              # C:/Vega/rv32m1_sdk_riscv/devices/RV32M1/drivers/fsl_lpuart.c:338:18
	lw	a0, -28(s0)
	.loc	7 338 5 is_stmt 0               # C:/Vega/rv32m1_sdk_riscv/devices/RV32M1/drivers/fsl_lpuart.c:338:5
	lw	a1, -16(s0)
	.loc	7 338 16                        # C:/Vega/rv32m1_sdk_riscv/devices/RV32M1/drivers/fsl_lpuart.c:338:16
	sw	a0, 24(a1)
	.loc	7 342 12 is_stmt 1              # C:/Vega/rv32m1_sdk_riscv/devices/RV32M1/drivers/fsl_lpuart.c:342:12
	lw	a0, -16(s0)
	.loc	7 342 18 is_stmt 0              # C:/Vega/rv32m1_sdk_riscv/devices/RV32M1/drivers/fsl_lpuart.c:342:18
	lw	a0, 16(a0)
	lui	a1, 1048574
	addi	a1, a1, -1
	.loc	7 342 23                        # C:/Vega/rv32m1_sdk_riscv/devices/RV32M1/drivers/fsl_lpuart.c:342:23
	and	a0, a0, a1
	.loc	7 342 10                        # C:/Vega/rv32m1_sdk_riscv/devices/RV32M1/drivers/fsl_lpuart.c:342:10
	sw	a0, -28(s0)
	.loc	7 343 18 is_stmt 1              # C:/Vega/rv32m1_sdk_riscv/devices/RV32M1/drivers/fsl_lpuart.c:343:18
	lw	a0, -28(s0)
	.loc	7 343 59 is_stmt 0              # C:/Vega/rv32m1_sdk_riscv/devices/RV32M1/drivers/fsl_lpuart.c:343:59
	lw	a1, -20(s0)
	.loc	7 343 67                        # C:/Vega/rv32m1_sdk_riscv/devices/RV32M1/drivers/fsl_lpuart.c:343:67
	lw	a1, 16(a1)
	.loc	7 343 82                        # C:/Vega/rv32m1_sdk_riscv/devices/RV32M1/drivers/fsl_lpuart.c:343:82
	slli	a1, a1, 13
	lui	a2, 2
	.loc	7 343 93                        # C:/Vega/rv32m1_sdk_riscv/devices/RV32M1/drivers/fsl_lpuart.c:343:93
	and	a1, a1, a2
	.loc	7 343 23                        # C:/Vega/rv32m1_sdk_riscv/devices/RV32M1/drivers/fsl_lpuart.c:343:23
	or	a0, a0, a1
	.loc	7 343 5                         # C:/Vega/rv32m1_sdk_riscv/devices/RV32M1/drivers/fsl_lpuart.c:343:5
	lw	a1, -16(s0)
	.loc	7 343 16                        # C:/Vega/rv32m1_sdk_riscv/devices/RV32M1/drivers/fsl_lpuart.c:343:16
	sw	a0, 16(a1)
	.loc	7 356 32 is_stmt 1              # C:/Vega/rv32m1_sdk_riscv/devices/RV32M1/drivers/fsl_lpuart.c:356:32
	lw	a0, -20(s0)
	.loc	7 356 40 is_stmt 0              # C:/Vega/rv32m1_sdk_riscv/devices/RV32M1/drivers/fsl_lpuart.c:356:40
	lbu	a1, 21(a0)
	.loc	7 356 57                        # C:/Vega/rv32m1_sdk_riscv/devices/RV32M1/drivers/fsl_lpuart.c:356:57
	slli	a1, a1, 16
	.loc	7 356 74                        # C:/Vega/rv32m1_sdk_riscv/devices/RV32M1/drivers/fsl_lpuart.c:356:74
	lbu	a0, 20(a0)
	.loc	7 356 64                        # C:/Vega/rv32m1_sdk_riscv/devices/RV32M1/drivers/fsl_lpuart.c:356:64
	or	a0, a1, a0
	.loc	7 356 5                         # C:/Vega/rv32m1_sdk_riscv/devices/RV32M1/drivers/fsl_lpuart.c:356:5
	lw	a1, -16(s0)
	.loc	7 356 17                        # C:/Vega/rv32m1_sdk_riscv/devices/RV32M1/drivers/fsl_lpuart.c:356:17
	sw	a0, 44(a1)
	.loc	7 359 5 is_stmt 1               # C:/Vega/rv32m1_sdk_riscv/devices/RV32M1/drivers/fsl_lpuart.c:359:5
	lw	a0, -16(s0)
	.loc	7 359 16 is_stmt 0              # C:/Vega/rv32m1_sdk_riscv/devices/RV32M1/drivers/fsl_lpuart.c:359:16
	lw	a1, 40(a0)
	ori	a1, a1, 136
	sw	a1, 40(a0)
	.loc	7 362 5 is_stmt 1               # C:/Vega/rv32m1_sdk_riscv/devices/RV32M1/drivers/fsl_lpuart.c:362:5
	lw	a0, -16(s0)
	.loc	7 362 16 is_stmt 0              # C:/Vega/rv32m1_sdk_riscv/devices/RV32M1/drivers/fsl_lpuart.c:362:16
	lw	a1, 40(a0)
	lui	a2, 12
	or	a1, a1, a2
	sw	a1, 40(a0)
	lui	a0, 262640
	.loc	7 366 10 is_stmt 1              # C:/Vega/rv32m1_sdk_riscv/devices/RV32M1/drivers/fsl_lpuart.c:366:10
	sw	a0, -28(s0)
	.loc	7 370 10                        # C:/Vega/rv32m1_sdk_riscv/devices/RV32M1/drivers/fsl_lpuart.c:370:10
	lw	a0, -28(s0)
	lui	a1, 524288
	or	a0, a0, a1
	sw	a0, -28(s0)
	.loc	7 374 10                        # C:/Vega/rv32m1_sdk_riscv/devices/RV32M1/drivers/fsl_lpuart.c:374:10
	lw	a0, -28(s0)
	or	a0, a0, a2
	sw	a0, -28(s0)
	.loc	7 379 45                        # C:/Vega/rv32m1_sdk_riscv/devices/RV32M1/drivers/fsl_lpuart.c:379:45
	lw	a0, -20(s0)
	.loc	7 379 53 is_stmt 0              # C:/Vega/rv32m1_sdk_riscv/devices/RV32M1/drivers/fsl_lpuart.c:379:53
	lw	a1, 28(a0)
	.loc	7 379 67                        # C:/Vega/rv32m1_sdk_riscv/devices/RV32M1/drivers/fsl_lpuart.c:379:67
	slli	a1, a1, 4
	.loc	7 379 77                        # C:/Vega/rv32m1_sdk_riscv/devices/RV32M1/drivers/fsl_lpuart.c:379:77
	andi	a1, a1, 16
	.loc	7 379 123                       # C:/Vega/rv32m1_sdk_riscv/devices/RV32M1/drivers/fsl_lpuart.c:379:123
	lw	a0, 24(a0)
	.loc	7 379 137                       # C:/Vega/rv32m1_sdk_riscv/devices/RV32M1/drivers/fsl_lpuart.c:379:137
	slli	a0, a0, 5
	.loc	7 379 147                       # C:/Vega/rv32m1_sdk_riscv/devices/RV32M1/drivers/fsl_lpuart.c:379:147
	andi	a0, a0, 32
	.loc	7 379 88                        # C:/Vega/rv32m1_sdk_riscv/devices/RV32M1/drivers/fsl_lpuart.c:379:88
	or	a0, a1, a0
	.loc	7 379 5                         # C:/Vega/rv32m1_sdk_riscv/devices/RV32M1/drivers/fsl_lpuart.c:379:5
	lw	a1, -16(s0)
	.loc	7 379 17                        # C:/Vega/rv32m1_sdk_riscv/devices/RV32M1/drivers/fsl_lpuart.c:379:17
	lw	a2, 36(a1)
	or	a0, a2, a0
	sw	a0, 36(a1)
.Ltmp46:
	.loc	7 380 9 is_stmt 1               # C:/Vega/rv32m1_sdk_riscv/devices/RV32M1/drivers/fsl_lpuart.c:380:9
	lw	a0, -20(s0)
	.loc	7 380 17 is_stmt 0              # C:/Vega/rv32m1_sdk_riscv/devices/RV32M1/drivers/fsl_lpuart.c:380:17
	lbu	a0, 22(a0)
	andi	a0, a0, 1
	mv	a1, zero
.Ltmp47:
	.loc	7 380 9                         # C:/Vega/rv32m1_sdk_riscv/devices/RV32M1/drivers/fsl_lpuart.c:380:9
	beq	a0, a1, .LBB1_37
	j	.LBB1_36
.LBB1_36:                               # %if.then126
.Ltmp48:
	.loc	7 383 9 is_stmt 1               # C:/Vega/rv32m1_sdk_riscv/devices/RV32M1/drivers/fsl_lpuart.c:383:9
	lw	a0, -16(s0)
	.loc	7 383 21 is_stmt 0              # C:/Vega/rv32m1_sdk_riscv/devices/RV32M1/drivers/fsl_lpuart.c:383:21
	lw	a1, 36(a0)
	ori	a1, a1, 8
	sw	a1, 36(a0)
	.loc	7 384 5 is_stmt 1               # C:/Vega/rv32m1_sdk_riscv/devices/RV32M1/drivers/fsl_lpuart.c:384:5
	j	.LBB1_37
.Ltmp49:
.LBB1_37:                               # %if.end129
	.loc	7 385 9                         # C:/Vega/rv32m1_sdk_riscv/devices/RV32M1/drivers/fsl_lpuart.c:385:9
	lw	a0, -20(s0)
	.loc	7 385 17 is_stmt 0              # C:/Vega/rv32m1_sdk_riscv/devices/RV32M1/drivers/fsl_lpuart.c:385:17
	lbu	a0, 23(a0)
	andi	a0, a0, 1
	mv	a1, zero
.Ltmp50:
	.loc	7 385 9                         # C:/Vega/rv32m1_sdk_riscv/devices/RV32M1/drivers/fsl_lpuart.c:385:9
	beq	a0, a1, .LBB1_39
	j	.LBB1_38
.LBB1_38:                               # %if.then131
.Ltmp51:
	.loc	7 388 9 is_stmt 1               # C:/Vega/rv32m1_sdk_riscv/devices/RV32M1/drivers/fsl_lpuart.c:388:9
	lw	a0, -16(s0)
	.loc	7 388 21 is_stmt 0              # C:/Vega/rv32m1_sdk_riscv/devices/RV32M1/drivers/fsl_lpuart.c:388:21
	lw	a1, 36(a0)
	ori	a1, a1, 1
	sw	a1, 36(a0)
	.loc	7 389 5 is_stmt 1               # C:/Vega/rv32m1_sdk_riscv/devices/RV32M1/drivers/fsl_lpuart.c:389:5
	j	.LBB1_39
.Ltmp52:
.LBB1_39:                               # %if.end134
	.loc	7 393 9                         # C:/Vega/rv32m1_sdk_riscv/devices/RV32M1/drivers/fsl_lpuart.c:393:9
	lw	a0, -20(s0)
	.loc	7 393 17 is_stmt 0              # C:/Vega/rv32m1_sdk_riscv/devices/RV32M1/drivers/fsl_lpuart.c:393:17
	lbu	a0, 12(a0)
	andi	a0, a0, 1
	mv	a1, zero
.Ltmp53:
	.loc	7 393 9                         # C:/Vega/rv32m1_sdk_riscv/devices/RV32M1/drivers/fsl_lpuart.c:393:9
	beq	a0, a1, .LBB1_41
	j	.LBB1_40
.LBB1_40:                               # %if.then136
.Ltmp54:
	.loc	7 395 14 is_stmt 1              # C:/Vega/rv32m1_sdk_riscv/devices/RV32M1/drivers/fsl_lpuart.c:395:14
	lw	a0, -28(s0)
	lui	a1, 131072
	or	a0, a0, a1
	sw	a0, -28(s0)
	.loc	7 396 5                         # C:/Vega/rv32m1_sdk_riscv/devices/RV32M1/drivers/fsl_lpuart.c:396:5
	j	.LBB1_42
.Ltmp55:
.LBB1_41:                               # %if.else138
	.loc	7 399 14                        # C:/Vega/rv32m1_sdk_riscv/devices/RV32M1/drivers/fsl_lpuart.c:399:14
	lw	a0, -28(s0)
	lui	a1, 917504
	addi	a1, a1, -1
	and	a0, a0, a1
	sw	a0, -28(s0)
	j	.LBB1_42
.Ltmp56:
.LBB1_42:                               # %if.end140
	.loc	7 402 19                        # C:/Vega/rv32m1_sdk_riscv/devices/RV32M1/drivers/fsl_lpuart.c:402:19
	lw	a0, -28(s0)
	.loc	7 402 5 is_stmt 0               # C:/Vega/rv32m1_sdk_riscv/devices/RV32M1/drivers/fsl_lpuart.c:402:5
	lw	a1, -16(s0)
	.loc	7 402 16                        # C:/Vega/rv32m1_sdk_riscv/devices/RV32M1/drivers/fsl_lpuart.c:402:16
	lw	a2, 20(a1)
	or	a0, a2, a0
	sw	a0, 20(a1)
	.loc	7 405 12 is_stmt 1              # C:/Vega/rv32m1_sdk_riscv/devices/RV32M1/drivers/fsl_lpuart.c:405:12
	lw	a0, -16(s0)
	.loc	7 405 18 is_stmt 0              # C:/Vega/rv32m1_sdk_riscv/devices/RV32M1/drivers/fsl_lpuart.c:405:18
	lw	a0, 24(a0)
	.loc	7 405 10                        # C:/Vega/rv32m1_sdk_riscv/devices/RV32M1/drivers/fsl_lpuart.c:405:10
	sw	a0, -28(s0)
.Ltmp57:
	.loc	7 406 9 is_stmt 1               # C:/Vega/rv32m1_sdk_riscv/devices/RV32M1/drivers/fsl_lpuart.c:406:9
	lw	a0, -20(s0)
	.loc	7 406 17 is_stmt 0              # C:/Vega/rv32m1_sdk_riscv/devices/RV32M1/drivers/fsl_lpuart.c:406:17
	lbu	a0, 40(a0)
	andi	a0, a0, 1
	mv	a1, zero
.Ltmp58:
	.loc	7 406 9                         # C:/Vega/rv32m1_sdk_riscv/devices/RV32M1/drivers/fsl_lpuart.c:406:9
	beq	a0, a1, .LBB1_44
	j	.LBB1_43
.LBB1_43:                               # %if.then144
.Ltmp59:
	.loc	7 408 14 is_stmt 1              # C:/Vega/rv32m1_sdk_riscv/devices/RV32M1/drivers/fsl_lpuart.c:408:14
	lw	a0, -28(s0)
	lui	a1, 128
	or	a0, a0, a1
	sw	a0, -28(s0)
	.loc	7 409 5                         # C:/Vega/rv32m1_sdk_riscv/devices/RV32M1/drivers/fsl_lpuart.c:409:5
	j	.LBB1_44
.Ltmp60:
.LBB1_44:                               # %if.end146
	.loc	7 411 9                         # C:/Vega/rv32m1_sdk_riscv/devices/RV32M1/drivers/fsl_lpuart.c:411:9
	lw	a0, -20(s0)
	.loc	7 411 17 is_stmt 0              # C:/Vega/rv32m1_sdk_riscv/devices/RV32M1/drivers/fsl_lpuart.c:411:17
	lbu	a0, 41(a0)
	andi	a0, a0, 1
	mv	a1, zero
.Ltmp61:
	.loc	7 411 9                         # C:/Vega/rv32m1_sdk_riscv/devices/RV32M1/drivers/fsl_lpuart.c:411:9
	beq	a0, a1, .LBB1_46
	j	.LBB1_45
.LBB1_45:                               # %if.then148
.Ltmp62:
	.loc	7 413 14 is_stmt 1              # C:/Vega/rv32m1_sdk_riscv/devices/RV32M1/drivers/fsl_lpuart.c:413:14
	lw	a0, -28(s0)
	lui	a1, 64
	or	a0, a0, a1
	sw	a0, -28(s0)
	.loc	7 414 5                         # C:/Vega/rv32m1_sdk_riscv/devices/RV32M1/drivers/fsl_lpuart.c:414:5
	j	.LBB1_46
.Ltmp63:
.LBB1_46:                               # %if.end150
	.loc	7 416 18                        # C:/Vega/rv32m1_sdk_riscv/devices/RV32M1/drivers/fsl_lpuart.c:416:18
	lw	a0, -28(s0)
	.loc	7 416 5 is_stmt 0               # C:/Vega/rv32m1_sdk_riscv/devices/RV32M1/drivers/fsl_lpuart.c:416:5
	lw	a1, -16(s0)
	.loc	7 416 16                        # C:/Vega/rv32m1_sdk_riscv/devices/RV32M1/drivers/fsl_lpuart.c:416:16
	sw	a0, 24(a1)
	mv	a0, zero
	.loc	7 418 5 is_stmt 1               # C:/Vega/rv32m1_sdk_riscv/devices/RV32M1/drivers/fsl_lpuart.c:418:5
	sw	a0, -12(s0)
	j	.LBB1_47
.LBB1_47:                               # %return
	.loc	7 419 1                         # C:/Vega/rv32m1_sdk_riscv/devices/RV32M1/drivers/fsl_lpuart.c:419:1
	lw	a0, -12(s0)
	lw	s0, 104(sp)
	lw	ra, 108(sp)
	addi	sp, sp, 112
	ret
.Ltmp64:
.Lfunc_end1:
	.size	LPUART_Init, .Lfunc_end1-LPUART_Init
	.cfi_endproc
                                        # -- End function
	.section	.text.CLOCK_EnableClock,"ax",@progbits
	.p2align	2                               # -- Begin function CLOCK_EnableClock
	.type	CLOCK_EnableClock,@function
CLOCK_EnableClock:                      # @CLOCK_EnableClock
.Lfunc_begin2:
	.loc	8 778 0                         # C:/Vega/rv32m1_sdk_riscv/boards/rv32m1_vega/rtos_examples/freertos_hello/ri5cy/riscvgcc/../../../../../../devices/RV32M1/drivers/fsl_clock.h:778:0
	.cfi_startproc
# %bb.0:                                # %entry
	addi	sp, sp, -16
	.cfi_def_cfa_offset 16
	sw	ra, 12(sp)
	sw	s0, 8(sp)
	.cfi_offset ra, -4
	.cfi_offset s0, -8
	addi	s0, sp, 16
	.cfi_def_cfa s0, 0
	sw	a0, -12(s0)
.Ltmp65:
	.loc	8 779 30 prologue_end           # C:/Vega/rv32m1_sdk_riscv/boards/rv32m1_vega/rtos_examples/freertos_hello/ri5cy/riscvgcc/../../../../../../devices/RV32M1/drivers/fsl_clock.h:779:30
	lw	a0, -12(s0)
	.loc	8 779 8 is_stmt 0               # C:/Vega/rv32m1_sdk_riscv/boards/rv32m1_vega/rtos_examples/freertos_hello/ri5cy/riscvgcc/../../../../../../devices/RV32M1/drivers/fsl_clock.h:779:8
	lw	a0, 0(a0)
	lui	a1, 524288
	.loc	8 779 36                        # C:/Vega/rv32m1_sdk_riscv/boards/rv32m1_vega/rtos_examples/freertos_hello/ri5cy/riscvgcc/../../../../../../devices/RV32M1/drivers/fsl_clock.h:779:36
	and	a0, a0, a1
	mv	a1, zero
	.loc	8 779 6                         # C:/Vega/rv32m1_sdk_riscv/boards/rv32m1_vega/rtos_examples/freertos_hello/ri5cy/riscvgcc/../../../../../../devices/RV32M1/drivers/fsl_clock.h:779:6
	beq	a0, a1, .LBB2_2
	j	.LBB2_1
.LBB2_1:                                # %cond.true
	j	.LBB2_3
.LBB2_2:                                # %cond.false
	.loc	8 779 65                        # C:/Vega/rv32m1_sdk_riscv/boards/rv32m1_vega/rtos_examples/freertos_hello/ri5cy/riscvgcc/../../../../../../devices/RV32M1/drivers/fsl_clock.h:779:65
	lui	a0, %hi(.L.str.14)
	addi	a0, a0, %lo(.L.str.14)
	lui	a1, %hi(.L__func__.CLOCK_EnableClock)
	addi	a2, a1, %lo(.L__func__.CLOCK_EnableClock)
	lui	a1, %hi(.L.str.15)
	addi	a3, a1, %lo(.L.str.15)
	addi	a1, zero, 779
	call	__assert_func
.LBB2_3:                                # %cond.end
	.loc	8 781 28 is_stmt 1              # C:/Vega/rv32m1_sdk_riscv/boards/rv32m1_vega/rtos_examples/freertos_hello/ri5cy/riscvgcc/../../../../../../devices/RV32M1/drivers/fsl_clock.h:781:28
	lw	a0, -12(s0)
	.loc	8 781 34 is_stmt 0              # C:/Vega/rv32m1_sdk_riscv/boards/rv32m1_vega/rtos_examples/freertos_hello/ri5cy/riscvgcc/../../../../../../devices/RV32M1/drivers/fsl_clock.h:781:34
	lw	a1, 0(a0)
	lui	a2, 262144
	or	a1, a1, a2
	sw	a1, 0(a0)
	.loc	8 782 1 is_stmt 1               # C:/Vega/rv32m1_sdk_riscv/boards/rv32m1_vega/rtos_examples/freertos_hello/ri5cy/riscvgcc/../../../../../../devices/RV32M1/drivers/fsl_clock.h:782:1
	lw	s0, 8(sp)
	lw	ra, 12(sp)
	addi	sp, sp, 16
	ret
.Ltmp66:
.Lfunc_end2:
	.size	CLOCK_EnableClock, .Lfunc_end2-CLOCK_EnableClock
	.cfi_endproc
                                        # -- End function
	.section	.text.LPUART_SoftwareReset,"ax",@progbits
	.p2align	2                               # -- Begin function LPUART_SoftwareReset
	.type	LPUART_SoftwareReset,@function
LPUART_SoftwareReset:                   # @LPUART_SoftwareReset
.Lfunc_begin3:
	.loc	3 276 0                         # C:/Vega/rv32m1_sdk_riscv/boards/rv32m1_vega/rtos_examples/freertos_hello/ri5cy/riscvgcc/../../../../../../devices/RV32M1/drivers/fsl_lpuart.h:276:0
	.cfi_startproc
# %bb.0:                                # %entry
	addi	sp, sp, -16
	.cfi_def_cfa_offset 16
	sw	ra, 12(sp)
	sw	s0, 8(sp)
	.cfi_offset ra, -4
	.cfi_offset s0, -8
	addi	s0, sp, 16
	.cfi_def_cfa s0, 0
	sw	a0, -12(s0)
.Ltmp67:
	.loc	3 277 5 prologue_end            # C:/Vega/rv32m1_sdk_riscv/boards/rv32m1_vega/rtos_examples/freertos_hello/ri5cy/riscvgcc/../../../../../../devices/RV32M1/drivers/fsl_lpuart.h:277:5
	lw	a0, -12(s0)
	.loc	3 277 18 is_stmt 0              # C:/Vega/rv32m1_sdk_riscv/boards/rv32m1_vega/rtos_examples/freertos_hello/ri5cy/riscvgcc/../../../../../../devices/RV32M1/drivers/fsl_lpuart.h:277:18
	lw	a1, 8(a0)
	ori	a1, a1, 2
	sw	a1, 8(a0)
	.loc	3 278 5 is_stmt 1               # C:/Vega/rv32m1_sdk_riscv/boards/rv32m1_vega/rtos_examples/freertos_hello/ri5cy/riscvgcc/../../../../../../devices/RV32M1/drivers/fsl_lpuart.h:278:5
	lw	a0, -12(s0)
	.loc	3 278 18 is_stmt 0              # C:/Vega/rv32m1_sdk_riscv/boards/rv32m1_vega/rtos_examples/freertos_hello/ri5cy/riscvgcc/../../../../../../devices/RV32M1/drivers/fsl_lpuart.h:278:18
	lw	a1, 8(a0)
	andi	a1, a1, -3
	sw	a1, 8(a0)
	.loc	3 279 1 is_stmt 1               # C:/Vega/rv32m1_sdk_riscv/boards/rv32m1_vega/rtos_examples/freertos_hello/ri5cy/riscvgcc/../../../../../../devices/RV32M1/drivers/fsl_lpuart.h:279:1
	lw	s0, 8(sp)
	lw	ra, 12(sp)
	addi	sp, sp, 16
	ret
.Ltmp68:
.Lfunc_end3:
	.size	LPUART_SoftwareReset, .Lfunc_end3-LPUART_SoftwareReset
	.cfi_endproc
                                        # -- End function
	.section	.text.LPUART_Deinit,"ax",@progbits
	.globl	LPUART_Deinit                   # -- Begin function LPUART_Deinit
	.p2align	2
	.type	LPUART_Deinit,@function
LPUART_Deinit:                          # @LPUART_Deinit
.Lfunc_begin4:
	.loc	7 421 0                         # C:/Vega/rv32m1_sdk_riscv/devices/RV32M1/drivers/fsl_lpuart.c:421:0
	.cfi_startproc
# %bb.0:                                # %entry
	addi	sp, sp, -32
	.cfi_def_cfa_offset 32
	sw	ra, 28(sp)
	sw	s0, 24(sp)
	.cfi_offset ra, -4
	.cfi_offset s0, -8
	addi	s0, sp, 32
	.cfi_def_cfa s0, 0
	sw	a0, -12(s0)
.Ltmp69:
	.loc	7 426 5 prologue_end            # C:/Vega/rv32m1_sdk_riscv/devices/RV32M1/drivers/fsl_lpuart.c:426:5
	j	.LBB4_1
.LBB4_1:                                # %while.cond
                                        # =>This Inner Loop Header: Depth=1
	.loc	7 426 19 is_stmt 0              # C:/Vega/rv32m1_sdk_riscv/devices/RV32M1/drivers/fsl_lpuart.c:426:19
	lw	a0, -12(s0)
	.loc	7 426 25                        # C:/Vega/rv32m1_sdk_riscv/devices/RV32M1/drivers/fsl_lpuart.c:426:25
	lw	a0, 44(a0)
	lui	a1, 1
	addi	a1, a1, -256
	.loc	7 426 31                        # C:/Vega/rv32m1_sdk_riscv/devices/RV32M1/drivers/fsl_lpuart.c:426:31
	and	a0, a0, a1
	mv	a1, zero
	.loc	7 426 5                         # C:/Vega/rv32m1_sdk_riscv/devices/RV32M1/drivers/fsl_lpuart.c:426:5
	beq	a0, a1, .LBB4_3
	j	.LBB4_2
.LBB4_2:                                # %while.body
                                        #   in Loop: Header=BB4_1 Depth=1
	j	.LBB4_1
.LBB4_3:                                # %while.end
	.loc	7 431 5 is_stmt 1               # C:/Vega/rv32m1_sdk_riscv/devices/RV32M1/drivers/fsl_lpuart.c:431:5
	j	.LBB4_4
.LBB4_4:                                # %while.cond1
                                        # =>This Inner Loop Header: Depth=1
	.loc	7 431 18 is_stmt 0              # C:/Vega/rv32m1_sdk_riscv/devices/RV32M1/drivers/fsl_lpuart.c:431:18
	lw	a0, -12(s0)
	.loc	7 431 24                        # C:/Vega/rv32m1_sdk_riscv/devices/RV32M1/drivers/fsl_lpuart.c:431:24
	lw	a0, 20(a0)
	lui	a1, 1024
	.loc	7 431 29                        # C:/Vega/rv32m1_sdk_riscv/devices/RV32M1/drivers/fsl_lpuart.c:431:29
	and	a0, a0, a1
	mv	a1, zero
	.loc	7 431 5                         # C:/Vega/rv32m1_sdk_riscv/devices/RV32M1/drivers/fsl_lpuart.c:431:5
	bne	a0, a1, .LBB4_6
	j	.LBB4_5
.LBB4_5:                                # %while.body4
                                        #   in Loop: Header=BB4_4 Depth=1
	j	.LBB4_4
.LBB4_6:                                # %while.end5
	.loc	7 0 5                           # C:/Vega/rv32m1_sdk_riscv/devices/RV32M1/drivers/fsl_lpuart.c:0:5
	lui	a0, 262640
	.loc	7 436 10 is_stmt 1              # C:/Vega/rv32m1_sdk_riscv/devices/RV32M1/drivers/fsl_lpuart.c:436:10
	sw	a0, -16(s0)
	.loc	7 440 10                        # C:/Vega/rv32m1_sdk_riscv/devices/RV32M1/drivers/fsl_lpuart.c:440:10
	lw	a0, -16(s0)
	lui	a1, 524288
	or	a0, a0, a1
	sw	a0, -16(s0)
	.loc	7 444 10                        # C:/Vega/rv32m1_sdk_riscv/devices/RV32M1/drivers/fsl_lpuart.c:444:10
	lw	a0, -16(s0)
	lui	a1, 12
	or	a0, a0, a1
	sw	a0, -16(s0)
	.loc	7 447 19                        # C:/Vega/rv32m1_sdk_riscv/devices/RV32M1/drivers/fsl_lpuart.c:447:19
	lw	a0, -16(s0)
	.loc	7 447 5 is_stmt 0               # C:/Vega/rv32m1_sdk_riscv/devices/RV32M1/drivers/fsl_lpuart.c:447:5
	lw	a1, -12(s0)
	.loc	7 447 16                        # C:/Vega/rv32m1_sdk_riscv/devices/RV32M1/drivers/fsl_lpuart.c:447:16
	lw	a2, 20(a1)
	or	a0, a2, a0
	sw	a0, 20(a1)
	.loc	7 450 5 is_stmt 1               # C:/Vega/rv32m1_sdk_riscv/devices/RV32M1/drivers/fsl_lpuart.c:450:5
	lw	a0, -12(s0)
	mv	a1, zero
	.loc	7 450 16 is_stmt 0              # C:/Vega/rv32m1_sdk_riscv/devices/RV32M1/drivers/fsl_lpuart.c:450:16
	sw	a1, 24(a0)
	.loc	7 453 44 is_stmt 1              # C:/Vega/rv32m1_sdk_riscv/devices/RV32M1/drivers/fsl_lpuart.c:453:44
	lw	a0, -12(s0)
	.loc	7 453 25 is_stmt 0              # C:/Vega/rv32m1_sdk_riscv/devices/RV32M1/drivers/fsl_lpuart.c:453:25
	call	LPUART_GetInstance
	.loc	7 453 14                        # C:/Vega/rv32m1_sdk_riscv/devices/RV32M1/drivers/fsl_lpuart.c:453:14
	sw	a0, -20(s0)
	.loc	7 456 38 is_stmt 1              # C:/Vega/rv32m1_sdk_riscv/devices/RV32M1/drivers/fsl_lpuart.c:456:38
	lw	a0, -20(s0)
	.loc	7 456 24 is_stmt 0              # C:/Vega/rv32m1_sdk_riscv/devices/RV32M1/drivers/fsl_lpuart.c:456:24
	lui	a1, %hi(s_lpuartClock)
	addi	a1, a1, %lo(s_lpuartClock)
	slli	a0, a0, 2
	add	a0, a0, a1
	lw	a0, 0(a0)
	.loc	7 456 5                         # C:/Vega/rv32m1_sdk_riscv/devices/RV32M1/drivers/fsl_lpuart.c:456:5
	call	CLOCK_DisableClock
	.loc	7 463 1 is_stmt 1               # C:/Vega/rv32m1_sdk_riscv/devices/RV32M1/drivers/fsl_lpuart.c:463:1
	lw	s0, 24(sp)
	lw	ra, 28(sp)
	addi	sp, sp, 32
	ret
.Ltmp70:
.Lfunc_end4:
	.size	LPUART_Deinit, .Lfunc_end4-LPUART_Deinit
	.cfi_endproc
                                        # -- End function
	.section	.text.CLOCK_DisableClock,"ax",@progbits
	.p2align	2                               # -- Begin function CLOCK_DisableClock
	.type	CLOCK_DisableClock,@function
CLOCK_DisableClock:                     # @CLOCK_DisableClock
.Lfunc_begin5:
	.loc	8 790 0                         # C:/Vega/rv32m1_sdk_riscv/boards/rv32m1_vega/rtos_examples/freertos_hello/ri5cy/riscvgcc/../../../../../../devices/RV32M1/drivers/fsl_clock.h:790:0
	.cfi_startproc
# %bb.0:                                # %entry
	addi	sp, sp, -16
	.cfi_def_cfa_offset 16
	sw	ra, 12(sp)
	sw	s0, 8(sp)
	.cfi_offset ra, -4
	.cfi_offset s0, -8
	addi	s0, sp, 16
	.cfi_def_cfa s0, 0
	sw	a0, -12(s0)
.Ltmp71:
	.loc	8 791 30 prologue_end           # C:/Vega/rv32m1_sdk_riscv/boards/rv32m1_vega/rtos_examples/freertos_hello/ri5cy/riscvgcc/../../../../../../devices/RV32M1/drivers/fsl_clock.h:791:30
	lw	a0, -12(s0)
	.loc	8 791 8 is_stmt 0               # C:/Vega/rv32m1_sdk_riscv/boards/rv32m1_vega/rtos_examples/freertos_hello/ri5cy/riscvgcc/../../../../../../devices/RV32M1/drivers/fsl_clock.h:791:8
	lw	a0, 0(a0)
	lui	a1, 524288
	.loc	8 791 36                        # C:/Vega/rv32m1_sdk_riscv/boards/rv32m1_vega/rtos_examples/freertos_hello/ri5cy/riscvgcc/../../../../../../devices/RV32M1/drivers/fsl_clock.h:791:36
	and	a0, a0, a1
	mv	a1, zero
	.loc	8 791 6                         # C:/Vega/rv32m1_sdk_riscv/boards/rv32m1_vega/rtos_examples/freertos_hello/ri5cy/riscvgcc/../../../../../../devices/RV32M1/drivers/fsl_clock.h:791:6
	beq	a0, a1, .LBB5_2
	j	.LBB5_1
.LBB5_1:                                # %cond.true
	j	.LBB5_3
.LBB5_2:                                # %cond.false
	.loc	8 791 65                        # C:/Vega/rv32m1_sdk_riscv/boards/rv32m1_vega/rtos_examples/freertos_hello/ri5cy/riscvgcc/../../../../../../devices/RV32M1/drivers/fsl_clock.h:791:65
	lui	a0, %hi(.L.str.14)
	addi	a0, a0, %lo(.L.str.14)
	lui	a1, %hi(.L__func__.CLOCK_DisableClock)
	addi	a2, a1, %lo(.L__func__.CLOCK_DisableClock)
	lui	a1, %hi(.L.str.15)
	addi	a3, a1, %lo(.L.str.15)
	addi	a1, zero, 791
	call	__assert_func
.LBB5_3:                                # %cond.end
	.loc	8 793 28 is_stmt 1              # C:/Vega/rv32m1_sdk_riscv/boards/rv32m1_vega/rtos_examples/freertos_hello/ri5cy/riscvgcc/../../../../../../devices/RV32M1/drivers/fsl_clock.h:793:28
	lw	a0, -12(s0)
	.loc	8 793 34 is_stmt 0              # C:/Vega/rv32m1_sdk_riscv/boards/rv32m1_vega/rtos_examples/freertos_hello/ri5cy/riscvgcc/../../../../../../devices/RV32M1/drivers/fsl_clock.h:793:34
	lw	a1, 0(a0)
	lui	a2, 786432
	addi	a2, a2, -1
	and	a1, a1, a2
	sw	a1, 0(a0)
	.loc	8 794 1 is_stmt 1               # C:/Vega/rv32m1_sdk_riscv/boards/rv32m1_vega/rtos_examples/freertos_hello/ri5cy/riscvgcc/../../../../../../devices/RV32M1/drivers/fsl_clock.h:794:1
	lw	s0, 8(sp)
	lw	ra, 12(sp)
	addi	sp, sp, 16
	ret
.Ltmp72:
.Lfunc_end5:
	.size	CLOCK_DisableClock, .Lfunc_end5-CLOCK_DisableClock
	.cfi_endproc
                                        # -- End function
	.section	.text.LPUART_GetDefaultConfig,"ax",@progbits
	.globl	LPUART_GetDefaultConfig         # -- Begin function LPUART_GetDefaultConfig
	.p2align	2
	.type	LPUART_GetDefaultConfig,@function
LPUART_GetDefaultConfig:                # @LPUART_GetDefaultConfig
.Lfunc_begin6:
	.loc	7 466 0                         # C:/Vega/rv32m1_sdk_riscv/devices/RV32M1/drivers/fsl_lpuart.c:466:0
	.cfi_startproc
# %bb.0:                                # %entry
	addi	sp, sp, -16
	.cfi_def_cfa_offset 16
	sw	ra, 12(sp)
	sw	s0, 8(sp)
	.cfi_offset ra, -4
	.cfi_offset s0, -8
	addi	s0, sp, 16
	.cfi_def_cfa s0, 0
	sw	a0, -12(s0)
.Ltmp73:
	.loc	7 467 7 prologue_end            # C:/Vega/rv32m1_sdk_riscv/devices/RV32M1/drivers/fsl_lpuart.c:467:7
	lw	a0, -12(s0)
	mv	a1, zero
	.loc	7 467 6 is_stmt 0               # C:/Vega/rv32m1_sdk_riscv/devices/RV32M1/drivers/fsl_lpuart.c:467:6
	beq	a0, a1, .LBB6_2
	j	.LBB6_1
.LBB6_1:                                # %cond.true
	j	.LBB6_3
.LBB6_2:                                # %cond.false
	.loc	7 467 27                        # C:/Vega/rv32m1_sdk_riscv/devices/RV32M1/drivers/fsl_lpuart.c:467:27
	lui	a0, %hi(.L.str)
	addi	a0, a0, %lo(.L.str)
	lui	a1, %hi(.L__func__.LPUART_GetDefaultConfig)
	addi	a2, a1, %lo(.L__func__.LPUART_GetDefaultConfig)
	lui	a1, %hi(.L.str.2)
	addi	a3, a1, %lo(.L.str.2)
	addi	a1, zero, 467
	call	__assert_func
.LBB6_3:                                # %cond.end
	.loc	7 469 5 is_stmt 1               # C:/Vega/rv32m1_sdk_riscv/devices/RV32M1/drivers/fsl_lpuart.c:469:5
	lw	a0, -12(s0)
	lui	a1, 28
	addi	a1, a1, 512
	.loc	7 469 26 is_stmt 0              # C:/Vega/rv32m1_sdk_riscv/devices/RV32M1/drivers/fsl_lpuart.c:469:26
	sw	a1, 0(a0)
	.loc	7 470 5 is_stmt 1               # C:/Vega/rv32m1_sdk_riscv/devices/RV32M1/drivers/fsl_lpuart.c:470:5
	lw	a0, -12(s0)
	mv	a1, zero
	.loc	7 470 24 is_stmt 0              # C:/Vega/rv32m1_sdk_riscv/devices/RV32M1/drivers/fsl_lpuart.c:470:24
	sw	a1, 4(a0)
	.loc	7 471 5 is_stmt 1               # C:/Vega/rv32m1_sdk_riscv/devices/RV32M1/drivers/fsl_lpuart.c:471:5
	lw	a0, -12(s0)
	.loc	7 471 27 is_stmt 0              # C:/Vega/rv32m1_sdk_riscv/devices/RV32M1/drivers/fsl_lpuart.c:471:27
	sw	a1, 8(a0)
	.loc	7 472 5 is_stmt 1               # C:/Vega/rv32m1_sdk_riscv/devices/RV32M1/drivers/fsl_lpuart.c:472:5
	lw	a0, -12(s0)
	.loc	7 472 19 is_stmt 0              # C:/Vega/rv32m1_sdk_riscv/devices/RV32M1/drivers/fsl_lpuart.c:472:19
	sb	a1, 12(a0)
	.loc	7 474 5 is_stmt 1               # C:/Vega/rv32m1_sdk_riscv/devices/RV32M1/drivers/fsl_lpuart.c:474:5
	lw	a0, -12(s0)
	.loc	7 474 26 is_stmt 0              # C:/Vega/rv32m1_sdk_riscv/devices/RV32M1/drivers/fsl_lpuart.c:474:26
	sw	a1, 16(a0)
	.loc	7 477 5 is_stmt 1               # C:/Vega/rv32m1_sdk_riscv/devices/RV32M1/drivers/fsl_lpuart.c:477:5
	lw	a0, -12(s0)
	.loc	7 477 29 is_stmt 0              # C:/Vega/rv32m1_sdk_riscv/devices/RV32M1/drivers/fsl_lpuart.c:477:29
	sb	a1, 20(a0)
	.loc	7 478 5 is_stmt 1               # C:/Vega/rv32m1_sdk_riscv/devices/RV32M1/drivers/fsl_lpuart.c:478:5
	lw	a0, -12(s0)
	.loc	7 478 29 is_stmt 0              # C:/Vega/rv32m1_sdk_riscv/devices/RV32M1/drivers/fsl_lpuart.c:478:29
	sb	a1, 21(a0)
	.loc	7 481 5 is_stmt 1               # C:/Vega/rv32m1_sdk_riscv/devices/RV32M1/drivers/fsl_lpuart.c:481:5
	lw	a0, -12(s0)
	.loc	7 481 25 is_stmt 0              # C:/Vega/rv32m1_sdk_riscv/devices/RV32M1/drivers/fsl_lpuart.c:481:25
	sb	a1, 22(a0)
	.loc	7 482 5 is_stmt 1               # C:/Vega/rv32m1_sdk_riscv/devices/RV32M1/drivers/fsl_lpuart.c:482:5
	lw	a0, -12(s0)
	.loc	7 482 25 is_stmt 0              # C:/Vega/rv32m1_sdk_riscv/devices/RV32M1/drivers/fsl_lpuart.c:482:25
	sb	a1, 23(a0)
	.loc	7 483 5 is_stmt 1               # C:/Vega/rv32m1_sdk_riscv/devices/RV32M1/drivers/fsl_lpuart.c:483:5
	lw	a0, -12(s0)
	.loc	7 483 25 is_stmt 0              # C:/Vega/rv32m1_sdk_riscv/devices/RV32M1/drivers/fsl_lpuart.c:483:25
	sw	a1, 28(a0)
	.loc	7 484 5 is_stmt 1               # C:/Vega/rv32m1_sdk_riscv/devices/RV32M1/drivers/fsl_lpuart.c:484:5
	lw	a0, -12(s0)
	.loc	7 484 25 is_stmt 0              # C:/Vega/rv32m1_sdk_riscv/devices/RV32M1/drivers/fsl_lpuart.c:484:25
	sw	a1, 24(a0)
	.loc	7 486 5 is_stmt 1               # C:/Vega/rv32m1_sdk_riscv/devices/RV32M1/drivers/fsl_lpuart.c:486:5
	lw	a0, -12(s0)
	.loc	7 486 24 is_stmt 0              # C:/Vega/rv32m1_sdk_riscv/devices/RV32M1/drivers/fsl_lpuart.c:486:24
	sw	a1, 32(a0)
	.loc	7 487 5 is_stmt 1               # C:/Vega/rv32m1_sdk_riscv/devices/RV32M1/drivers/fsl_lpuart.c:487:5
	lw	a0, -12(s0)
	.loc	7 487 26 is_stmt 0              # C:/Vega/rv32m1_sdk_riscv/devices/RV32M1/drivers/fsl_lpuart.c:487:26
	sw	a1, 36(a0)
	.loc	7 488 5 is_stmt 1               # C:/Vega/rv32m1_sdk_riscv/devices/RV32M1/drivers/fsl_lpuart.c:488:5
	lw	a0, -12(s0)
	.loc	7 488 22 is_stmt 0              # C:/Vega/rv32m1_sdk_riscv/devices/RV32M1/drivers/fsl_lpuart.c:488:22
	sb	a1, 40(a0)
	.loc	7 489 5 is_stmt 1               # C:/Vega/rv32m1_sdk_riscv/devices/RV32M1/drivers/fsl_lpuart.c:489:5
	lw	a0, -12(s0)
	.loc	7 489 22 is_stmt 0              # C:/Vega/rv32m1_sdk_riscv/devices/RV32M1/drivers/fsl_lpuart.c:489:22
	sb	a1, 41(a0)
	.loc	7 490 1 is_stmt 1               # C:/Vega/rv32m1_sdk_riscv/devices/RV32M1/drivers/fsl_lpuart.c:490:1
	lw	s0, 8(sp)
	lw	ra, 12(sp)
	addi	sp, sp, 16
	ret
.Ltmp74:
.Lfunc_end6:
	.size	LPUART_GetDefaultConfig, .Lfunc_end6-LPUART_GetDefaultConfig
	.cfi_endproc
                                        # -- End function
	.section	.text.LPUART_SetBaudRate,"ax",@progbits
	.globl	LPUART_SetBaudRate              # -- Begin function LPUART_SetBaudRate
	.p2align	2
	.type	LPUART_SetBaudRate,@function
LPUART_SetBaudRate:                     # @LPUART_SetBaudRate
.Lfunc_begin7:
	.loc	7 493 0                         # C:/Vega/rv32m1_sdk_riscv/devices/RV32M1/drivers/fsl_lpuart.c:493:0
	.cfi_startproc
# %bb.0:                                # %entry
	addi	sp, sp, -112
	.cfi_def_cfa_offset 112
	sw	ra, 108(sp)
	sw	s0, 104(sp)
	.cfi_offset ra, -4
	.cfi_offset s0, -8
	addi	s0, sp, 112
	.cfi_def_cfa s0, 0
	sw	a0, -16(s0)
	sw	a1, -20(s0)
	sw	a2, -24(s0)
.Ltmp75:
	.loc	7 494 7 prologue_end            # C:/Vega/rv32m1_sdk_riscv/devices/RV32M1/drivers/fsl_lpuart.c:494:7
	lw	a0, -20(s0)
	mv	a1, zero
	.loc	7 494 6 is_stmt 0               # C:/Vega/rv32m1_sdk_riscv/devices/RV32M1/drivers/fsl_lpuart.c:494:6
	beq	a0, a1, .LBB7_2
	j	.LBB7_1
.LBB7_1:                                # %cond.true
	j	.LBB7_3
.LBB7_2:                                # %cond.false
	.loc	7 494 33                        # C:/Vega/rv32m1_sdk_riscv/devices/RV32M1/drivers/fsl_lpuart.c:494:33
	lui	a0, %hi(.L.str)
	addi	a0, a0, %lo(.L.str)
	lui	a1, %hi(.L__func__.LPUART_SetBaudRate)
	addi	a2, a1, %lo(.L__func__.LPUART_SetBaudRate)
	lui	a1, %hi(.L.str.6)
	addi	a3, a1, %lo(.L.str.6)
	addi	a1, zero, 494
	call	__assert_func
.LBB7_3:                                # %cond.end
	.loc	7 506 16 is_stmt 1              # C:/Vega/rv32m1_sdk_riscv/devices/RV32M1/drivers/fsl_lpuart.c:506:16
	lw	a0, -20(s0)
	.loc	7 506 14 is_stmt 0              # C:/Vega/rv32m1_sdk_riscv/devices/RV32M1/drivers/fsl_lpuart.c:506:14
	sw	a0, -56(s0)
	mv	a0, zero
	.loc	7 507 9 is_stmt 1               # C:/Vega/rv32m1_sdk_riscv/devices/RV32M1/drivers/fsl_lpuart.c:507:9
	sw	a0, -40(s0)
	.loc	7 508 9                         # C:/Vega/rv32m1_sdk_riscv/devices/RV32M1/drivers/fsl_lpuart.c:508:9
	sh	a0, -34(s0)
	addi	a0, zero, 4
.Ltmp76:
	.loc	7 509 18                        # C:/Vega/rv32m1_sdk_riscv/devices/RV32M1/drivers/fsl_lpuart.c:509:18
	sw	a0, -44(s0)
	.loc	7 509 10 is_stmt 0              # C:/Vega/rv32m1_sdk_riscv/devices/RV32M1/drivers/fsl_lpuart.c:509:10
	j	.LBB7_4
.LBB7_4:                                # %for.cond
                                        # =>This Inner Loop Header: Depth=1
.Ltmp77:
	.loc	7 509 23                        # C:/Vega/rv32m1_sdk_riscv/devices/RV32M1/drivers/fsl_lpuart.c:509:23
	lw	a0, -44(s0)
	addi	a1, zero, 32
.Ltmp78:
	.loc	7 509 5                         # C:/Vega/rv32m1_sdk_riscv/devices/RV32M1/drivers/fsl_lpuart.c:509:5
	bltu	a1, a0, .LBB7_13
	j	.LBB7_5
.LBB7_5:                                # %for.body
                                        #   in Loop: Header=BB7_4 Depth=1
.Ltmp79:
	.loc	7 512 20 is_stmt 1              # C:/Vega/rv32m1_sdk_riscv/devices/RV32M1/drivers/fsl_lpuart.c:512:20
	lw	a0, -24(s0)
	.loc	7 512 35 is_stmt 0              # C:/Vega/rv32m1_sdk_riscv/devices/RV32M1/drivers/fsl_lpuart.c:512:35
	lw	a1, -20(s0)
	.loc	7 512 50                        # C:/Vega/rv32m1_sdk_riscv/devices/RV32M1/drivers/fsl_lpuart.c:512:50
	lw	a2, -44(s0)
	.loc	7 512 48                        # C:/Vega/rv32m1_sdk_riscv/devices/RV32M1/drivers/fsl_lpuart.c:512:48
	sw	a0, -60(s0)
	mv	a0, a1
	mv	a1, a2
	call	__mulsi3
	.loc	7 512 32                        # C:/Vega/rv32m1_sdk_riscv/devices/RV32M1/drivers/fsl_lpuart.c:512:32
	lw	a1, -60(s0)
	sw	a0, -64(s0)
	mv	a0, a1
	lw	a1, -64(s0)
	call	__udivsi3
	.loc	7 512 17                        # C:/Vega/rv32m1_sdk_riscv/devices/RV32M1/drivers/fsl_lpuart.c:512:17
	sh	a0, -36(s0)
.Ltmp80:
	.loc	7 514 13 is_stmt 1              # C:/Vega/rv32m1_sdk_riscv/devices/RV32M1/drivers/fsl_lpuart.c:514:13
	lhu	a0, -36(s0)
	mv	a1, zero
.Ltmp81:
	.loc	7 514 13 is_stmt 0              # C:/Vega/rv32m1_sdk_riscv/devices/RV32M1/drivers/fsl_lpuart.c:514:13
	bne	a0, a1, .LBB7_7
	j	.LBB7_6
.LBB7_6:                                # %if.then
                                        #   in Loop: Header=BB7_4 Depth=1
	.loc	7 0 13                          # C:/Vega/rv32m1_sdk_riscv/devices/RV32M1/drivers/fsl_lpuart.c:0:13
	addi	a0, zero, 1
.Ltmp82:
	.loc	7 516 21 is_stmt 1              # C:/Vega/rv32m1_sdk_riscv/devices/RV32M1/drivers/fsl_lpuart.c:516:21
	sh	a0, -36(s0)
	.loc	7 517 9                         # C:/Vega/rv32m1_sdk_riscv/devices/RV32M1/drivers/fsl_lpuart.c:517:9
	j	.LBB7_7
.Ltmp83:
.LBB7_7:                                # %if.end
                                        #   in Loop: Header=BB7_4 Depth=1
	.loc	7 519 27                        # C:/Vega/rv32m1_sdk_riscv/devices/RV32M1/drivers/fsl_lpuart.c:519:27
	lw	a0, -24(s0)
	.loc	7 519 42 is_stmt 0              # C:/Vega/rv32m1_sdk_riscv/devices/RV32M1/drivers/fsl_lpuart.c:519:42
	lw	a1, -44(s0)
	.loc	7 519 52                        # C:/Vega/rv32m1_sdk_riscv/devices/RV32M1/drivers/fsl_lpuart.c:519:52
	lhu	a2, -36(s0)
	.loc	7 519 50                        # C:/Vega/rv32m1_sdk_riscv/devices/RV32M1/drivers/fsl_lpuart.c:519:50
	sw	a0, -68(s0)
	mv	a0, a1
	mv	a1, a2
	call	__mulsi3
	.loc	7 519 39                        # C:/Vega/rv32m1_sdk_riscv/devices/RV32M1/drivers/fsl_lpuart.c:519:39
	lw	a1, -68(s0)
	sw	a0, -72(s0)
	mv	a0, a1
	lw	a1, -72(s0)
	call	__udivsi3
	.loc	7 519 24                        # C:/Vega/rv32m1_sdk_riscv/devices/RV32M1/drivers/fsl_lpuart.c:519:24
	sw	a0, -52(s0)
	.loc	7 521 20 is_stmt 1              # C:/Vega/rv32m1_sdk_riscv/devices/RV32M1/drivers/fsl_lpuart.c:521:20
	lw	a0, -52(s0)
	.loc	7 521 37 is_stmt 0              # C:/Vega/rv32m1_sdk_riscv/devices/RV32M1/drivers/fsl_lpuart.c:521:37
	lw	a1, -20(s0)
	.loc	7 521 35                        # C:/Vega/rv32m1_sdk_riscv/devices/RV32M1/drivers/fsl_lpuart.c:521:35
	sub	a0, a0, a1
	.loc	7 521 18                        # C:/Vega/rv32m1_sdk_riscv/devices/RV32M1/drivers/fsl_lpuart.c:521:18
	sw	a0, -48(s0)
.Ltmp84:
	.loc	7 524 13 is_stmt 1              # C:/Vega/rv32m1_sdk_riscv/devices/RV32M1/drivers/fsl_lpuart.c:524:13
	lw	a0, -48(s0)
	.loc	7 524 25 is_stmt 0              # C:/Vega/rv32m1_sdk_riscv/devices/RV32M1/drivers/fsl_lpuart.c:524:25
	lw	a1, -20(s0)
	.loc	7 524 41                        # C:/Vega/rv32m1_sdk_riscv/devices/RV32M1/drivers/fsl_lpuart.c:524:41
	lw	a2, -24(s0)
	.loc	7 524 56                        # C:/Vega/rv32m1_sdk_riscv/devices/RV32M1/drivers/fsl_lpuart.c:524:56
	lw	a3, -44(s0)
	.loc	7 524 67                        # C:/Vega/rv32m1_sdk_riscv/devices/RV32M1/drivers/fsl_lpuart.c:524:67
	lhu	a4, -36(s0)
	.loc	7 524 75                        # C:/Vega/rv32m1_sdk_riscv/devices/RV32M1/drivers/fsl_lpuart.c:524:75
	addi	a4, a4, 1
	.loc	7 524 64                        # C:/Vega/rv32m1_sdk_riscv/devices/RV32M1/drivers/fsl_lpuart.c:524:64
	sw	a0, -76(s0)
	mv	a0, a3
	sw	a1, -80(s0)
	mv	a1, a4
	sw	a2, -84(s0)
	call	__mulsi3
	.loc	7 524 53                        # C:/Vega/rv32m1_sdk_riscv/devices/RV32M1/drivers/fsl_lpuart.c:524:53
	lw	a1, -84(s0)
	sw	a0, -88(s0)
	mv	a0, a1
	lw	a1, -88(s0)
	call	__udivsi3
	.loc	7 524 38                        # C:/Vega/rv32m1_sdk_riscv/devices/RV32M1/drivers/fsl_lpuart.c:524:38
	lw	a1, -80(s0)
	sub	a0, a1, a0
.Ltmp85:
	.loc	7 524 13                        # C:/Vega/rv32m1_sdk_riscv/devices/RV32M1/drivers/fsl_lpuart.c:524:13
	lw	a1, -76(s0)
	bgeu	a0, a1, .LBB7_9
	j	.LBB7_8
.LBB7_8:                                # %if.then13
                                        #   in Loop: Header=BB7_4 Depth=1
.Ltmp86:
	.loc	7 526 24 is_stmt 1              # C:/Vega/rv32m1_sdk_riscv/devices/RV32M1/drivers/fsl_lpuart.c:526:24
	lw	a0, -20(s0)
	.loc	7 526 40 is_stmt 0              # C:/Vega/rv32m1_sdk_riscv/devices/RV32M1/drivers/fsl_lpuart.c:526:40
	lw	a1, -24(s0)
	.loc	7 526 55                        # C:/Vega/rv32m1_sdk_riscv/devices/RV32M1/drivers/fsl_lpuart.c:526:55
	lw	a2, -44(s0)
	.loc	7 526 66                        # C:/Vega/rv32m1_sdk_riscv/devices/RV32M1/drivers/fsl_lpuart.c:526:66
	lhu	a3, -36(s0)
	.loc	7 526 74                        # C:/Vega/rv32m1_sdk_riscv/devices/RV32M1/drivers/fsl_lpuart.c:526:74
	addi	a3, a3, 1
	.loc	7 526 63                        # C:/Vega/rv32m1_sdk_riscv/devices/RV32M1/drivers/fsl_lpuart.c:526:63
	sw	a0, -92(s0)
	mv	a0, a2
	sw	a1, -96(s0)
	mv	a1, a3
	call	__mulsi3
	.loc	7 526 52                        # C:/Vega/rv32m1_sdk_riscv/devices/RV32M1/drivers/fsl_lpuart.c:526:52
	lw	a1, -96(s0)
	sw	a0, -100(s0)
	mv	a0, a1
	lw	a1, -100(s0)
	call	__udivsi3
	.loc	7 526 37                        # C:/Vega/rv32m1_sdk_riscv/devices/RV32M1/drivers/fsl_lpuart.c:526:37
	lw	a1, -92(s0)
	sub	a0, a1, a0
	.loc	7 526 22                        # C:/Vega/rv32m1_sdk_riscv/devices/RV32M1/drivers/fsl_lpuart.c:526:22
	sw	a0, -48(s0)
	.loc	7 527 20 is_stmt 1              # C:/Vega/rv32m1_sdk_riscv/devices/RV32M1/drivers/fsl_lpuart.c:527:20
	lh	a0, -36(s0)
	addi	a0, a0, 1
	sh	a0, -36(s0)
	.loc	7 528 9                         # C:/Vega/rv32m1_sdk_riscv/devices/RV32M1/drivers/fsl_lpuart.c:528:9
	j	.LBB7_9
.Ltmp87:
.LBB7_9:                                # %if.end19
                                        #   in Loop: Header=BB7_4 Depth=1
	.loc	7 530 13                        # C:/Vega/rv32m1_sdk_riscv/devices/RV32M1/drivers/fsl_lpuart.c:530:13
	lw	a0, -48(s0)
	.loc	7 530 25 is_stmt 0              # C:/Vega/rv32m1_sdk_riscv/devices/RV32M1/drivers/fsl_lpuart.c:530:25
	lw	a1, -56(s0)
.Ltmp88:
	.loc	7 530 13                        # C:/Vega/rv32m1_sdk_riscv/devices/RV32M1/drivers/fsl_lpuart.c:530:13
	bltu	a1, a0, .LBB7_11
	j	.LBB7_10
.LBB7_10:                               # %if.then22
                                        #   in Loop: Header=BB7_4 Depth=1
.Ltmp89:
	.loc	7 532 24 is_stmt 1              # C:/Vega/rv32m1_sdk_riscv/devices/RV32M1/drivers/fsl_lpuart.c:532:24
	lw	a0, -48(s0)
	.loc	7 532 22 is_stmt 0              # C:/Vega/rv32m1_sdk_riscv/devices/RV32M1/drivers/fsl_lpuart.c:532:22
	sw	a0, -56(s0)
	.loc	7 533 19 is_stmt 1              # C:/Vega/rv32m1_sdk_riscv/devices/RV32M1/drivers/fsl_lpuart.c:533:19
	lw	a0, -44(s0)
	.loc	7 533 17 is_stmt 0              # C:/Vega/rv32m1_sdk_riscv/devices/RV32M1/drivers/fsl_lpuart.c:533:17
	sw	a0, -40(s0)
	.loc	7 534 19 is_stmt 1              # C:/Vega/rv32m1_sdk_riscv/devices/RV32M1/drivers/fsl_lpuart.c:534:19
	lh	a0, -36(s0)
	.loc	7 534 17 is_stmt 0              # C:/Vega/rv32m1_sdk_riscv/devices/RV32M1/drivers/fsl_lpuart.c:534:17
	sh	a0, -34(s0)
	.loc	7 535 9 is_stmt 1               # C:/Vega/rv32m1_sdk_riscv/devices/RV32M1/drivers/fsl_lpuart.c:535:9
	j	.LBB7_11
.Ltmp90:
.LBB7_11:                               # %if.end23
                                        #   in Loop: Header=BB7_4 Depth=1
	.loc	7 536 5                         # C:/Vega/rv32m1_sdk_riscv/devices/RV32M1/drivers/fsl_lpuart.c:536:5
	j	.LBB7_12
.Ltmp91:
.LBB7_12:                               # %for.inc
                                        #   in Loop: Header=BB7_4 Depth=1
	.loc	7 509 45                        # C:/Vega/rv32m1_sdk_riscv/devices/RV32M1/drivers/fsl_lpuart.c:509:45
	lw	a0, -44(s0)
	addi	a0, a0, 1
	sw	a0, -44(s0)
	.loc	7 509 5 is_stmt 0               # C:/Vega/rv32m1_sdk_riscv/devices/RV32M1/drivers/fsl_lpuart.c:509:5
	j	.LBB7_4
.Ltmp92:
.LBB7_13:                               # %for.end
	.loc	7 540 9 is_stmt 1               # C:/Vega/rv32m1_sdk_riscv/devices/RV32M1/drivers/fsl_lpuart.c:540:9
	lw	a0, -56(s0)
	.loc	7 540 22 is_stmt 0              # C:/Vega/rv32m1_sdk_riscv/devices/RV32M1/drivers/fsl_lpuart.c:540:22
	lw	a1, -20(s0)
	addi	a2, zero, 100
	.loc	7 540 35                        # C:/Vega/rv32m1_sdk_riscv/devices/RV32M1/drivers/fsl_lpuart.c:540:35
	sw	a0, -104(s0)
	mv	a0, a1
	mv	a1, a2
	call	__udivsi3
	.loc	7 540 42                        # C:/Vega/rv32m1_sdk_riscv/devices/RV32M1/drivers/fsl_lpuart.c:540:42
	slli	a1, a0, 1
	add	a0, a1, a0
.Ltmp93:
	.loc	7 540 9                         # C:/Vega/rv32m1_sdk_riscv/devices/RV32M1/drivers/fsl_lpuart.c:540:9
	lw	a1, -104(s0)
	bgeu	a1, a0, .LBB7_18
	j	.LBB7_14
.LBB7_14:                               # %if.then29
.Ltmp94:
	.loc	7 543 19 is_stmt 1              # C:/Vega/rv32m1_sdk_riscv/devices/RV32M1/drivers/fsl_lpuart.c:543:19
	lw	a0, -16(s0)
	.loc	7 543 25 is_stmt 0              # C:/Vega/rv32m1_sdk_riscv/devices/RV32M1/drivers/fsl_lpuart.c:543:25
	lw	a0, 24(a0)
	.loc	7 543 17                        # C:/Vega/rv32m1_sdk_riscv/devices/RV32M1/drivers/fsl_lpuart.c:543:17
	sw	a0, -32(s0)
	.loc	7 546 9 is_stmt 1               # C:/Vega/rv32m1_sdk_riscv/devices/RV32M1/drivers/fsl_lpuart.c:546:9
	lw	a0, -16(s0)
	.loc	7 546 20 is_stmt 0              # C:/Vega/rv32m1_sdk_riscv/devices/RV32M1/drivers/fsl_lpuart.c:546:20
	lw	a1, 24(a0)
	lui	a2, 1048384
	addi	a2, a2, -1
	and	a1, a1, a2
	sw	a1, 24(a0)
	.loc	7 548 16 is_stmt 1              # C:/Vega/rv32m1_sdk_riscv/devices/RV32M1/drivers/fsl_lpuart.c:548:16
	lw	a0, -16(s0)
	.loc	7 548 22 is_stmt 0              # C:/Vega/rv32m1_sdk_riscv/devices/RV32M1/drivers/fsl_lpuart.c:548:22
	lw	a0, 16(a0)
	.loc	7 548 14                        # C:/Vega/rv32m1_sdk_riscv/devices/RV32M1/drivers/fsl_lpuart.c:548:14
	sw	a0, -28(s0)
.Ltmp95:
	.loc	7 552 14 is_stmt 1              # C:/Vega/rv32m1_sdk_riscv/devices/RV32M1/drivers/fsl_lpuart.c:552:14
	lw	a0, -40(s0)
	addi	a1, zero, 4
	.loc	7 552 23 is_stmt 0              # C:/Vega/rv32m1_sdk_riscv/devices/RV32M1/drivers/fsl_lpuart.c:552:23
	bltu	a0, a1, .LBB7_17
	j	.LBB7_15
.LBB7_15:                               # %land.lhs.true
	.loc	7 552 27                        # C:/Vega/rv32m1_sdk_riscv/devices/RV32M1/drivers/fsl_lpuart.c:552:27
	lw	a0, -40(s0)
	addi	a1, zero, 7
.Ltmp96:
	.loc	7 552 13                        # C:/Vega/rv32m1_sdk_riscv/devices/RV32M1/drivers/fsl_lpuart.c:552:13
	bltu	a1, a0, .LBB7_17
	j	.LBB7_16
.LBB7_16:                               # %if.then35
.Ltmp97:
	.loc	7 554 18 is_stmt 1              # C:/Vega/rv32m1_sdk_riscv/devices/RV32M1/drivers/fsl_lpuart.c:554:18
	lw	a0, -28(s0)
	lui	a1, 32
	or	a0, a0, a1
	sw	a0, -28(s0)
	.loc	7 555 9                         # C:/Vega/rv32m1_sdk_riscv/devices/RV32M1/drivers/fsl_lpuart.c:555:9
	j	.LBB7_17
.Ltmp98:
.LBB7_17:                               # %if.end36
	.loc	7 558 14                        # C:/Vega/rv32m1_sdk_riscv/devices/RV32M1/drivers/fsl_lpuart.c:558:14
	lw	a0, -28(s0)
	lui	a1, 921600
	addi	a1, a1, -1
	and	a0, a0, a1
	sw	a0, -28(s0)
	.loc	7 559 42                        # C:/Vega/rv32m1_sdk_riscv/devices/RV32M1/drivers/fsl_lpuart.c:559:42
	lw	a0, -40(s0)
	.loc	7 559 46 is_stmt 0              # C:/Vega/rv32m1_sdk_riscv/devices/RV32M1/drivers/fsl_lpuart.c:559:46
	addi	a0, a0, -1
	.loc	7 559 52                        # C:/Vega/rv32m1_sdk_riscv/devices/RV32M1/drivers/fsl_lpuart.c:559:52
	slli	a0, a0, 24
	lui	a1, 126976
	.loc	7 559 63                        # C:/Vega/rv32m1_sdk_riscv/devices/RV32M1/drivers/fsl_lpuart.c:559:63
	and	a0, a0, a1
	.loc	7 559 14                        # C:/Vega/rv32m1_sdk_riscv/devices/RV32M1/drivers/fsl_lpuart.c:559:14
	lw	a1, -28(s0)
	or	a0, a1, a0
	sw	a0, -28(s0)
	.loc	7 562 14 is_stmt 1              # C:/Vega/rv32m1_sdk_riscv/devices/RV32M1/drivers/fsl_lpuart.c:562:14
	lw	a0, -28(s0)
	lui	a1, 1048574
	and	a0, a0, a1
	sw	a0, -28(s0)
	.loc	7 563 22                        # C:/Vega/rv32m1_sdk_riscv/devices/RV32M1/drivers/fsl_lpuart.c:563:22
	lw	a0, -28(s0)
	.loc	7 563 43 is_stmt 0              # C:/Vega/rv32m1_sdk_riscv/devices/RV32M1/drivers/fsl_lpuart.c:563:43
	lhu	a1, -34(s0)
	lui	a2, 2
	addi	a2, a2, -1
	.loc	7 563 70                        # C:/Vega/rv32m1_sdk_riscv/devices/RV32M1/drivers/fsl_lpuart.c:563:70
	and	a1, a1, a2
	.loc	7 563 27                        # C:/Vega/rv32m1_sdk_riscv/devices/RV32M1/drivers/fsl_lpuart.c:563:27
	or	a0, a0, a1
	.loc	7 563 9                         # C:/Vega/rv32m1_sdk_riscv/devices/RV32M1/drivers/fsl_lpuart.c:563:9
	lw	a1, -16(s0)
	.loc	7 563 20                        # C:/Vega/rv32m1_sdk_riscv/devices/RV32M1/drivers/fsl_lpuart.c:563:20
	sw	a0, 16(a1)
	.loc	7 566 22 is_stmt 1              # C:/Vega/rv32m1_sdk_riscv/devices/RV32M1/drivers/fsl_lpuart.c:566:22
	lw	a0, -32(s0)
	.loc	7 566 9 is_stmt 0               # C:/Vega/rv32m1_sdk_riscv/devices/RV32M1/drivers/fsl_lpuart.c:566:9
	lw	a1, -16(s0)
	.loc	7 566 20                        # C:/Vega/rv32m1_sdk_riscv/devices/RV32M1/drivers/fsl_lpuart.c:566:20
	sw	a0, 24(a1)
	mv	a0, zero
	.loc	7 568 9 is_stmt 1               # C:/Vega/rv32m1_sdk_riscv/devices/RV32M1/drivers/fsl_lpuart.c:568:9
	sw	a0, -12(s0)
	j	.LBB7_19
.Ltmp99:
.LBB7_18:                               # %if.else
	.loc	7 0 9 is_stmt 0                 # C:/Vega/rv32m1_sdk_riscv/devices/RV32M1/drivers/fsl_lpuart.c:0:9
	addi	a0, zero, 1313
.Ltmp100:
	.loc	7 573 9 is_stmt 1               # C:/Vega/rv32m1_sdk_riscv/devices/RV32M1/drivers/fsl_lpuart.c:573:9
	sw	a0, -12(s0)
	j	.LBB7_19
.Ltmp101:
.LBB7_19:                               # %return
	.loc	7 575 1                         # C:/Vega/rv32m1_sdk_riscv/devices/RV32M1/drivers/fsl_lpuart.c:575:1
	lw	a0, -12(s0)
	lw	s0, 104(sp)
	lw	ra, 108(sp)
	addi	sp, sp, 112
	ret
.Ltmp102:
.Lfunc_end7:
	.size	LPUART_SetBaudRate, .Lfunc_end7-LPUART_SetBaudRate
	.cfi_endproc
                                        # -- End function
	.section	.text.LPUART_EnableInterrupts,"ax",@progbits
	.globl	LPUART_EnableInterrupts         # -- Begin function LPUART_EnableInterrupts
	.p2align	2
	.type	LPUART_EnableInterrupts,@function
LPUART_EnableInterrupts:                # @LPUART_EnableInterrupts
.Lfunc_begin8:
	.loc	7 578 0                         # C:/Vega/rv32m1_sdk_riscv/devices/RV32M1/drivers/fsl_lpuart.c:578:0
	.cfi_startproc
# %bb.0:                                # %entry
	addi	sp, sp, -16
	.cfi_def_cfa_offset 16
	sw	ra, 12(sp)
	sw	s0, 8(sp)
	.cfi_offset ra, -4
	.cfi_offset s0, -8
	addi	s0, sp, 16
	.cfi_def_cfa s0, 0
	sw	a0, -12(s0)
	sw	a1, -16(s0)
.Ltmp103:
	.loc	7 579 21 prologue_end           # C:/Vega/rv32m1_sdk_riscv/devices/RV32M1/drivers/fsl_lpuart.c:579:21
	lw	a0, -16(s0)
	.loc	7 579 26 is_stmt 0              # C:/Vega/rv32m1_sdk_riscv/devices/RV32M1/drivers/fsl_lpuart.c:579:26
	slli	a0, a0, 8
	lui	a1, 12
	.loc	7 579 32                        # C:/Vega/rv32m1_sdk_riscv/devices/RV32M1/drivers/fsl_lpuart.c:579:32
	and	a0, a0, a1
	.loc	7 579 5                         # C:/Vega/rv32m1_sdk_riscv/devices/RV32M1/drivers/fsl_lpuart.c:579:5
	lw	a1, -12(s0)
	.loc	7 579 16                        # C:/Vega/rv32m1_sdk_riscv/devices/RV32M1/drivers/fsl_lpuart.c:579:16
	lw	a2, 16(a1)
	or	a0, a2, a0
	sw	a0, 16(a1)
	.loc	7 581 19 is_stmt 1              # C:/Vega/rv32m1_sdk_riscv/devices/RV32M1/drivers/fsl_lpuart.c:581:19
	lw	a0, -12(s0)
	.loc	7 581 25 is_stmt 0              # C:/Vega/rv32m1_sdk_riscv/devices/RV32M1/drivers/fsl_lpuart.c:581:25
	lw	a0, 40(a0)
	lui	a1, 1048528
	addi	a1, a1, -1
	.loc	7 581 30                        # C:/Vega/rv32m1_sdk_riscv/devices/RV32M1/drivers/fsl_lpuart.c:581:30
	and	a0, a0, a1
	.loc	7 582 20 is_stmt 1              # C:/Vega/rv32m1_sdk_riscv/devices/RV32M1/drivers/fsl_lpuart.c:582:20
	lw	a1, -16(s0)
	.loc	7 582 25 is_stmt 0              # C:/Vega/rv32m1_sdk_riscv/devices/RV32M1/drivers/fsl_lpuart.c:582:25
	slli	a1, a1, 8
	.loc	7 582 31                        # C:/Vega/rv32m1_sdk_riscv/devices/RV32M1/drivers/fsl_lpuart.c:582:31
	andi	a1, a1, 768
	.loc	7 581 60 is_stmt 1              # C:/Vega/rv32m1_sdk_riscv/devices/RV32M1/drivers/fsl_lpuart.c:581:60
	or	a0, a0, a1
	.loc	7 581 5 is_stmt 0               # C:/Vega/rv32m1_sdk_riscv/devices/RV32M1/drivers/fsl_lpuart.c:581:5
	lw	a1, -12(s0)
	.loc	7 581 16                        # C:/Vega/rv32m1_sdk_riscv/devices/RV32M1/drivers/fsl_lpuart.c:581:16
	sw	a0, 40(a1)
	.loc	7 584 10 is_stmt 1              # C:/Vega/rv32m1_sdk_riscv/devices/RV32M1/drivers/fsl_lpuart.c:584:10
	lw	a0, -16(s0)
	andi	a0, a0, -256
	sw	a0, -16(s0)
	.loc	7 585 19                        # C:/Vega/rv32m1_sdk_riscv/devices/RV32M1/drivers/fsl_lpuart.c:585:19
	lw	a0, -16(s0)
	.loc	7 585 5 is_stmt 0               # C:/Vega/rv32m1_sdk_riscv/devices/RV32M1/drivers/fsl_lpuart.c:585:5
	lw	a1, -12(s0)
	.loc	7 585 16                        # C:/Vega/rv32m1_sdk_riscv/devices/RV32M1/drivers/fsl_lpuart.c:585:16
	lw	a2, 24(a1)
	or	a0, a2, a0
	sw	a0, 24(a1)
	.loc	7 586 1 is_stmt 1               # C:/Vega/rv32m1_sdk_riscv/devices/RV32M1/drivers/fsl_lpuart.c:586:1
	lw	s0, 8(sp)
	lw	ra, 12(sp)
	addi	sp, sp, 16
	ret
.Ltmp104:
.Lfunc_end8:
	.size	LPUART_EnableInterrupts, .Lfunc_end8-LPUART_EnableInterrupts
	.cfi_endproc
                                        # -- End function
	.section	.text.LPUART_DisableInterrupts,"ax",@progbits
	.globl	LPUART_DisableInterrupts        # -- Begin function LPUART_DisableInterrupts
	.p2align	2
	.type	LPUART_DisableInterrupts,@function
LPUART_DisableInterrupts:               # @LPUART_DisableInterrupts
.Lfunc_begin9:
	.loc	7 589 0                         # C:/Vega/rv32m1_sdk_riscv/devices/RV32M1/drivers/fsl_lpuart.c:589:0
	.cfi_startproc
# %bb.0:                                # %entry
	addi	sp, sp, -16
	.cfi_def_cfa_offset 16
	sw	ra, 12(sp)
	sw	s0, 8(sp)
	.cfi_offset ra, -4
	.cfi_offset s0, -8
	addi	s0, sp, 16
	.cfi_def_cfa s0, 0
	sw	a0, -12(s0)
	sw	a1, -16(s0)
.Ltmp105:
	.loc	7 590 22 prologue_end           # C:/Vega/rv32m1_sdk_riscv/devices/RV32M1/drivers/fsl_lpuart.c:590:22
	lw	a0, -16(s0)
	.loc	7 590 27 is_stmt 0              # C:/Vega/rv32m1_sdk_riscv/devices/RV32M1/drivers/fsl_lpuart.c:590:27
	slli	a0, a0, 8
	not	a0, a0
	lui	a1, 1048564
	addi	a1, a1, -1
	.loc	7 590 19                        # C:/Vega/rv32m1_sdk_riscv/devices/RV32M1/drivers/fsl_lpuart.c:590:19
	or	a0, a0, a1
	.loc	7 590 5                         # C:/Vega/rv32m1_sdk_riscv/devices/RV32M1/drivers/fsl_lpuart.c:590:5
	lw	a1, -12(s0)
	.loc	7 590 16                        # C:/Vega/rv32m1_sdk_riscv/devices/RV32M1/drivers/fsl_lpuart.c:590:16
	lw	a2, 16(a1)
	and	a0, a2, a0
	sw	a0, 16(a1)
	.loc	7 592 19 is_stmt 1              # C:/Vega/rv32m1_sdk_riscv/devices/RV32M1/drivers/fsl_lpuart.c:592:19
	lw	a0, -12(s0)
	.loc	7 592 25 is_stmt 0              # C:/Vega/rv32m1_sdk_riscv/devices/RV32M1/drivers/fsl_lpuart.c:592:25
	lw	a0, 40(a0)
	.loc	7 593 21 is_stmt 1              # C:/Vega/rv32m1_sdk_riscv/devices/RV32M1/drivers/fsl_lpuart.c:593:21
	lw	a1, -16(s0)
	.loc	7 593 26 is_stmt 0              # C:/Vega/rv32m1_sdk_riscv/devices/RV32M1/drivers/fsl_lpuart.c:593:26
	slli	a1, a1, 8
	not	a1, a1
	lui	a2, 1048528
	addi	a3, a2, -769
	.loc	7 593 18                        # C:/Vega/rv32m1_sdk_riscv/devices/RV32M1/drivers/fsl_lpuart.c:593:18
	or	a1, a1, a3
	.loc	7 592 30 is_stmt 1              # C:/Vega/rv32m1_sdk_riscv/devices/RV32M1/drivers/fsl_lpuart.c:592:30
	and	a0, a0, a1
	addi	a1, a2, -1
	.loc	7 592 60 is_stmt 0              # C:/Vega/rv32m1_sdk_riscv/devices/RV32M1/drivers/fsl_lpuart.c:592:60
	and	a0, a0, a1
	.loc	7 592 5                         # C:/Vega/rv32m1_sdk_riscv/devices/RV32M1/drivers/fsl_lpuart.c:592:5
	lw	a1, -12(s0)
	.loc	7 592 16                        # C:/Vega/rv32m1_sdk_riscv/devices/RV32M1/drivers/fsl_lpuart.c:592:16
	sw	a0, 40(a1)
	.loc	7 595 10 is_stmt 1              # C:/Vega/rv32m1_sdk_riscv/devices/RV32M1/drivers/fsl_lpuart.c:595:10
	lw	a0, -16(s0)
	andi	a0, a0, -256
	sw	a0, -16(s0)
	.loc	7 596 20                        # C:/Vega/rv32m1_sdk_riscv/devices/RV32M1/drivers/fsl_lpuart.c:596:20
	lw	a0, -16(s0)
	.loc	7 596 19 is_stmt 0              # C:/Vega/rv32m1_sdk_riscv/devices/RV32M1/drivers/fsl_lpuart.c:596:19
	not	a0, a0
	.loc	7 596 5                         # C:/Vega/rv32m1_sdk_riscv/devices/RV32M1/drivers/fsl_lpuart.c:596:5
	lw	a1, -12(s0)
	.loc	7 596 16                        # C:/Vega/rv32m1_sdk_riscv/devices/RV32M1/drivers/fsl_lpuart.c:596:16
	lw	a2, 24(a1)
	and	a0, a2, a0
	sw	a0, 24(a1)
	.loc	7 597 1 is_stmt 1               # C:/Vega/rv32m1_sdk_riscv/devices/RV32M1/drivers/fsl_lpuart.c:597:1
	lw	s0, 8(sp)
	lw	ra, 12(sp)
	addi	sp, sp, 16
	ret
.Ltmp106:
.Lfunc_end9:
	.size	LPUART_DisableInterrupts, .Lfunc_end9-LPUART_DisableInterrupts
	.cfi_endproc
                                        # -- End function
	.section	.text.LPUART_GetEnabledInterrupts,"ax",@progbits
	.globl	LPUART_GetEnabledInterrupts     # -- Begin function LPUART_GetEnabledInterrupts
	.p2align	2
	.type	LPUART_GetEnabledInterrupts,@function
LPUART_GetEnabledInterrupts:            # @LPUART_GetEnabledInterrupts
.Lfunc_begin10:
	.loc	7 600 0                         # C:/Vega/rv32m1_sdk_riscv/devices/RV32M1/drivers/fsl_lpuart.c:600:0
	.cfi_startproc
# %bb.0:                                # %entry
	addi	sp, sp, -16
	.cfi_def_cfa_offset 16
	sw	ra, 12(sp)
	sw	s0, 8(sp)
	.cfi_offset ra, -4
	.cfi_offset s0, -8
	addi	s0, sp, 16
	.cfi_def_cfa s0, 0
	sw	a0, -12(s0)
.Ltmp107:
	.loc	7 602 13 prologue_end           # C:/Vega/rv32m1_sdk_riscv/devices/RV32M1/drivers/fsl_lpuart.c:602:13
	lw	a0, -12(s0)
	.loc	7 602 19 is_stmt 0              # C:/Vega/rv32m1_sdk_riscv/devices/RV32M1/drivers/fsl_lpuart.c:602:19
	lw	a0, 16(a0)
	lui	a1, 12
	.loc	7 602 24                        # C:/Vega/rv32m1_sdk_riscv/devices/RV32M1/drivers/fsl_lpuart.c:602:24
	and	a0, a0, a1
	.loc	7 602 51                        # C:/Vega/rv32m1_sdk_riscv/devices/RV32M1/drivers/fsl_lpuart.c:602:51
	srli	a0, a0, 8
	.loc	7 602 10                        # C:/Vega/rv32m1_sdk_riscv/devices/RV32M1/drivers/fsl_lpuart.c:602:10
	sw	a0, -16(s0)
	.loc	7 604 14 is_stmt 1              # C:/Vega/rv32m1_sdk_riscv/devices/RV32M1/drivers/fsl_lpuart.c:604:14
	lw	a0, -12(s0)
	.loc	7 604 20 is_stmt 0              # C:/Vega/rv32m1_sdk_riscv/devices/RV32M1/drivers/fsl_lpuart.c:604:20
	lw	a0, 40(a0)
	.loc	7 604 25                        # C:/Vega/rv32m1_sdk_riscv/devices/RV32M1/drivers/fsl_lpuart.c:604:25
	andi	a0, a0, 768
	.loc	7 604 50                        # C:/Vega/rv32m1_sdk_riscv/devices/RV32M1/drivers/fsl_lpuart.c:604:50
	srli	a0, a0, 8
	.loc	7 604 10                        # C:/Vega/rv32m1_sdk_riscv/devices/RV32M1/drivers/fsl_lpuart.c:604:10
	lw	a1, -16(s0)
	or	a0, a1, a0
	sw	a0, -16(s0)
	.loc	7 606 14 is_stmt 1              # C:/Vega/rv32m1_sdk_riscv/devices/RV32M1/drivers/fsl_lpuart.c:606:14
	lw	a0, -12(s0)
	.loc	7 606 20 is_stmt 0              # C:/Vega/rv32m1_sdk_riscv/devices/RV32M1/drivers/fsl_lpuart.c:606:20
	lw	a0, 24(a0)
	lui	a1, 65292
	.loc	7 606 25                        # C:/Vega/rv32m1_sdk_riscv/devices/RV32M1/drivers/fsl_lpuart.c:606:25
	and	a0, a0, a1
	.loc	7 606 10                        # C:/Vega/rv32m1_sdk_riscv/devices/RV32M1/drivers/fsl_lpuart.c:606:10
	lw	a1, -16(s0)
	or	a0, a1, a0
	sw	a0, -16(s0)
	.loc	7 608 12 is_stmt 1              # C:/Vega/rv32m1_sdk_riscv/devices/RV32M1/drivers/fsl_lpuart.c:608:12
	lw	a0, -16(s0)
	.loc	7 608 5 is_stmt 0               # C:/Vega/rv32m1_sdk_riscv/devices/RV32M1/drivers/fsl_lpuart.c:608:5
	lw	s0, 8(sp)
	lw	ra, 12(sp)
	addi	sp, sp, 16
	ret
.Ltmp108:
.Lfunc_end10:
	.size	LPUART_GetEnabledInterrupts, .Lfunc_end10-LPUART_GetEnabledInterrupts
	.cfi_endproc
                                        # -- End function
	.section	.text.LPUART_GetStatusFlags,"ax",@progbits
	.globl	LPUART_GetStatusFlags           # -- Begin function LPUART_GetStatusFlags
	.p2align	2
	.type	LPUART_GetStatusFlags,@function
LPUART_GetStatusFlags:                  # @LPUART_GetStatusFlags
.Lfunc_begin11:
	.loc	7 612 0 is_stmt 1               # C:/Vega/rv32m1_sdk_riscv/devices/RV32M1/drivers/fsl_lpuart.c:612:0
	.cfi_startproc
# %bb.0:                                # %entry
	addi	sp, sp, -16
	.cfi_def_cfa_offset 16
	sw	ra, 12(sp)
	sw	s0, 8(sp)
	.cfi_offset ra, -4
	.cfi_offset s0, -8
	addi	s0, sp, 16
	.cfi_def_cfa s0, 0
	sw	a0, -12(s0)
.Ltmp109:
	.loc	7 614 12 prologue_end           # C:/Vega/rv32m1_sdk_riscv/devices/RV32M1/drivers/fsl_lpuart.c:614:12
	lw	a0, -12(s0)
	.loc	7 614 18 is_stmt 0              # C:/Vega/rv32m1_sdk_riscv/devices/RV32M1/drivers/fsl_lpuart.c:614:18
	lw	a0, 20(a0)
	.loc	7 614 10                        # C:/Vega/rv32m1_sdk_riscv/devices/RV32M1/drivers/fsl_lpuart.c:614:10
	sw	a0, -16(s0)
	.loc	7 616 14 is_stmt 1              # C:/Vega/rv32m1_sdk_riscv/devices/RV32M1/drivers/fsl_lpuart.c:616:14
	lw	a0, -12(s0)
	.loc	7 616 20 is_stmt 0              # C:/Vega/rv32m1_sdk_riscv/devices/RV32M1/drivers/fsl_lpuart.c:616:20
	lw	a0, 40(a0)
	lui	a1, 3120
	.loc	7 616 25                        # C:/Vega/rv32m1_sdk_riscv/devices/RV32M1/drivers/fsl_lpuart.c:616:25
	and	a0, a0, a1
	.loc	7 617 69 is_stmt 1              # C:/Vega/rv32m1_sdk_riscv/devices/RV32M1/drivers/fsl_lpuart.c:617:69
	srli	a0, a0, 16
	.loc	7 616 10                        # C:/Vega/rv32m1_sdk_riscv/devices/RV32M1/drivers/fsl_lpuart.c:616:10
	lw	a1, -16(s0)
	or	a0, a1, a0
	sw	a0, -16(s0)
	.loc	7 620 12                        # C:/Vega/rv32m1_sdk_riscv/devices/RV32M1/drivers/fsl_lpuart.c:620:12
	lw	a0, -16(s0)
	.loc	7 620 5 is_stmt 0               # C:/Vega/rv32m1_sdk_riscv/devices/RV32M1/drivers/fsl_lpuart.c:620:5
	lw	s0, 8(sp)
	lw	ra, 12(sp)
	addi	sp, sp, 16
	ret
.Ltmp110:
.Lfunc_end11:
	.size	LPUART_GetStatusFlags, .Lfunc_end11-LPUART_GetStatusFlags
	.cfi_endproc
                                        # -- End function
	.section	.text.LPUART_ClearStatusFlags,"ax",@progbits
	.globl	LPUART_ClearStatusFlags         # -- Begin function LPUART_ClearStatusFlags
	.p2align	2
	.type	LPUART_ClearStatusFlags,@function
LPUART_ClearStatusFlags:                # @LPUART_ClearStatusFlags
.Lfunc_begin12:
	.loc	7 624 0 is_stmt 1               # C:/Vega/rv32m1_sdk_riscv/devices/RV32M1/drivers/fsl_lpuart.c:624:0
	.cfi_startproc
# %bb.0:                                # %entry
	addi	sp, sp, -32
	.cfi_def_cfa_offset 32
	sw	ra, 28(sp)
	sw	s0, 24(sp)
	.cfi_offset ra, -4
	.cfi_offset s0, -8
	addi	s0, sp, 32
	.cfi_def_cfa s0, 0
	sw	a0, -12(s0)
	sw	a1, -16(s0)
.Ltmp111:
	.loc	7 628 22 prologue_end           # C:/Vega/rv32m1_sdk_riscv/devices/RV32M1/drivers/fsl_lpuart.c:628:22
	lw	a0, -12(s0)
	.loc	7 628 28 is_stmt 0              # C:/Vega/rv32m1_sdk_riscv/devices/RV32M1/drivers/fsl_lpuart.c:628:28
	lw	a0, 40(a0)
	.loc	7 628 10                        # C:/Vega/rv32m1_sdk_riscv/devices/RV32M1/drivers/fsl_lpuart.c:628:10
	sw	a0, -20(s0)
	.loc	7 629 10 is_stmt 1              # C:/Vega/rv32m1_sdk_riscv/devices/RV32M1/drivers/fsl_lpuart.c:629:10
	lw	a0, -20(s0)
	lui	a1, 1048528
	addi	a1, a1, -1
	and	a0, a0, a1
	sw	a0, -20(s0)
	.loc	7 630 14                        # C:/Vega/rv32m1_sdk_riscv/devices/RV32M1/drivers/fsl_lpuart.c:630:14
	lw	a0, -16(s0)
	.loc	7 630 19 is_stmt 0              # C:/Vega/rv32m1_sdk_riscv/devices/RV32M1/drivers/fsl_lpuart.c:630:19
	slli	a0, a0, 16
	lui	a1, 48
	.loc	7 630 26                        # C:/Vega/rv32m1_sdk_riscv/devices/RV32M1/drivers/fsl_lpuart.c:630:26
	and	a0, a0, a1
	.loc	7 630 10                        # C:/Vega/rv32m1_sdk_riscv/devices/RV32M1/drivers/fsl_lpuart.c:630:10
	lw	a1, -20(s0)
	or	a0, a1, a0
	sw	a0, -20(s0)
	.loc	7 631 18 is_stmt 1              # C:/Vega/rv32m1_sdk_riscv/devices/RV32M1/drivers/fsl_lpuart.c:631:18
	lw	a0, -20(s0)
	.loc	7 631 5 is_stmt 0               # C:/Vega/rv32m1_sdk_riscv/devices/RV32M1/drivers/fsl_lpuart.c:631:5
	lw	a1, -12(s0)
	.loc	7 631 16                        # C:/Vega/rv32m1_sdk_riscv/devices/RV32M1/drivers/fsl_lpuart.c:631:16
	sw	a0, 40(a1)
	.loc	7 633 22 is_stmt 1              # C:/Vega/rv32m1_sdk_riscv/devices/RV32M1/drivers/fsl_lpuart.c:633:22
	lw	a0, -12(s0)
	.loc	7 633 28 is_stmt 0              # C:/Vega/rv32m1_sdk_riscv/devices/RV32M1/drivers/fsl_lpuart.c:633:28
	lw	a0, 20(a0)
	.loc	7 633 10                        # C:/Vega/rv32m1_sdk_riscv/devices/RV32M1/drivers/fsl_lpuart.c:633:10
	sw	a0, -20(s0)
	.loc	7 635 10 is_stmt 1              # C:/Vega/rv32m1_sdk_riscv/devices/RV32M1/drivers/fsl_lpuart.c:635:10
	lw	a0, -20(s0)
	lui	a1, 524288
	addi	a2, a1, -1
	and	a0, a0, a2
	sw	a0, -20(s0)
	.loc	7 636 13                        # C:/Vega/rv32m1_sdk_riscv/devices/RV32M1/drivers/fsl_lpuart.c:636:13
	lw	a0, -16(s0)
	.loc	7 636 18 is_stmt 0              # C:/Vega/rv32m1_sdk_riscv/devices/RV32M1/drivers/fsl_lpuart.c:636:18
	and	a0, a0, a1
	.loc	7 636 10                        # C:/Vega/rv32m1_sdk_riscv/devices/RV32M1/drivers/fsl_lpuart.c:636:10
	lw	a1, -20(s0)
	or	a0, a1, a0
	sw	a0, -20(s0)
	.loc	7 638 10 is_stmt 1              # C:/Vega/rv32m1_sdk_riscv/devices/RV32M1/drivers/fsl_lpuart.c:638:10
	lw	a0, -20(s0)
	lui	a1, 785936
	addi	a1, a1, -1
	and	a0, a0, a1
	sw	a0, -20(s0)
	.loc	7 640 13                        # C:/Vega/rv32m1_sdk_riscv/devices/RV32M1/drivers/fsl_lpuart.c:640:13
	lw	a0, -16(s0)
	lui	a1, 262640
	.loc	7 640 18 is_stmt 0              # C:/Vega/rv32m1_sdk_riscv/devices/RV32M1/drivers/fsl_lpuart.c:640:18
	and	a0, a0, a1
	.loc	7 640 10                        # C:/Vega/rv32m1_sdk_riscv/devices/RV32M1/drivers/fsl_lpuart.c:640:10
	lw	a1, -20(s0)
	or	a0, a1, a0
	sw	a0, -20(s0)
	.loc	7 643 10 is_stmt 1              # C:/Vega/rv32m1_sdk_riscv/devices/RV32M1/drivers/fsl_lpuart.c:643:10
	lw	a0, -20(s0)
	lui	a1, 1048564
	addi	a1, a1, -1
	and	a0, a0, a1
	sw	a0, -20(s0)
	.loc	7 644 13                        # C:/Vega/rv32m1_sdk_riscv/devices/RV32M1/drivers/fsl_lpuart.c:644:13
	lw	a0, -16(s0)
	lui	a1, 12
	.loc	7 644 18 is_stmt 0              # C:/Vega/rv32m1_sdk_riscv/devices/RV32M1/drivers/fsl_lpuart.c:644:18
	and	a0, a0, a1
	.loc	7 644 10                        # C:/Vega/rv32m1_sdk_riscv/devices/RV32M1/drivers/fsl_lpuart.c:644:10
	lw	a1, -20(s0)
	or	a0, a1, a0
	sw	a0, -20(s0)
	.loc	7 646 18 is_stmt 1              # C:/Vega/rv32m1_sdk_riscv/devices/RV32M1/drivers/fsl_lpuart.c:646:18
	lw	a0, -20(s0)
	.loc	7 646 5 is_stmt 0               # C:/Vega/rv32m1_sdk_riscv/devices/RV32M1/drivers/fsl_lpuart.c:646:5
	lw	a1, -12(s0)
	.loc	7 646 16                        # C:/Vega/rv32m1_sdk_riscv/devices/RV32M1/drivers/fsl_lpuart.c:646:16
	sw	a0, 20(a1)
.Ltmp112:
	.loc	7 648 9 is_stmt 1               # C:/Vega/rv32m1_sdk_riscv/devices/RV32M1/drivers/fsl_lpuart.c:648:9
	lw	a0, -16(s0)
	.loc	7 648 38 is_stmt 0              # C:/Vega/rv32m1_sdk_riscv/devices/RV32M1/drivers/fsl_lpuart.c:648:38
	lw	a1, -12(s0)
	.loc	7 648 16                        # C:/Vega/rv32m1_sdk_riscv/devices/RV32M1/drivers/fsl_lpuart.c:648:16
	sw	a0, -28(s0)
	mv	a0, a1
	call	LPUART_GetStatusFlags
	.loc	7 648 14                        # C:/Vega/rv32m1_sdk_riscv/devices/RV32M1/drivers/fsl_lpuart.c:648:14
	lw	a1, -28(s0)
	and	a0, a1, a0
	mv	a1, zero
.Ltmp113:
	.loc	7 648 9                         # C:/Vega/rv32m1_sdk_riscv/devices/RV32M1/drivers/fsl_lpuart.c:648:9
	beq	a0, a1, .LBB12_2
	j	.LBB12_1
.LBB12_1:                               # %if.then
	.loc	7 0 9                           # C:/Vega/rv32m1_sdk_riscv/devices/RV32M1/drivers/fsl_lpuart.c:0:9
	addi	a0, zero, 1306
.Ltmp114:
	.loc	7 654 16 is_stmt 1              # C:/Vega/rv32m1_sdk_riscv/devices/RV32M1/drivers/fsl_lpuart.c:654:16
	sw	a0, -24(s0)
	.loc	7 655 5                         # C:/Vega/rv32m1_sdk_riscv/devices/RV32M1/drivers/fsl_lpuart.c:655:5
	j	.LBB12_3
.Ltmp115:
.LBB12_2:                               # %if.else
	.loc	7 0 5 is_stmt 0                 # C:/Vega/rv32m1_sdk_riscv/devices/RV32M1/drivers/fsl_lpuart.c:0:5
	mv	a0, zero
.Ltmp116:
	.loc	7 658 16 is_stmt 1              # C:/Vega/rv32m1_sdk_riscv/devices/RV32M1/drivers/fsl_lpuart.c:658:16
	sw	a0, -24(s0)
	j	.LBB12_3
.Ltmp117:
.LBB12_3:                               # %if.end
	.loc	7 661 12                        # C:/Vega/rv32m1_sdk_riscv/devices/RV32M1/drivers/fsl_lpuart.c:661:12
	lw	a0, -24(s0)
	.loc	7 661 5 is_stmt 0               # C:/Vega/rv32m1_sdk_riscv/devices/RV32M1/drivers/fsl_lpuart.c:661:5
	lw	s0, 24(sp)
	lw	ra, 28(sp)
	addi	sp, sp, 32
	ret
.Ltmp118:
.Lfunc_end12:
	.size	LPUART_ClearStatusFlags, .Lfunc_end12-LPUART_ClearStatusFlags
	.cfi_endproc
                                        # -- End function
	.section	.text.LPUART_WriteBlocking,"ax",@progbits
	.globl	LPUART_WriteBlocking            # -- Begin function LPUART_WriteBlocking
	.p2align	2
	.type	LPUART_WriteBlocking,@function
LPUART_WriteBlocking:                   # @LPUART_WriteBlocking
.Lfunc_begin13:
	.loc	7 665 0 is_stmt 1               # C:/Vega/rv32m1_sdk_riscv/devices/RV32M1/drivers/fsl_lpuart.c:665:0
	.cfi_startproc
# %bb.0:                                # %entry
	addi	sp, sp, -32
	.cfi_def_cfa_offset 32
	sw	ra, 28(sp)
	sw	s0, 24(sp)
	.cfi_offset ra, -4
	.cfi_offset s0, -8
	addi	s0, sp, 32
	.cfi_def_cfa s0, 0
	sw	a0, -12(s0)
	sw	a1, -16(s0)
	sw	a2, -20(s0)
.Ltmp119:
	.loc	7 666 7 prologue_end            # C:/Vega/rv32m1_sdk_riscv/devices/RV32M1/drivers/fsl_lpuart.c:666:7
	lw	a0, -16(s0)
	mv	a1, zero
	.loc	7 666 6 is_stmt 0               # C:/Vega/rv32m1_sdk_riscv/devices/RV32M1/drivers/fsl_lpuart.c:666:6
	beq	a0, a1, .LBB13_2
	j	.LBB13_1
.LBB13_1:                               # %cond.true
	j	.LBB13_3
.LBB13_2:                               # %cond.false
	.loc	7 666 25                        # C:/Vega/rv32m1_sdk_riscv/devices/RV32M1/drivers/fsl_lpuart.c:666:25
	lui	a0, %hi(.L.str)
	addi	a0, a0, %lo(.L.str)
	lui	a1, %hi(.L__func__.LPUART_WriteBlocking)
	addi	a2, a1, %lo(.L__func__.LPUART_WriteBlocking)
	lui	a1, %hi(.L.str.7)
	addi	a3, a1, %lo(.L.str.7)
	addi	a1, zero, 666
	call	__assert_func
.LBB13_3:                               # %cond.end
	.loc	7 670 5 is_stmt 1               # C:/Vega/rv32m1_sdk_riscv/devices/RV32M1/drivers/fsl_lpuart.c:670:5
	j	.LBB13_4
.LBB13_4:                               # %while.cond
                                        # =>This Loop Header: Depth=1
                                        #     Child Loop BB13_6 Depth 2
	.loc	7 670 18 is_stmt 0              # C:/Vega/rv32m1_sdk_riscv/devices/RV32M1/drivers/fsl_lpuart.c:670:18
	lw	a0, -20(s0)
	addi	a1, a0, -1
	sw	a1, -20(s0)
	mv	a1, zero
	.loc	7 670 5                         # C:/Vega/rv32m1_sdk_riscv/devices/RV32M1/drivers/fsl_lpuart.c:670:5
	beq	a0, a1, .LBB13_9
	j	.LBB13_5
.LBB13_5:                               # %while.body
                                        #   in Loop: Header=BB13_4 Depth=1
.Ltmp120:
	.loc	7 672 9 is_stmt 1               # C:/Vega/rv32m1_sdk_riscv/devices/RV32M1/drivers/fsl_lpuart.c:672:9
	j	.LBB13_6
.LBB13_6:                               # %while.cond2
                                        #   Parent Loop BB13_4 Depth=1
                                        # =>  This Inner Loop Header: Depth=2
	.loc	7 672 18 is_stmt 0              # C:/Vega/rv32m1_sdk_riscv/devices/RV32M1/drivers/fsl_lpuart.c:672:18
	lw	a0, -12(s0)
	.loc	7 672 24                        # C:/Vega/rv32m1_sdk_riscv/devices/RV32M1/drivers/fsl_lpuart.c:672:24
	lw	a0, 20(a0)
	lui	a1, 2048
	.loc	7 672 29                        # C:/Vega/rv32m1_sdk_riscv/devices/RV32M1/drivers/fsl_lpuart.c:672:29
	and	a0, a0, a1
	mv	a1, zero
	.loc	7 672 9                         # C:/Vega/rv32m1_sdk_riscv/devices/RV32M1/drivers/fsl_lpuart.c:672:9
	bne	a0, a1, .LBB13_8
	j	.LBB13_7
.LBB13_7:                               # %while.body4
                                        #   in Loop: Header=BB13_6 Depth=2
	j	.LBB13_6
.LBB13_8:                               # %while.end
                                        #   in Loop: Header=BB13_4 Depth=1
	.loc	7 675 28 is_stmt 1              # C:/Vega/rv32m1_sdk_riscv/devices/RV32M1/drivers/fsl_lpuart.c:675:28
	lw	a0, -16(s0)
	addi	a1, a0, 1
	sw	a1, -16(s0)
	.loc	7 675 22 is_stmt 0              # C:/Vega/rv32m1_sdk_riscv/devices/RV32M1/drivers/fsl_lpuart.c:675:22
	lbu	a0, 0(a0)
	.loc	7 675 9                         # C:/Vega/rv32m1_sdk_riscv/devices/RV32M1/drivers/fsl_lpuart.c:675:9
	lw	a1, -12(s0)
	.loc	7 675 20                        # C:/Vega/rv32m1_sdk_riscv/devices/RV32M1/drivers/fsl_lpuart.c:675:20
	sw	a0, 28(a1)
.Ltmp121:
	.loc	7 670 5 is_stmt 1               # C:/Vega/rv32m1_sdk_riscv/devices/RV32M1/drivers/fsl_lpuart.c:670:5
	j	.LBB13_4
.LBB13_9:                               # %while.end5
	.loc	7 677 1                         # C:/Vega/rv32m1_sdk_riscv/devices/RV32M1/drivers/fsl_lpuart.c:677:1
	lw	s0, 24(sp)
	lw	ra, 28(sp)
	addi	sp, sp, 32
	ret
.Ltmp122:
.Lfunc_end13:
	.size	LPUART_WriteBlocking, .Lfunc_end13-LPUART_WriteBlocking
	.cfi_endproc
                                        # -- End function
	.section	.text.LPUART_ReadBlocking,"ax",@progbits
	.globl	LPUART_ReadBlocking             # -- Begin function LPUART_ReadBlocking
	.p2align	2
	.type	LPUART_ReadBlocking,@function
LPUART_ReadBlocking:                    # @LPUART_ReadBlocking
.Lfunc_begin14:
	.loc	7 680 0                         # C:/Vega/rv32m1_sdk_riscv/devices/RV32M1/drivers/fsl_lpuart.c:680:0
	.cfi_startproc
# %bb.0:                                # %entry
	addi	sp, sp, -48
	.cfi_def_cfa_offset 48
	sw	ra, 44(sp)
	sw	s0, 40(sp)
	.cfi_offset ra, -4
	.cfi_offset s0, -8
	addi	s0, sp, 48
	.cfi_def_cfa s0, 0
	sw	a0, -16(s0)
	sw	a1, -20(s0)
	sw	a2, -24(s0)
.Ltmp123:
	.loc	7 681 7 prologue_end            # C:/Vega/rv32m1_sdk_riscv/devices/RV32M1/drivers/fsl_lpuart.c:681:7
	lw	a0, -20(s0)
	mv	a1, zero
	.loc	7 681 6 is_stmt 0               # C:/Vega/rv32m1_sdk_riscv/devices/RV32M1/drivers/fsl_lpuart.c:681:6
	beq	a0, a1, .LBB14_2
	j	.LBB14_1
.LBB14_1:                               # %cond.true
	j	.LBB14_3
.LBB14_2:                               # %cond.false
	.loc	7 681 25                        # C:/Vega/rv32m1_sdk_riscv/devices/RV32M1/drivers/fsl_lpuart.c:681:25
	lui	a0, %hi(.L.str)
	addi	a0, a0, %lo(.L.str)
	lui	a1, %hi(.L__func__.LPUART_ReadBlocking)
	addi	a2, a1, %lo(.L__func__.LPUART_ReadBlocking)
	lui	a1, %hi(.L.str.7)
	addi	a3, a1, %lo(.L.str.7)
	addi	a1, zero, 681
	call	__assert_func
.LBB14_3:                               # %cond.end
	.loc	7 685 21 is_stmt 1              # C:/Vega/rv32m1_sdk_riscv/devices/RV32M1/drivers/fsl_lpuart.c:685:21
	lw	a0, -16(s0)
	.loc	7 685 27 is_stmt 0              # C:/Vega/rv32m1_sdk_riscv/devices/RV32M1/drivers/fsl_lpuart.c:685:27
	lw	a0, 24(a0)
	.loc	7 685 14                        # C:/Vega/rv32m1_sdk_riscv/devices/RV32M1/drivers/fsl_lpuart.c:685:14
	sw	a0, -32(s0)
	.loc	7 687 16 is_stmt 1              # C:/Vega/rv32m1_sdk_riscv/devices/RV32M1/drivers/fsl_lpuart.c:687:16
	lbu	a0, -31(s0)
	andi	a0, a0, 8
	addi	a1, zero, 1
	mv	a2, zero
	.loc	7 687 28 is_stmt 0              # C:/Vega/rv32m1_sdk_riscv/devices/RV32M1/drivers/fsl_lpuart.c:687:28
	sw	a1, -40(s0)
	bne	a0, a2, .LBB14_8
	j	.LBB14_4
.LBB14_4:                               # %lor.rhs
	.loc	7 688 19 is_stmt 1              # C:/Vega/rv32m1_sdk_riscv/devices/RV32M1/drivers/fsl_lpuart.c:688:19
	lbu	a0, -31(s0)
	andi	a0, a0, 8
	mv	a1, zero
	mv	a2, a1
	.loc	7 688 32 is_stmt 0              # C:/Vega/rv32m1_sdk_riscv/devices/RV32M1/drivers/fsl_lpuart.c:688:32
	sw	a2, -44(s0)
	bne	a0, a1, .LBB14_7
	j	.LBB14_5
.LBB14_5:                               # %land.lhs.true
	.loc	7 688 43                        # C:/Vega/rv32m1_sdk_riscv/devices/RV32M1/drivers/fsl_lpuart.c:688:43
	lbu	a0, -32(s0)
	andi	a0, a0, 16
	mv	a1, zero
	mv	a2, a1
	.loc	7 688 55                        # C:/Vega/rv32m1_sdk_riscv/devices/RV32M1/drivers/fsl_lpuart.c:688:55
	sw	a2, -44(s0)
	bne	a0, a1, .LBB14_7
	j	.LBB14_6
.LBB14_6:                               # %land.rhs
	lbu	a0, -32(s0)
	andi	a0, a0, 2
	srli	a0, a0, 1
	sw	a0, -44(s0)
	j	.LBB14_7
.LBB14_7:                               # %land.end
	.loc	7 0 0                           # C:/Vega/rv32m1_sdk_riscv/devices/RV32M1/drivers/fsl_lpuart.c:0:0
	lw	a0, -44(s0)
	.loc	7 687 28 is_stmt 1              # C:/Vega/rv32m1_sdk_riscv/devices/RV32M1/drivers/fsl_lpuart.c:687:28
	sw	a0, -40(s0)
	j	.LBB14_8
.LBB14_8:                               # %lor.end
	.loc	7 0 28 is_stmt 0                # C:/Vega/rv32m1_sdk_riscv/devices/RV32M1/drivers/fsl_lpuart.c:0:28
	lw	a0, -40(s0)
	.loc	7 686 11 is_stmt 1              # C:/Vega/rv32m1_sdk_riscv/devices/RV32M1/drivers/fsl_lpuart.c:686:11
	andi	a0, a0, 1
	sb	a0, -33(s0)
	.loc	7 691 5                         # C:/Vega/rv32m1_sdk_riscv/devices/RV32M1/drivers/fsl_lpuart.c:691:5
	j	.LBB14_9
.LBB14_9:                               # %while.cond
                                        # =>This Loop Header: Depth=1
                                        #     Child Loop BB14_11 Depth 2
	.loc	7 691 18 is_stmt 0              # C:/Vega/rv32m1_sdk_riscv/devices/RV32M1/drivers/fsl_lpuart.c:691:18
	lw	a0, -24(s0)
	addi	a1, a0, -1
	sw	a1, -24(s0)
	mv	a1, zero
	.loc	7 691 5                         # C:/Vega/rv32m1_sdk_riscv/devices/RV32M1/drivers/fsl_lpuart.c:691:5
	beq	a0, a1, .LBB14_25
	j	.LBB14_10
.LBB14_10:                              # %while.body
                                        #   in Loop: Header=BB14_9 Depth=1
.Ltmp124:
	.loc	7 694 9 is_stmt 1               # C:/Vega/rv32m1_sdk_riscv/devices/RV32M1/drivers/fsl_lpuart.c:694:9
	j	.LBB14_11
.LBB14_11:                              # %while.cond9
                                        #   Parent Loop BB14_9 Depth=1
                                        # =>  This Inner Loop Header: Depth=2
	.loc	7 694 23 is_stmt 0              # C:/Vega/rv32m1_sdk_riscv/devices/RV32M1/drivers/fsl_lpuart.c:694:23
	lw	a0, -16(s0)
	.loc	7 694 29                        # C:/Vega/rv32m1_sdk_riscv/devices/RV32M1/drivers/fsl_lpuart.c:694:29
	lw	a0, 44(a0)
	lui	a1, 61440
	.loc	7 694 35                        # C:/Vega/rv32m1_sdk_riscv/devices/RV32M1/drivers/fsl_lpuart.c:694:35
	and	a0, a0, a1
	.loc	7 694 51                        # C:/Vega/rv32m1_sdk_riscv/devices/RV32M1/drivers/fsl_lpuart.c:694:51
	srli	a0, a0, 24
	mv	a1, zero
	.loc	7 694 9                         # C:/Vega/rv32m1_sdk_riscv/devices/RV32M1/drivers/fsl_lpuart.c:694:9
	bne	a0, a1, .LBB14_21
	j	.LBB14_12
.LBB14_12:                              # %while.body11
                                        #   in Loop: Header=BB14_11 Depth=2
.Ltmp125:
	.loc	7 699 48 is_stmt 1              # C:/Vega/rv32m1_sdk_riscv/devices/RV32M1/drivers/fsl_lpuart.c:699:48
	lw	a0, -16(s0)
	.loc	7 699 26 is_stmt 0              # C:/Vega/rv32m1_sdk_riscv/devices/RV32M1/drivers/fsl_lpuart.c:699:26
	call	LPUART_GetStatusFlags
	.loc	7 699 24                        # C:/Vega/rv32m1_sdk_riscv/devices/RV32M1/drivers/fsl_lpuart.c:699:24
	sw	a0, -28(s0)
.Ltmp126:
	.loc	7 701 28 is_stmt 1              # C:/Vega/rv32m1_sdk_riscv/devices/RV32M1/drivers/fsl_lpuart.c:701:28
	lbu	a0, -26(s0)
	andi	a0, a0, 8
	mv	a1, zero
.Ltmp127:
	.loc	7 701 17 is_stmt 0              # C:/Vega/rv32m1_sdk_riscv/devices/RV32M1/drivers/fsl_lpuart.c:701:17
	beq	a0, a1, .LBB14_14
	j	.LBB14_13
.LBB14_13:                              # %if.then
.Ltmp128:
	.loc	7 703 41 is_stmt 1              # C:/Vega/rv32m1_sdk_riscv/devices/RV32M1/drivers/fsl_lpuart.c:703:41
	lw	a0, -16(s0)
	lui	a1, 128
	.loc	7 703 17 is_stmt 0              # C:/Vega/rv32m1_sdk_riscv/devices/RV32M1/drivers/fsl_lpuart.c:703:17
	call	LPUART_ClearStatusFlags
	addi	a1, zero, 1309
	.loc	7 704 17 is_stmt 1              # C:/Vega/rv32m1_sdk_riscv/devices/RV32M1/drivers/fsl_lpuart.c:704:17
	sw	a1, -12(s0)
	j	.LBB14_26
.Ltmp129:
.LBB14_14:                              # %if.end
                                        #   in Loop: Header=BB14_11 Depth=2
	.loc	7 707 28                        # C:/Vega/rv32m1_sdk_riscv/devices/RV32M1/drivers/fsl_lpuart.c:707:28
	lbu	a0, -26(s0)
	andi	a0, a0, 4
	mv	a1, zero
.Ltmp130:
	.loc	7 707 17 is_stmt 0              # C:/Vega/rv32m1_sdk_riscv/devices/RV32M1/drivers/fsl_lpuart.c:707:17
	beq	a0, a1, .LBB14_16
	j	.LBB14_15
.LBB14_15:                              # %if.then17
.Ltmp131:
	.loc	7 709 41 is_stmt 1              # C:/Vega/rv32m1_sdk_riscv/devices/RV32M1/drivers/fsl_lpuart.c:709:41
	lw	a0, -16(s0)
	lui	a1, 64
	.loc	7 709 17 is_stmt 0              # C:/Vega/rv32m1_sdk_riscv/devices/RV32M1/drivers/fsl_lpuart.c:709:17
	call	LPUART_ClearStatusFlags
	addi	a1, zero, 1310
	.loc	7 710 17 is_stmt 1              # C:/Vega/rv32m1_sdk_riscv/devices/RV32M1/drivers/fsl_lpuart.c:710:17
	sw	a1, -12(s0)
	j	.LBB14_26
.Ltmp132:
.LBB14_16:                              # %if.end19
                                        #   in Loop: Header=BB14_11 Depth=2
	.loc	7 713 28                        # C:/Vega/rv32m1_sdk_riscv/devices/RV32M1/drivers/fsl_lpuart.c:713:28
	lbu	a0, -26(s0)
	andi	a0, a0, 2
	mv	a1, zero
.Ltmp133:
	.loc	7 713 17 is_stmt 0              # C:/Vega/rv32m1_sdk_riscv/devices/RV32M1/drivers/fsl_lpuart.c:713:17
	beq	a0, a1, .LBB14_18
	j	.LBB14_17
.LBB14_17:                              # %if.then22
.Ltmp134:
	.loc	7 715 41 is_stmt 1              # C:/Vega/rv32m1_sdk_riscv/devices/RV32M1/drivers/fsl_lpuart.c:715:41
	lw	a0, -16(s0)
	lui	a1, 32
	.loc	7 715 17 is_stmt 0              # C:/Vega/rv32m1_sdk_riscv/devices/RV32M1/drivers/fsl_lpuart.c:715:17
	call	LPUART_ClearStatusFlags
	addi	a1, zero, 1311
	.loc	7 716 17 is_stmt 1              # C:/Vega/rv32m1_sdk_riscv/devices/RV32M1/drivers/fsl_lpuart.c:716:17
	sw	a1, -12(s0)
	j	.LBB14_26
.Ltmp135:
.LBB14_18:                              # %if.end24
                                        #   in Loop: Header=BB14_11 Depth=2
	.loc	7 719 28                        # C:/Vega/rv32m1_sdk_riscv/devices/RV32M1/drivers/fsl_lpuart.c:719:28
	lbu	a0, -26(s0)
	andi	a0, a0, 1
	mv	a1, zero
.Ltmp136:
	.loc	7 719 17 is_stmt 0              # C:/Vega/rv32m1_sdk_riscv/devices/RV32M1/drivers/fsl_lpuart.c:719:17
	beq	a0, a1, .LBB14_20
	j	.LBB14_19
.LBB14_19:                              # %if.then27
.Ltmp137:
	.loc	7 721 41 is_stmt 1              # C:/Vega/rv32m1_sdk_riscv/devices/RV32M1/drivers/fsl_lpuart.c:721:41
	lw	a0, -16(s0)
	lui	a1, 16
	.loc	7 721 17 is_stmt 0              # C:/Vega/rv32m1_sdk_riscv/devices/RV32M1/drivers/fsl_lpuart.c:721:17
	call	LPUART_ClearStatusFlags
	addi	a1, zero, 1312
	.loc	7 722 17 is_stmt 1              # C:/Vega/rv32m1_sdk_riscv/devices/RV32M1/drivers/fsl_lpuart.c:722:17
	sw	a1, -12(s0)
	j	.LBB14_26
.Ltmp138:
.LBB14_20:                              # %if.end29
                                        #   in Loop: Header=BB14_11 Depth=2
	.loc	7 694 9                         # C:/Vega/rv32m1_sdk_riscv/devices/RV32M1/drivers/fsl_lpuart.c:694:9
	j	.LBB14_11
.LBB14_21:                              # %while.end
                                        #   in Loop: Header=BB14_9 Depth=1
.Ltmp139:
	.loc	7 726 13                        # C:/Vega/rv32m1_sdk_riscv/devices/RV32M1/drivers/fsl_lpuart.c:726:13
	lbu	a0, -33(s0)
	andi	a0, a0, 1
	mv	a1, zero
.Ltmp140:
	.loc	7 726 13 is_stmt 0              # C:/Vega/rv32m1_sdk_riscv/devices/RV32M1/drivers/fsl_lpuart.c:726:13
	beq	a0, a1, .LBB14_23
	j	.LBB14_22
.LBB14_22:                              # %if.then31
                                        #   in Loop: Header=BB14_9 Depth=1
.Ltmp141:
	.loc	7 728 26 is_stmt 1              # C:/Vega/rv32m1_sdk_riscv/devices/RV32M1/drivers/fsl_lpuart.c:728:26
	lw	a0, -16(s0)
	.loc	7 728 32 is_stmt 0              # C:/Vega/rv32m1_sdk_riscv/devices/RV32M1/drivers/fsl_lpuart.c:728:32
	lw	a0, 28(a0)
	.loc	7 728 37                        # C:/Vega/rv32m1_sdk_riscv/devices/RV32M1/drivers/fsl_lpuart.c:728:37
	andi	a0, a0, 127
	.loc	7 728 19                        # C:/Vega/rv32m1_sdk_riscv/devices/RV32M1/drivers/fsl_lpuart.c:728:19
	lw	a1, -20(s0)
	addi	a2, a1, 1
	sw	a2, -20(s0)
	.loc	7 728 23                        # C:/Vega/rv32m1_sdk_riscv/devices/RV32M1/drivers/fsl_lpuart.c:728:23
	sb	a0, 0(a1)
	.loc	7 729 9 is_stmt 1               # C:/Vega/rv32m1_sdk_riscv/devices/RV32M1/drivers/fsl_lpuart.c:729:9
	j	.LBB14_24
.Ltmp142:
.LBB14_23:                              # %if.else
                                        #   in Loop: Header=BB14_9 Depth=1
	.loc	7 732 25                        # C:/Vega/rv32m1_sdk_riscv/devices/RV32M1/drivers/fsl_lpuart.c:732:25
	lw	a0, -16(s0)
	.loc	7 732 31 is_stmt 0              # C:/Vega/rv32m1_sdk_riscv/devices/RV32M1/drivers/fsl_lpuart.c:732:31
	lw	a0, 28(a0)
	.loc	7 732 19                        # C:/Vega/rv32m1_sdk_riscv/devices/RV32M1/drivers/fsl_lpuart.c:732:19
	lw	a1, -20(s0)
	addi	a2, a1, 1
	sw	a2, -20(s0)
	.loc	7 732 23                        # C:/Vega/rv32m1_sdk_riscv/devices/RV32M1/drivers/fsl_lpuart.c:732:23
	sb	a0, 0(a1)
	j	.LBB14_24
.Ltmp143:
.LBB14_24:                              # %if.end36
                                        #   in Loop: Header=BB14_9 Depth=1
	.loc	7 691 5 is_stmt 1               # C:/Vega/rv32m1_sdk_riscv/devices/RV32M1/drivers/fsl_lpuart.c:691:5
	j	.LBB14_9
.LBB14_25:                              # %while.end37
	.loc	7 0 5 is_stmt 0                 # C:/Vega/rv32m1_sdk_riscv/devices/RV32M1/drivers/fsl_lpuart.c:0:5
	mv	a0, zero
	.loc	7 739 5 is_stmt 1               # C:/Vega/rv32m1_sdk_riscv/devices/RV32M1/drivers/fsl_lpuart.c:739:5
	sw	a0, -12(s0)
	j	.LBB14_26
.LBB14_26:                              # %return
	.loc	7 740 1                         # C:/Vega/rv32m1_sdk_riscv/devices/RV32M1/drivers/fsl_lpuart.c:740:1
	lw	a0, -12(s0)
	lw	s0, 40(sp)
	lw	ra, 44(sp)
	addi	sp, sp, 48
	ret
.Ltmp144:
.Lfunc_end14:
	.size	LPUART_ReadBlocking, .Lfunc_end14-LPUART_ReadBlocking
	.cfi_endproc
                                        # -- End function
	.section	.text.LPUART_TransferCreateHandle,"ax",@progbits
	.globl	LPUART_TransferCreateHandle     # -- Begin function LPUART_TransferCreateHandle
	.p2align	2
	.type	LPUART_TransferCreateHandle,@function
LPUART_TransferCreateHandle:            # @LPUART_TransferCreateHandle
.Lfunc_begin15:
	.loc	7 746 0                         # C:/Vega/rv32m1_sdk_riscv/devices/RV32M1/drivers/fsl_lpuart.c:746:0
	.cfi_startproc
# %bb.0:                                # %entry
	addi	sp, sp, -64
	.cfi_def_cfa_offset 64
	sw	ra, 60(sp)
	sw	s0, 56(sp)
	.cfi_offset ra, -4
	.cfi_offset s0, -8
	addi	s0, sp, 64
	.cfi_def_cfa s0, 0
	sw	a0, -12(s0)
	sw	a1, -16(s0)
	sw	a2, -20(s0)
	sw	a3, -24(s0)
.Ltmp145:
	.loc	7 747 7 prologue_end            # C:/Vega/rv32m1_sdk_riscv/devices/RV32M1/drivers/fsl_lpuart.c:747:7
	lw	a0, -16(s0)
	mv	a1, zero
	.loc	7 747 6 is_stmt 0               # C:/Vega/rv32m1_sdk_riscv/devices/RV32M1/drivers/fsl_lpuart.c:747:6
	beq	a0, a1, .LBB15_2
	j	.LBB15_1
.LBB15_1:                               # %cond.true
	j	.LBB15_3
.LBB15_2:                               # %cond.false
	.loc	7 747 27                        # C:/Vega/rv32m1_sdk_riscv/devices/RV32M1/drivers/fsl_lpuart.c:747:27
	lui	a0, %hi(.L.str)
	addi	a0, a0, %lo(.L.str)
	lui	a1, %hi(.L__func__.LPUART_TransferCreateHandle)
	addi	a2, a1, %lo(.L__func__.LPUART_TransferCreateHandle)
	lui	a1, %hi(.L.str.8)
	addi	a3, a1, %lo(.L.str.8)
	addi	a1, zero, 747
	call	__assert_func
.LBB15_3:                               # %cond.end
	.loc	7 751 21 is_stmt 1              # C:/Vega/rv32m1_sdk_riscv/devices/RV32M1/drivers/fsl_lpuart.c:751:21
	lw	a0, -12(s0)
	.loc	7 751 27 is_stmt 0              # C:/Vega/rv32m1_sdk_riscv/devices/RV32M1/drivers/fsl_lpuart.c:751:27
	lw	a0, 24(a0)
	.loc	7 751 14                        # C:/Vega/rv32m1_sdk_riscv/devices/RV32M1/drivers/fsl_lpuart.c:751:14
	sw	a0, -32(s0)
	.loc	7 753 16 is_stmt 1              # C:/Vega/rv32m1_sdk_riscv/devices/RV32M1/drivers/fsl_lpuart.c:753:16
	lbu	a0, -31(s0)
	andi	a0, a0, 8
	addi	a1, zero, 1
	mv	a2, zero
	.loc	7 753 28 is_stmt 0              # C:/Vega/rv32m1_sdk_riscv/devices/RV32M1/drivers/fsl_lpuart.c:753:28
	sw	a1, -40(s0)
	bne	a0, a2, .LBB15_8
	j	.LBB15_4
.LBB15_4:                               # %lor.rhs
	.loc	7 754 19 is_stmt 1              # C:/Vega/rv32m1_sdk_riscv/devices/RV32M1/drivers/fsl_lpuart.c:754:19
	lbu	a0, -31(s0)
	andi	a0, a0, 8
	mv	a1, zero
	mv	a2, a1
	.loc	7 754 32 is_stmt 0              # C:/Vega/rv32m1_sdk_riscv/devices/RV32M1/drivers/fsl_lpuart.c:754:32
	sw	a2, -44(s0)
	bne	a0, a1, .LBB15_7
	j	.LBB15_5
.LBB15_5:                               # %land.lhs.true
	.loc	7 754 43                        # C:/Vega/rv32m1_sdk_riscv/devices/RV32M1/drivers/fsl_lpuart.c:754:43
	lbu	a0, -32(s0)
	andi	a0, a0, 16
	mv	a1, zero
	mv	a2, a1
	.loc	7 754 55                        # C:/Vega/rv32m1_sdk_riscv/devices/RV32M1/drivers/fsl_lpuart.c:754:55
	sw	a2, -44(s0)
	bne	a0, a1, .LBB15_7
	j	.LBB15_6
.LBB15_6:                               # %land.rhs
	lbu	a0, -32(s0)
	andi	a0, a0, 2
	srli	a0, a0, 1
	sw	a0, -44(s0)
	j	.LBB15_7
.LBB15_7:                               # %land.end
	.loc	7 0 0                           # C:/Vega/rv32m1_sdk_riscv/devices/RV32M1/drivers/fsl_lpuart.c:0:0
	lw	a0, -44(s0)
	.loc	7 753 28 is_stmt 1              # C:/Vega/rv32m1_sdk_riscv/devices/RV32M1/drivers/fsl_lpuart.c:753:28
	sw	a0, -40(s0)
	j	.LBB15_8
.LBB15_8:                               # %lor.end
	.loc	7 0 28 is_stmt 0                # C:/Vega/rv32m1_sdk_riscv/devices/RV32M1/drivers/fsl_lpuart.c:0:28
	lw	a0, -40(s0)
	.loc	7 752 11 is_stmt 1              # C:/Vega/rv32m1_sdk_riscv/devices/RV32M1/drivers/fsl_lpuart.c:752:11
	andi	a0, a0, 1
	sb	a0, -33(s0)
	.loc	7 758 12                        # C:/Vega/rv32m1_sdk_riscv/devices/RV32M1/drivers/fsl_lpuart.c:758:12
	lw	a0, -16(s0)
	mv	a1, zero
	addi	a2, zero, 48
	.loc	7 758 5 is_stmt 0               # C:/Vega/rv32m1_sdk_riscv/devices/RV32M1/drivers/fsl_lpuart.c:758:5
	sw	a1, -48(s0)
	call	memset
	.loc	7 761 5 is_stmt 1               # C:/Vega/rv32m1_sdk_riscv/devices/RV32M1/drivers/fsl_lpuart.c:761:5
	lw	a1, -16(s0)
	addi	a2, zero, 2
	.loc	7 761 21 is_stmt 0              # C:/Vega/rv32m1_sdk_riscv/devices/RV32M1/drivers/fsl_lpuart.c:761:21
	sb	a2, 45(a1)
	.loc	7 762 5 is_stmt 1               # C:/Vega/rv32m1_sdk_riscv/devices/RV32M1/drivers/fsl_lpuart.c:762:5
	lw	a1, -16(s0)
	.loc	7 762 21 is_stmt 0              # C:/Vega/rv32m1_sdk_riscv/devices/RV32M1/drivers/fsl_lpuart.c:762:21
	lw	a2, -48(s0)
	sb	a2, 44(a1)
	.loc	7 765 24 is_stmt 1              # C:/Vega/rv32m1_sdk_riscv/devices/RV32M1/drivers/fsl_lpuart.c:765:24
	lw	a1, -20(s0)
	.loc	7 765 5 is_stmt 0               # C:/Vega/rv32m1_sdk_riscv/devices/RV32M1/drivers/fsl_lpuart.c:765:5
	lw	a3, -16(s0)
	.loc	7 765 22                        # C:/Vega/rv32m1_sdk_riscv/devices/RV32M1/drivers/fsl_lpuart.c:765:22
	sw	a1, 36(a3)
	.loc	7 766 24 is_stmt 1              # C:/Vega/rv32m1_sdk_riscv/devices/RV32M1/drivers/fsl_lpuart.c:766:24
	lw	a1, -24(s0)
	.loc	7 766 5 is_stmt 0               # C:/Vega/rv32m1_sdk_riscv/devices/RV32M1/drivers/fsl_lpuart.c:766:5
	lw	a3, -16(s0)
	.loc	7 766 22                        # C:/Vega/rv32m1_sdk_riscv/devices/RV32M1/drivers/fsl_lpuart.c:766:22
	sw	a1, 40(a3)
	.loc	7 770 31 is_stmt 1              # C:/Vega/rv32m1_sdk_riscv/devices/RV32M1/drivers/fsl_lpuart.c:770:31
	lbu	a1, -33(s0)
	.loc	7 770 5 is_stmt 0               # C:/Vega/rv32m1_sdk_riscv/devices/RV32M1/drivers/fsl_lpuart.c:770:5
	lw	a3, -16(s0)
	.loc	7 770 29                        # C:/Vega/rv32m1_sdk_riscv/devices/RV32M1/drivers/fsl_lpuart.c:770:29
	andi	a1, a1, 1
	sb	a1, 46(a3)
	.loc	7 774 35 is_stmt 1              # C:/Vega/rv32m1_sdk_riscv/devices/RV32M1/drivers/fsl_lpuart.c:774:35
	lw	a1, -12(s0)
	.loc	7 774 16 is_stmt 0              # C:/Vega/rv32m1_sdk_riscv/devices/RV32M1/drivers/fsl_lpuart.c:774:16
	sw	a0, -52(s0)
	mv	a0, a1
	call	LPUART_GetInstance
	.loc	7 774 14                        # C:/Vega/rv32m1_sdk_riscv/devices/RV32M1/drivers/fsl_lpuart.c:774:14
	sw	a0, -28(s0)
	.loc	7 777 32 is_stmt 1              # C:/Vega/rv32m1_sdk_riscv/devices/RV32M1/drivers/fsl_lpuart.c:777:32
	lw	a0, -16(s0)
	.loc	7 777 20 is_stmt 0              # C:/Vega/rv32m1_sdk_riscv/devices/RV32M1/drivers/fsl_lpuart.c:777:20
	lw	a1, -28(s0)
	.loc	7 777 5                         # C:/Vega/rv32m1_sdk_riscv/devices/RV32M1/drivers/fsl_lpuart.c:777:5
	lui	a2, %hi(s_lpuartHandle)
	addi	a2, a2, %lo(s_lpuartHandle)
	slli	a1, a1, 2
	add	a1, a1, a2
	.loc	7 777 30                        # C:/Vega/rv32m1_sdk_riscv/devices/RV32M1/drivers/fsl_lpuart.c:777:30
	sw	a0, 0(a1)
	.loc	7 779 17 is_stmt 1              # C:/Vega/rv32m1_sdk_riscv/devices/RV32M1/drivers/fsl_lpuart.c:779:17
	lui	a0, %hi(LPUART_TransferHandleIRQ)
	addi	a0, a0, %lo(LPUART_TransferHandleIRQ)
	lui	a1, %hi(s_lpuartIsr)
	sw	a0, %lo(s_lpuartIsr)(a1)
	.loc	7 786 27                        # C:/Vega/rv32m1_sdk_riscv/devices/RV32M1/drivers/fsl_lpuart.c:786:27
	lw	a0, -28(s0)
	.loc	7 786 15 is_stmt 0              # C:/Vega/rv32m1_sdk_riscv/devices/RV32M1/drivers/fsl_lpuart.c:786:15
	lui	a1, %hi(s_lpuartIRQ)
	addi	a1, a1, %lo(s_lpuartIRQ)
	slli	a0, a0, 2
	add	a0, a0, a1
	lw	a0, 0(a0)
	.loc	7 786 5                         # C:/Vega/rv32m1_sdk_riscv/devices/RV32M1/drivers/fsl_lpuart.c:786:5
	call	EnableIRQ
	.loc	7 788 1 is_stmt 1               # C:/Vega/rv32m1_sdk_riscv/devices/RV32M1/drivers/fsl_lpuart.c:788:1
	lw	s0, 56(sp)
	lw	ra, 60(sp)
	addi	sp, sp, 64
	ret
.Ltmp146:
.Lfunc_end15:
	.size	LPUART_TransferCreateHandle, .Lfunc_end15-LPUART_TransferCreateHandle
	.cfi_endproc
                                        # -- End function
	.section	.text.LPUART_TransferHandleIRQ,"ax",@progbits
	.globl	LPUART_TransferHandleIRQ        # -- Begin function LPUART_TransferHandleIRQ
	.p2align	2
	.type	LPUART_TransferHandleIRQ,@function
LPUART_TransferHandleIRQ:               # @LPUART_TransferHandleIRQ
.Lfunc_begin16:
	.loc	7 1026 0                        # C:/Vega/rv32m1_sdk_riscv/devices/RV32M1/drivers/fsl_lpuart.c:1026:0
	.cfi_startproc
# %bb.0:                                # %entry
	addi	sp, sp, -96
	.cfi_def_cfa_offset 96
	sw	ra, 92(sp)
	sw	s0, 88(sp)
	.cfi_offset ra, -4
	.cfi_offset s0, -8
	addi	s0, sp, 96
	.cfi_def_cfa s0, 0
	sw	a0, -12(s0)
	sw	a1, -16(s0)
.Ltmp147:
	.loc	7 1027 7 prologue_end           # C:/Vega/rv32m1_sdk_riscv/devices/RV32M1/drivers/fsl_lpuart.c:1027:7
	lw	a0, -16(s0)
	mv	a1, zero
	.loc	7 1027 6 is_stmt 0              # C:/Vega/rv32m1_sdk_riscv/devices/RV32M1/drivers/fsl_lpuart.c:1027:6
	beq	a0, a1, .LBB16_2
	j	.LBB16_1
.LBB16_1:                               # %cond.true
	j	.LBB16_3
.LBB16_2:                               # %cond.false
	.loc	7 1027 27                       # C:/Vega/rv32m1_sdk_riscv/devices/RV32M1/drivers/fsl_lpuart.c:1027:27
	lui	a0, %hi(.L.str)
	addi	a0, a0, %lo(.L.str)
	lui	a1, %hi(.L__func__.LPUART_TransferHandleIRQ)
	addi	a2, a1, %lo(.L__func__.LPUART_TransferHandleIRQ)
	lui	a1, %hi(.L.str.8)
	addi	a3, a1, %lo(.L.str.8)
	addi	a1, zero, 1027
	call	__assert_func
.LBB16_3:                               # %cond.end
.Ltmp148:
	.loc	7 1033 22 is_stmt 1             # C:/Vega/rv32m1_sdk_riscv/devices/RV32M1/drivers/fsl_lpuart.c:1033:22
	lw	a0, -12(s0)
	.loc	7 1033 28 is_stmt 0             # C:/Vega/rv32m1_sdk_riscv/devices/RV32M1/drivers/fsl_lpuart.c:1033:28
	lw	a0, 20(a0)
	lui	a1, 128
	.loc	7 1033 20                       # C:/Vega/rv32m1_sdk_riscv/devices/RV32M1/drivers/fsl_lpuart.c:1033:20
	and	a0, a0, a1
	mv	a1, zero
.Ltmp149:
	.loc	7 1033 9                        # C:/Vega/rv32m1_sdk_riscv/devices/RV32M1/drivers/fsl_lpuart.c:1033:9
	beq	a0, a1, .LBB16_7
	j	.LBB16_4
.LBB16_4:                               # %if.then
.Ltmp150:
	.loc	7 1036 24 is_stmt 1             # C:/Vega/rv32m1_sdk_riscv/devices/RV32M1/drivers/fsl_lpuart.c:1036:24
	lw	a0, -12(s0)
	.loc	7 1036 30 is_stmt 0             # C:/Vega/rv32m1_sdk_riscv/devices/RV32M1/drivers/fsl_lpuart.c:1036:30
	lw	a0, 20(a0)
	lui	a1, 261632
	.loc	7 1036 35                       # C:/Vega/rv32m1_sdk_riscv/devices/RV32M1/drivers/fsl_lpuart.c:1036:35
	and	a0, a0, a1
	lui	a1, 128
	.loc	7 1036 50                       # C:/Vega/rv32m1_sdk_riscv/devices/RV32M1/drivers/fsl_lpuart.c:1036:50
	or	a0, a0, a1
	.loc	7 1036 9                        # C:/Vega/rv32m1_sdk_riscv/devices/RV32M1/drivers/fsl_lpuart.c:1036:9
	lw	a1, -12(s0)
	.loc	7 1036 20                       # C:/Vega/rv32m1_sdk_riscv/devices/RV32M1/drivers/fsl_lpuart.c:1036:20
	sw	a0, 20(a1)
.Ltmp151:
	.loc	7 1039 13 is_stmt 1             # C:/Vega/rv32m1_sdk_riscv/devices/RV32M1/drivers/fsl_lpuart.c:1039:13
	lw	a0, -16(s0)
	.loc	7 1039 21 is_stmt 0             # C:/Vega/rv32m1_sdk_riscv/devices/RV32M1/drivers/fsl_lpuart.c:1039:21
	lw	a0, 36(a0)
	mv	a1, zero
.Ltmp152:
	.loc	7 1039 13                       # C:/Vega/rv32m1_sdk_riscv/devices/RV32M1/drivers/fsl_lpuart.c:1039:13
	beq	a0, a1, .LBB16_6
	j	.LBB16_5
.LBB16_5:                               # %if.then6
.Ltmp153:
	.loc	7 1041 13 is_stmt 1             # C:/Vega/rv32m1_sdk_riscv/devices/RV32M1/drivers/fsl_lpuart.c:1041:13
	lw	a0, -16(s0)
	.loc	7 1041 21 is_stmt 0             # C:/Vega/rv32m1_sdk_riscv/devices/RV32M1/drivers/fsl_lpuart.c:1041:21
	lw	a1, 36(a0)
	.loc	7 1041 30                       # C:/Vega/rv32m1_sdk_riscv/devices/RV32M1/drivers/fsl_lpuart.c:1041:30
	lw	a2, -12(s0)
	.loc	7 1041 86                       # C:/Vega/rv32m1_sdk_riscv/devices/RV32M1/drivers/fsl_lpuart.c:1041:86
	lw	a3, 40(a0)
	addi	a4, zero, 1309
	.loc	7 1041 13                       # C:/Vega/rv32m1_sdk_riscv/devices/RV32M1/drivers/fsl_lpuart.c:1041:13
	sw	a0, -24(s0)
	mv	a0, a2
	lw	a2, -24(s0)
	sw	a1, -28(s0)
	mv	a1, a2
	mv	a2, a4
	lw	a4, -28(s0)
	jalr	a4
	.loc	7 1042 9 is_stmt 1              # C:/Vega/rv32m1_sdk_riscv/devices/RV32M1/drivers/fsl_lpuart.c:1042:9
	j	.LBB16_6
.Ltmp154:
.LBB16_6:                               # %if.end
	.loc	7 1043 5                        # C:/Vega/rv32m1_sdk_riscv/devices/RV32M1/drivers/fsl_lpuart.c:1043:5
	j	.LBB16_7
.Ltmp155:
.LBB16_7:                               # %if.end8
	.loc	7 1046 24                       # C:/Vega/rv32m1_sdk_riscv/devices/RV32M1/drivers/fsl_lpuart.c:1046:24
	lw	a0, -12(s0)
	.loc	7 1046 30 is_stmt 0             # C:/Vega/rv32m1_sdk_riscv/devices/RV32M1/drivers/fsl_lpuart.c:1046:30
	lw	a0, 20(a0)
	lui	a1, 256
	.loc	7 1046 22                       # C:/Vega/rv32m1_sdk_riscv/devices/RV32M1/drivers/fsl_lpuart.c:1046:22
	and	a0, a0, a1
	mv	a1, zero
	.loc	7 1046 36                       # C:/Vega/rv32m1_sdk_riscv/devices/RV32M1/drivers/fsl_lpuart.c:1046:36
	beq	a0, a1, .LBB16_27
	j	.LBB16_8
.LBB16_8:                               # %land.lhs.true
	.loc	7 1046 54                       # C:/Vega/rv32m1_sdk_riscv/devices/RV32M1/drivers/fsl_lpuart.c:1046:54
	lw	a0, -12(s0)
	.loc	7 1046 60                       # C:/Vega/rv32m1_sdk_riscv/devices/RV32M1/drivers/fsl_lpuart.c:1046:60
	lw	a0, 24(a0)
	lui	a1, 256
	.loc	7 1046 52                       # C:/Vega/rv32m1_sdk_riscv/devices/RV32M1/drivers/fsl_lpuart.c:1046:52
	and	a0, a0, a1
	mv	a1, zero
.Ltmp156:
	.loc	7 1046 9                        # C:/Vega/rv32m1_sdk_riscv/devices/RV32M1/drivers/fsl_lpuart.c:1046:9
	beq	a0, a1, .LBB16_27
	j	.LBB16_9
.LBB16_9:                               # %if.then14
.Ltmp157:
	.loc	7 1049 29 is_stmt 1             # C:/Vega/rv32m1_sdk_riscv/devices/RV32M1/drivers/fsl_lpuart.c:1049:29
	lw	a0, -12(s0)
	.loc	7 1049 35 is_stmt 0             # C:/Vega/rv32m1_sdk_riscv/devices/RV32M1/drivers/fsl_lpuart.c:1049:35
	lw	a0, 44(a0)
	lui	a1, 61440
	.loc	7 1049 41                       # C:/Vega/rv32m1_sdk_riscv/devices/RV32M1/drivers/fsl_lpuart.c:1049:41
	and	a0, a0, a1
	.loc	7 1049 57                       # C:/Vega/rv32m1_sdk_riscv/devices/RV32M1/drivers/fsl_lpuart.c:1049:57
	srli	a0, a0, 24
	.loc	7 1049 15                       # C:/Vega/rv32m1_sdk_riscv/devices/RV32M1/drivers/fsl_lpuart.c:1049:15
	sb	a0, -17(s0)
	.loc	7 1051 9 is_stmt 1              # C:/Vega/rv32m1_sdk_riscv/devices/RV32M1/drivers/fsl_lpuart.c:1051:9
	j	.LBB16_10
.LBB16_10:                              # %while.cond
                                        # =>This Inner Loop Header: Depth=1
	.loc	7 1051 17 is_stmt 0             # C:/Vega/rv32m1_sdk_riscv/devices/RV32M1/drivers/fsl_lpuart.c:1051:17
	lbu	a0, -17(s0)
	mv	a1, zero
	mv	a2, a1
	.loc	7 1051 24                       # C:/Vega/rv32m1_sdk_riscv/devices/RV32M1/drivers/fsl_lpuart.c:1051:24
	sw	a2, -32(s0)
	beq	a0, a1, .LBB16_12
	j	.LBB16_11
.LBB16_11:                              # %land.rhs
                                        #   in Loop: Header=BB16_10 Depth=1
	.loc	7 1051 28                       # C:/Vega/rv32m1_sdk_riscv/devices/RV32M1/drivers/fsl_lpuart.c:1051:28
	lw	a0, -16(s0)
	.loc	7 1051 36                       # C:/Vega/rv32m1_sdk_riscv/devices/RV32M1/drivers/fsl_lpuart.c:1051:36
	lw	a0, 16(a0)
	.loc	7 1051 24                       # C:/Vega/rv32m1_sdk_riscv/devices/RV32M1/drivers/fsl_lpuart.c:1051:24
	snez	a0, a0
	sw	a0, -32(s0)
	j	.LBB16_12
.LBB16_12:                              # %land.end
                                        #   in Loop: Header=BB16_10 Depth=1
	.loc	7 0 0                           # C:/Vega/rv32m1_sdk_riscv/devices/RV32M1/drivers/fsl_lpuart.c:0:0
	lw	a0, -32(s0)
	.loc	7 1051 9                        # C:/Vega/rv32m1_sdk_riscv/devices/RV32M1/drivers/fsl_lpuart.c:1051:9
	andi	a0, a0, 1
	mv	a1, zero
	beq	a0, a1, .LBB16_21
	j	.LBB16_13
.LBB16_13:                              # %while.body
                                        #   in Loop: Header=BB16_10 Depth=1
.Ltmp158:
	.loc	7 1053 27 is_stmt 1             # C:/Vega/rv32m1_sdk_riscv/devices/RV32M1/drivers/fsl_lpuart.c:1053:27
	lw	a0, -16(s0)
	.loc	7 1053 35 is_stmt 0             # C:/Vega/rv32m1_sdk_riscv/devices/RV32M1/drivers/fsl_lpuart.c:1053:35
	lw	a0, 16(a0)
	.loc	7 1053 50                       # C:/Vega/rv32m1_sdk_riscv/devices/RV32M1/drivers/fsl_lpuart.c:1053:50
	lbu	a1, -17(s0)
	.loc	7 1053 26                       # C:/Vega/rv32m1_sdk_riscv/devices/RV32M1/drivers/fsl_lpuart.c:1053:26
	bgeu	a0, a1, .LBB16_15
	j	.LBB16_14
.LBB16_14:                              # %cond.true22
                                        #   in Loop: Header=BB16_10 Depth=1
	.loc	7 1053 60                       # C:/Vega/rv32m1_sdk_riscv/devices/RV32M1/drivers/fsl_lpuart.c:1053:60
	lw	a0, -16(s0)
	.loc	7 1053 68                       # C:/Vega/rv32m1_sdk_riscv/devices/RV32M1/drivers/fsl_lpuart.c:1053:68
	lw	a0, 16(a0)
	.loc	7 1053 26                       # C:/Vega/rv32m1_sdk_riscv/devices/RV32M1/drivers/fsl_lpuart.c:1053:26
	sw	a0, -36(s0)
	j	.LBB16_16
.LBB16_15:                              # %cond.false24
                                        #   in Loop: Header=BB16_10 Depth=1
	.loc	7 1053 83                       # C:/Vega/rv32m1_sdk_riscv/devices/RV32M1/drivers/fsl_lpuart.c:1053:83
	lbu	a0, -17(s0)
	.loc	7 1053 26                       # C:/Vega/rv32m1_sdk_riscv/devices/RV32M1/drivers/fsl_lpuart.c:1053:26
	sw	a0, -36(s0)
	j	.LBB16_16
.LBB16_16:                              # %cond.end26
                                        #   in Loop: Header=BB16_10 Depth=1
	lw	a0, -36(s0)
	.loc	7 1053 23                       # C:/Vega/rv32m1_sdk_riscv/devices/RV32M1/drivers/fsl_lpuart.c:1053:23
	sb	a0, -18(s0)
	.loc	7 1056 36 is_stmt 1             # C:/Vega/rv32m1_sdk_riscv/devices/RV32M1/drivers/fsl_lpuart.c:1056:36
	lw	a0, -12(s0)
	.loc	7 1056 42 is_stmt 0             # C:/Vega/rv32m1_sdk_riscv/devices/RV32M1/drivers/fsl_lpuart.c:1056:42
	lw	a1, -16(s0)
	.loc	7 1056 50                       # C:/Vega/rv32m1_sdk_riscv/devices/RV32M1/drivers/fsl_lpuart.c:1056:50
	lw	a1, 12(a1)
	.loc	7 1056 58                       # C:/Vega/rv32m1_sdk_riscv/devices/RV32M1/drivers/fsl_lpuart.c:1056:58
	lbu	a2, -18(s0)
	.loc	7 1056 13                       # C:/Vega/rv32m1_sdk_riscv/devices/RV32M1/drivers/fsl_lpuart.c:1056:13
	call	LPUART_ReadNonBlocking
	.loc	7 1057 31 is_stmt 1             # C:/Vega/rv32m1_sdk_riscv/devices/RV32M1/drivers/fsl_lpuart.c:1057:31
	lbu	a0, -18(s0)
	.loc	7 1057 13 is_stmt 0             # C:/Vega/rv32m1_sdk_riscv/devices/RV32M1/drivers/fsl_lpuart.c:1057:13
	lw	a1, -16(s0)
	.loc	7 1057 28                       # C:/Vega/rv32m1_sdk_riscv/devices/RV32M1/drivers/fsl_lpuart.c:1057:28
	lw	a2, 12(a1)
	add	a0, a2, a0
	sw	a0, 12(a1)
	.loc	7 1058 35 is_stmt 1             # C:/Vega/rv32m1_sdk_riscv/devices/RV32M1/drivers/fsl_lpuart.c:1058:35
	lbu	a0, -18(s0)
	.loc	7 1058 13 is_stmt 0             # C:/Vega/rv32m1_sdk_riscv/devices/RV32M1/drivers/fsl_lpuart.c:1058:13
	lw	a1, -16(s0)
	.loc	7 1058 32                       # C:/Vega/rv32m1_sdk_riscv/devices/RV32M1/drivers/fsl_lpuart.c:1058:32
	lw	a2, 16(a1)
	sub	a0, a2, a0
	sw	a0, 16(a1)
	.loc	7 1059 22 is_stmt 1             # C:/Vega/rv32m1_sdk_riscv/devices/RV32M1/drivers/fsl_lpuart.c:1059:22
	lb	a0, -18(s0)
	.loc	7 1059 19 is_stmt 0             # C:/Vega/rv32m1_sdk_riscv/devices/RV32M1/drivers/fsl_lpuart.c:1059:19
	lb	a1, -17(s0)
	sub	a0, a1, a0
	sb	a0, -17(s0)
.Ltmp159:
	.loc	7 1062 19 is_stmt 1             # C:/Vega/rv32m1_sdk_riscv/devices/RV32M1/drivers/fsl_lpuart.c:1062:19
	lw	a0, -16(s0)
	.loc	7 1062 27 is_stmt 0             # C:/Vega/rv32m1_sdk_riscv/devices/RV32M1/drivers/fsl_lpuart.c:1062:27
	lw	a0, 16(a0)
	mv	a1, zero
.Ltmp160:
	.loc	7 1062 17                       # C:/Vega/rv32m1_sdk_riscv/devices/RV32M1/drivers/fsl_lpuart.c:1062:17
	bne	a0, a1, .LBB16_20
	j	.LBB16_17
.LBB16_17:                              # %if.then39
                                        #   in Loop: Header=BB16_10 Depth=1
.Ltmp161:
	.loc	7 1064 17 is_stmt 1             # C:/Vega/rv32m1_sdk_riscv/devices/RV32M1/drivers/fsl_lpuart.c:1064:17
	lw	a0, -16(s0)
	addi	a1, zero, 2
	.loc	7 1064 33 is_stmt 0             # C:/Vega/rv32m1_sdk_riscv/devices/RV32M1/drivers/fsl_lpuart.c:1064:33
	sb	a1, 45(a0)
	.loc	7 1066 42 is_stmt 1             # C:/Vega/rv32m1_sdk_riscv/devices/RV32M1/drivers/fsl_lpuart.c:1066:42
	lw	a0, -12(s0)
	lui	a1, 33280
	.loc	7 1066 17 is_stmt 0             # C:/Vega/rv32m1_sdk_riscv/devices/RV32M1/drivers/fsl_lpuart.c:1066:17
	call	LPUART_DisableInterrupts
.Ltmp162:
	.loc	7 1067 21 is_stmt 1             # C:/Vega/rv32m1_sdk_riscv/devices/RV32M1/drivers/fsl_lpuart.c:1067:21
	lw	a0, -16(s0)
	.loc	7 1067 29 is_stmt 0             # C:/Vega/rv32m1_sdk_riscv/devices/RV32M1/drivers/fsl_lpuart.c:1067:29
	lw	a0, 36(a0)
	mv	a1, zero
.Ltmp163:
	.loc	7 1067 21                       # C:/Vega/rv32m1_sdk_riscv/devices/RV32M1/drivers/fsl_lpuart.c:1067:21
	beq	a0, a1, .LBB16_19
	j	.LBB16_18
.LBB16_18:                              # %if.then42
                                        #   in Loop: Header=BB16_10 Depth=1
.Ltmp164:
	.loc	7 1069 21 is_stmt 1             # C:/Vega/rv32m1_sdk_riscv/devices/RV32M1/drivers/fsl_lpuart.c:1069:21
	lw	a0, -16(s0)
	.loc	7 1069 29 is_stmt 0             # C:/Vega/rv32m1_sdk_riscv/devices/RV32M1/drivers/fsl_lpuart.c:1069:29
	lw	a1, 36(a0)
	.loc	7 1069 38                       # C:/Vega/rv32m1_sdk_riscv/devices/RV32M1/drivers/fsl_lpuart.c:1069:38
	lw	a2, -12(s0)
	.loc	7 1069 83                       # C:/Vega/rv32m1_sdk_riscv/devices/RV32M1/drivers/fsl_lpuart.c:1069:83
	lw	a3, 40(a0)
	addi	a4, zero, 1303
	.loc	7 1069 21                       # C:/Vega/rv32m1_sdk_riscv/devices/RV32M1/drivers/fsl_lpuart.c:1069:21
	sw	a0, -40(s0)
	mv	a0, a2
	lw	a2, -40(s0)
	sw	a1, -44(s0)
	mv	a1, a2
	mv	a2, a4
	lw	a4, -44(s0)
	jalr	a4
	.loc	7 1070 17 is_stmt 1             # C:/Vega/rv32m1_sdk_riscv/devices/RV32M1/drivers/fsl_lpuart.c:1070:17
	j	.LBB16_19
.Ltmp165:
.LBB16_19:                              # %if.end45
                                        #   in Loop: Header=BB16_10 Depth=1
	.loc	7 1071 13                       # C:/Vega/rv32m1_sdk_riscv/devices/RV32M1/drivers/fsl_lpuart.c:1071:13
	j	.LBB16_20
.Ltmp166:
.LBB16_20:                              # %if.end46
                                        #   in Loop: Header=BB16_10 Depth=1
	.loc	7 1051 9                        # C:/Vega/rv32m1_sdk_riscv/devices/RV32M1/drivers/fsl_lpuart.c:1051:9
	j	.LBB16_10
.LBB16_21:                              # %while.end
	.loc	7 1075 9                        # C:/Vega/rv32m1_sdk_riscv/devices/RV32M1/drivers/fsl_lpuart.c:1075:9
	lw	a0, -12(s0)
	.loc	7 1075 20 is_stmt 0             # C:/Vega/rv32m1_sdk_riscv/devices/RV32M1/drivers/fsl_lpuart.c:1075:20
	lw	a1, 20(a0)
	lui	a2, 256
	or	a1, a1, a2
	sw	a1, 20(a0)
.Ltmp167:
	.loc	7 1078 15 is_stmt 1             # C:/Vega/rv32m1_sdk_riscv/devices/RV32M1/drivers/fsl_lpuart.c:1078:15
	lw	a0, -16(s0)
	.loc	7 1078 23 is_stmt 0             # C:/Vega/rv32m1_sdk_riscv/devices/RV32M1/drivers/fsl_lpuart.c:1078:23
	lw	a0, 16(a0)
	mv	a1, zero
.Ltmp168:
	.loc	7 1078 13                       # C:/Vega/rv32m1_sdk_riscv/devices/RV32M1/drivers/fsl_lpuart.c:1078:13
	bne	a0, a1, .LBB16_23
	j	.LBB16_22
.LBB16_22:                              # %if.then51
.Ltmp169:
	.loc	7 1080 38 is_stmt 1             # C:/Vega/rv32m1_sdk_riscv/devices/RV32M1/drivers/fsl_lpuart.c:1080:38
	lw	a0, -12(s0)
	lui	a1, 256
	.loc	7 1080 13 is_stmt 0             # C:/Vega/rv32m1_sdk_riscv/devices/RV32M1/drivers/fsl_lpuart.c:1080:13
	call	LPUART_DisableInterrupts
	.loc	7 1081 9 is_stmt 1              # C:/Vega/rv32m1_sdk_riscv/devices/RV32M1/drivers/fsl_lpuart.c:1081:9
	j	.LBB16_23
.Ltmp170:
.LBB16_23:                              # %if.end52
	.loc	7 1083 14                       # C:/Vega/rv32m1_sdk_riscv/devices/RV32M1/drivers/fsl_lpuart.c:1083:14
	lw	a0, -16(s0)
	.loc	7 1083 22 is_stmt 0             # C:/Vega/rv32m1_sdk_riscv/devices/RV32M1/drivers/fsl_lpuart.c:1083:22
	lw	a0, 36(a0)
	mv	a1, zero
	.loc	7 1083 32                       # C:/Vega/rv32m1_sdk_riscv/devices/RV32M1/drivers/fsl_lpuart.c:1083:32
	beq	a0, a1, .LBB16_26
	j	.LBB16_24
.LBB16_24:                              # %land.lhs.true55
	.loc	7 1083 36                       # C:/Vega/rv32m1_sdk_riscv/devices/RV32M1/drivers/fsl_lpuart.c:1083:36
	lw	a0, -16(s0)
	.loc	7 1083 44                       # C:/Vega/rv32m1_sdk_riscv/devices/RV32M1/drivers/fsl_lpuart.c:1083:44
	lw	a0, 16(a0)
	mv	a1, zero
.Ltmp171:
	.loc	7 1083 13                       # C:/Vega/rv32m1_sdk_riscv/devices/RV32M1/drivers/fsl_lpuart.c:1083:13
	beq	a0, a1, .LBB16_26
	j	.LBB16_25
.LBB16_25:                              # %if.then58
.Ltmp172:
	.loc	7 1085 13 is_stmt 1             # C:/Vega/rv32m1_sdk_riscv/devices/RV32M1/drivers/fsl_lpuart.c:1085:13
	lw	a0, -16(s0)
	.loc	7 1085 21 is_stmt 0             # C:/Vega/rv32m1_sdk_riscv/devices/RV32M1/drivers/fsl_lpuart.c:1085:21
	lw	a1, 36(a0)
	.loc	7 1085 30                       # C:/Vega/rv32m1_sdk_riscv/devices/RV32M1/drivers/fsl_lpuart.c:1085:30
	lw	a2, -12(s0)
	.loc	7 1085 85                       # C:/Vega/rv32m1_sdk_riscv/devices/RV32M1/drivers/fsl_lpuart.c:1085:85
	lw	a3, 40(a0)
	addi	a4, zero, 1314
	.loc	7 1085 13                       # C:/Vega/rv32m1_sdk_riscv/devices/RV32M1/drivers/fsl_lpuart.c:1085:13
	sw	a0, -48(s0)
	mv	a0, a2
	lw	a2, -48(s0)
	sw	a1, -52(s0)
	mv	a1, a2
	mv	a2, a4
	lw	a4, -52(s0)
	jalr	a4
	.loc	7 1086 9 is_stmt 1              # C:/Vega/rv32m1_sdk_riscv/devices/RV32M1/drivers/fsl_lpuart.c:1086:9
	j	.LBB16_26
.Ltmp173:
.LBB16_26:                              # %if.end61
	.loc	7 1087 5                        # C:/Vega/rv32m1_sdk_riscv/devices/RV32M1/drivers/fsl_lpuart.c:1087:5
	j	.LBB16_27
.Ltmp174:
.LBB16_27:                              # %if.end62
	.loc	7 1089 24                       # C:/Vega/rv32m1_sdk_riscv/devices/RV32M1/drivers/fsl_lpuart.c:1089:24
	lw	a0, -12(s0)
	.loc	7 1089 30 is_stmt 0             # C:/Vega/rv32m1_sdk_riscv/devices/RV32M1/drivers/fsl_lpuart.c:1089:30
	lw	a0, 20(a0)
	lui	a1, 512
	.loc	7 1089 22                       # C:/Vega/rv32m1_sdk_riscv/devices/RV32M1/drivers/fsl_lpuart.c:1089:22
	and	a0, a0, a1
	mv	a1, zero
	.loc	7 1089 36                       # C:/Vega/rv32m1_sdk_riscv/devices/RV32M1/drivers/fsl_lpuart.c:1089:36
	beq	a0, a1, .LBB16_66
	j	.LBB16_28
.LBB16_28:                              # %land.lhs.true66
	.loc	7 1089 54                       # C:/Vega/rv32m1_sdk_riscv/devices/RV32M1/drivers/fsl_lpuart.c:1089:54
	lw	a0, -12(s0)
	.loc	7 1089 60                       # C:/Vega/rv32m1_sdk_riscv/devices/RV32M1/drivers/fsl_lpuart.c:1089:60
	lw	a0, 24(a0)
	lui	a1, 512
	.loc	7 1089 52                       # C:/Vega/rv32m1_sdk_riscv/devices/RV32M1/drivers/fsl_lpuart.c:1089:52
	and	a0, a0, a1
	mv	a1, zero
.Ltmp175:
	.loc	7 1089 9                        # C:/Vega/rv32m1_sdk_riscv/devices/RV32M1/drivers/fsl_lpuart.c:1089:9
	beq	a0, a1, .LBB16_66
	j	.LBB16_29
.LBB16_29:                              # %if.then70
.Ltmp176:
	.loc	7 1093 29 is_stmt 1             # C:/Vega/rv32m1_sdk_riscv/devices/RV32M1/drivers/fsl_lpuart.c:1093:29
	lw	a0, -12(s0)
	.loc	7 1093 35 is_stmt 0             # C:/Vega/rv32m1_sdk_riscv/devices/RV32M1/drivers/fsl_lpuart.c:1093:35
	lw	a0, 44(a0)
	lui	a1, 61440
	.loc	7 1093 41                       # C:/Vega/rv32m1_sdk_riscv/devices/RV32M1/drivers/fsl_lpuart.c:1093:41
	and	a0, a0, a1
	.loc	7 1093 57                       # C:/Vega/rv32m1_sdk_riscv/devices/RV32M1/drivers/fsl_lpuart.c:1093:57
	srli	a0, a0, 24
	.loc	7 1093 15                       # C:/Vega/rv32m1_sdk_riscv/devices/RV32M1/drivers/fsl_lpuart.c:1093:15
	sb	a0, -17(s0)
	.loc	7 1099 9 is_stmt 1              # C:/Vega/rv32m1_sdk_riscv/devices/RV32M1/drivers/fsl_lpuart.c:1099:9
	j	.LBB16_30
.LBB16_30:                              # %while.cond75
                                        # =>This Inner Loop Header: Depth=1
	.loc	7 1099 17 is_stmt 0             # C:/Vega/rv32m1_sdk_riscv/devices/RV32M1/drivers/fsl_lpuart.c:1099:17
	lbu	a0, -17(s0)
	mv	a1, zero
	mv	a2, a1
	.loc	7 1099 24                       # C:/Vega/rv32m1_sdk_riscv/devices/RV32M1/drivers/fsl_lpuart.c:1099:24
	sw	a2, -56(s0)
	beq	a0, a1, .LBB16_32
	j	.LBB16_31
.LBB16_31:                              # %land.rhs78
                                        #   in Loop: Header=BB16_30 Depth=1
	.loc	7 1099 28                       # C:/Vega/rv32m1_sdk_riscv/devices/RV32M1/drivers/fsl_lpuart.c:1099:28
	lw	a0, -16(s0)
	.loc	7 1099 36                       # C:/Vega/rv32m1_sdk_riscv/devices/RV32M1/drivers/fsl_lpuart.c:1099:36
	lw	a0, 16(a0)
	.loc	7 1099 24                       # C:/Vega/rv32m1_sdk_riscv/devices/RV32M1/drivers/fsl_lpuart.c:1099:24
	snez	a0, a0
	sw	a0, -56(s0)
	j	.LBB16_32
.LBB16_32:                              # %land.end81
                                        #   in Loop: Header=BB16_30 Depth=1
	.loc	7 0 0                           # C:/Vega/rv32m1_sdk_riscv/devices/RV32M1/drivers/fsl_lpuart.c:0:0
	lw	a0, -56(s0)
	.loc	7 1099 9                        # C:/Vega/rv32m1_sdk_riscv/devices/RV32M1/drivers/fsl_lpuart.c:1099:9
	andi	a0, a0, 1
	mv	a1, zero
	beq	a0, a1, .LBB16_41
	j	.LBB16_33
.LBB16_33:                              # %while.body82
                                        #   in Loop: Header=BB16_30 Depth=1
.Ltmp177:
	.loc	7 1102 27 is_stmt 1             # C:/Vega/rv32m1_sdk_riscv/devices/RV32M1/drivers/fsl_lpuart.c:1102:27
	lw	a0, -16(s0)
	.loc	7 1102 35 is_stmt 0             # C:/Vega/rv32m1_sdk_riscv/devices/RV32M1/drivers/fsl_lpuart.c:1102:35
	lw	a0, 16(a0)
	.loc	7 1102 50                       # C:/Vega/rv32m1_sdk_riscv/devices/RV32M1/drivers/fsl_lpuart.c:1102:50
	lbu	a1, -17(s0)
	.loc	7 1102 26                       # C:/Vega/rv32m1_sdk_riscv/devices/RV32M1/drivers/fsl_lpuart.c:1102:26
	bgeu	a0, a1, .LBB16_35
	j	.LBB16_34
.LBB16_34:                              # %cond.true87
                                        #   in Loop: Header=BB16_30 Depth=1
	.loc	7 1102 60                       # C:/Vega/rv32m1_sdk_riscv/devices/RV32M1/drivers/fsl_lpuart.c:1102:60
	lw	a0, -16(s0)
	.loc	7 1102 68                       # C:/Vega/rv32m1_sdk_riscv/devices/RV32M1/drivers/fsl_lpuart.c:1102:68
	lw	a0, 16(a0)
	.loc	7 1102 26                       # C:/Vega/rv32m1_sdk_riscv/devices/RV32M1/drivers/fsl_lpuart.c:1102:26
	sw	a0, -60(s0)
	j	.LBB16_36
.LBB16_35:                              # %cond.false89
                                        #   in Loop: Header=BB16_30 Depth=1
	.loc	7 1102 83                       # C:/Vega/rv32m1_sdk_riscv/devices/RV32M1/drivers/fsl_lpuart.c:1102:83
	lbu	a0, -17(s0)
	.loc	7 1102 26                       # C:/Vega/rv32m1_sdk_riscv/devices/RV32M1/drivers/fsl_lpuart.c:1102:26
	sw	a0, -60(s0)
	j	.LBB16_36
.LBB16_36:                              # %cond.end91
                                        #   in Loop: Header=BB16_30 Depth=1
	lw	a0, -60(s0)
	.loc	7 1102 23                       # C:/Vega/rv32m1_sdk_riscv/devices/RV32M1/drivers/fsl_lpuart.c:1102:23
	sb	a0, -18(s0)
	.loc	7 1108 36 is_stmt 1             # C:/Vega/rv32m1_sdk_riscv/devices/RV32M1/drivers/fsl_lpuart.c:1108:36
	lw	a0, -12(s0)
	.loc	7 1108 42 is_stmt 0             # C:/Vega/rv32m1_sdk_riscv/devices/RV32M1/drivers/fsl_lpuart.c:1108:42
	lw	a1, -16(s0)
	.loc	7 1108 50                       # C:/Vega/rv32m1_sdk_riscv/devices/RV32M1/drivers/fsl_lpuart.c:1108:50
	lw	a1, 12(a1)
	.loc	7 1108 58                       # C:/Vega/rv32m1_sdk_riscv/devices/RV32M1/drivers/fsl_lpuart.c:1108:58
	lbu	a2, -18(s0)
	.loc	7 1108 13                       # C:/Vega/rv32m1_sdk_riscv/devices/RV32M1/drivers/fsl_lpuart.c:1108:13
	call	LPUART_ReadNonBlocking
	.loc	7 1109 31 is_stmt 1             # C:/Vega/rv32m1_sdk_riscv/devices/RV32M1/drivers/fsl_lpuart.c:1109:31
	lbu	a0, -18(s0)
	.loc	7 1109 13 is_stmt 0             # C:/Vega/rv32m1_sdk_riscv/devices/RV32M1/drivers/fsl_lpuart.c:1109:13
	lw	a1, -16(s0)
	.loc	7 1109 28                       # C:/Vega/rv32m1_sdk_riscv/devices/RV32M1/drivers/fsl_lpuart.c:1109:28
	lw	a2, 12(a1)
	add	a0, a2, a0
	sw	a0, 12(a1)
	.loc	7 1110 35 is_stmt 1             # C:/Vega/rv32m1_sdk_riscv/devices/RV32M1/drivers/fsl_lpuart.c:1110:35
	lbu	a0, -18(s0)
	.loc	7 1110 13 is_stmt 0             # C:/Vega/rv32m1_sdk_riscv/devices/RV32M1/drivers/fsl_lpuart.c:1110:13
	lw	a1, -16(s0)
	.loc	7 1110 32                       # C:/Vega/rv32m1_sdk_riscv/devices/RV32M1/drivers/fsl_lpuart.c:1110:32
	lw	a2, 16(a1)
	sub	a0, a2, a0
	sw	a0, 16(a1)
	.loc	7 1111 22 is_stmt 1             # C:/Vega/rv32m1_sdk_riscv/devices/RV32M1/drivers/fsl_lpuart.c:1111:22
	lb	a0, -18(s0)
	.loc	7 1111 19 is_stmt 0             # C:/Vega/rv32m1_sdk_riscv/devices/RV32M1/drivers/fsl_lpuart.c:1111:19
	lb	a1, -17(s0)
	sub	a0, a1, a0
	sb	a0, -17(s0)
.Ltmp178:
	.loc	7 1114 18 is_stmt 1             # C:/Vega/rv32m1_sdk_riscv/devices/RV32M1/drivers/fsl_lpuart.c:1114:18
	lw	a0, -16(s0)
	.loc	7 1114 26 is_stmt 0             # C:/Vega/rv32m1_sdk_riscv/devices/RV32M1/drivers/fsl_lpuart.c:1114:26
	lw	a0, 16(a0)
	mv	a1, zero
.Ltmp179:
	.loc	7 1114 17                       # C:/Vega/rv32m1_sdk_riscv/devices/RV32M1/drivers/fsl_lpuart.c:1114:17
	bne	a0, a1, .LBB16_40
	j	.LBB16_37
.LBB16_37:                              # %if.then108
                                        #   in Loop: Header=BB16_30 Depth=1
.Ltmp180:
	.loc	7 1116 17 is_stmt 1             # C:/Vega/rv32m1_sdk_riscv/devices/RV32M1/drivers/fsl_lpuart.c:1116:17
	lw	a0, -16(s0)
	addi	a1, zero, 2
	.loc	7 1116 33 is_stmt 0             # C:/Vega/rv32m1_sdk_riscv/devices/RV32M1/drivers/fsl_lpuart.c:1116:33
	sb	a1, 45(a0)
.Ltmp181:
	.loc	7 1118 21 is_stmt 1             # C:/Vega/rv32m1_sdk_riscv/devices/RV32M1/drivers/fsl_lpuart.c:1118:21
	lw	a0, -16(s0)
	.loc	7 1118 29 is_stmt 0             # C:/Vega/rv32m1_sdk_riscv/devices/RV32M1/drivers/fsl_lpuart.c:1118:29
	lw	a0, 36(a0)
	mv	a1, zero
.Ltmp182:
	.loc	7 1118 21                       # C:/Vega/rv32m1_sdk_riscv/devices/RV32M1/drivers/fsl_lpuart.c:1118:21
	beq	a0, a1, .LBB16_39
	j	.LBB16_38
.LBB16_38:                              # %if.then112
                                        #   in Loop: Header=BB16_30 Depth=1
.Ltmp183:
	.loc	7 1120 21 is_stmt 1             # C:/Vega/rv32m1_sdk_riscv/devices/RV32M1/drivers/fsl_lpuart.c:1120:21
	lw	a0, -16(s0)
	.loc	7 1120 29 is_stmt 0             # C:/Vega/rv32m1_sdk_riscv/devices/RV32M1/drivers/fsl_lpuart.c:1120:29
	lw	a1, 36(a0)
	.loc	7 1120 38                       # C:/Vega/rv32m1_sdk_riscv/devices/RV32M1/drivers/fsl_lpuart.c:1120:38
	lw	a2, -12(s0)
	.loc	7 1120 83                       # C:/Vega/rv32m1_sdk_riscv/devices/RV32M1/drivers/fsl_lpuart.c:1120:83
	lw	a3, 40(a0)
	addi	a4, zero, 1303
	.loc	7 1120 21                       # C:/Vega/rv32m1_sdk_riscv/devices/RV32M1/drivers/fsl_lpuart.c:1120:21
	sw	a0, -64(s0)
	mv	a0, a2
	lw	a2, -64(s0)
	sw	a1, -68(s0)
	mv	a1, a2
	mv	a2, a4
	lw	a4, -68(s0)
	jalr	a4
	.loc	7 1121 17 is_stmt 1             # C:/Vega/rv32m1_sdk_riscv/devices/RV32M1/drivers/fsl_lpuart.c:1121:17
	j	.LBB16_39
.Ltmp184:
.LBB16_39:                              # %if.end115
                                        #   in Loop: Header=BB16_30 Depth=1
	.loc	7 1122 13                       # C:/Vega/rv32m1_sdk_riscv/devices/RV32M1/drivers/fsl_lpuart.c:1122:13
	j	.LBB16_40
.Ltmp185:
.LBB16_40:                              # %if.end116
                                        #   in Loop: Header=BB16_30 Depth=1
	.loc	7 1099 9                        # C:/Vega/rv32m1_sdk_riscv/devices/RV32M1/drivers/fsl_lpuart.c:1099:9
	j	.LBB16_30
.LBB16_41:                              # %while.end117
.Ltmp186:
	.loc	7 1126 13                       # C:/Vega/rv32m1_sdk_riscv/devices/RV32M1/drivers/fsl_lpuart.c:1126:13
	lw	a0, -16(s0)
	.loc	7 1126 21 is_stmt 0             # C:/Vega/rv32m1_sdk_riscv/devices/RV32M1/drivers/fsl_lpuart.c:1126:21
	lw	a0, 24(a0)
	mv	a1, zero
.Ltmp187:
	.loc	7 1126 13                       # C:/Vega/rv32m1_sdk_riscv/devices/RV32M1/drivers/fsl_lpuart.c:1126:13
	beq	a0, a1, .LBB16_61
	j	.LBB16_42
.LBB16_42:                              # %if.then119
.Ltmp188:
	.loc	7 1128 13 is_stmt 1             # C:/Vega/rv32m1_sdk_riscv/devices/RV32M1/drivers/fsl_lpuart.c:1128:13
	j	.LBB16_43
.LBB16_43:                              # %while.cond120
                                        # =>This Inner Loop Header: Depth=1
	.loc	7 1128 25 is_stmt 0             # C:/Vega/rv32m1_sdk_riscv/devices/RV32M1/drivers/fsl_lpuart.c:1128:25
	lbu	a0, -17(s0)
	addi	a1, a0, -1
	sb	a1, -17(s0)
	mv	a1, zero
	.loc	7 1128 13                       # C:/Vega/rv32m1_sdk_riscv/devices/RV32M1/drivers/fsl_lpuart.c:1128:13
	beq	a0, a1, .LBB16_60
	j	.LBB16_44
.LBB16_44:                              # %while.body122
                                        #   in Loop: Header=BB16_43 Depth=1
.Ltmp189:
	.loc	7 1131 55 is_stmt 1             # C:/Vega/rv32m1_sdk_riscv/devices/RV32M1/drivers/fsl_lpuart.c:1131:55
	lw	a0, -12(s0)
	.loc	7 1131 61 is_stmt 0             # C:/Vega/rv32m1_sdk_riscv/devices/RV32M1/drivers/fsl_lpuart.c:1131:61
	lw	a1, -16(s0)
	.loc	7 1131 21                       # C:/Vega/rv32m1_sdk_riscv/devices/RV32M1/drivers/fsl_lpuart.c:1131:21
	call	LPUART_TransferIsRxRingBufferFull
	mv	a1, zero
.Ltmp190:
	.loc	7 1131 21                       # C:/Vega/rv32m1_sdk_riscv/devices/RV32M1/drivers/fsl_lpuart.c:1131:21
	beq	a0, a1, .LBB16_48
	j	.LBB16_45
.LBB16_45:                              # %if.then123
                                        #   in Loop: Header=BB16_43 Depth=1
.Ltmp191:
	.loc	7 1133 25 is_stmt 1             # C:/Vega/rv32m1_sdk_riscv/devices/RV32M1/drivers/fsl_lpuart.c:1133:25
	lw	a0, -16(s0)
	.loc	7 1133 33 is_stmt 0             # C:/Vega/rv32m1_sdk_riscv/devices/RV32M1/drivers/fsl_lpuart.c:1133:33
	lw	a0, 36(a0)
	mv	a1, zero
.Ltmp192:
	.loc	7 1133 25                       # C:/Vega/rv32m1_sdk_riscv/devices/RV32M1/drivers/fsl_lpuart.c:1133:25
	beq	a0, a1, .LBB16_47
	j	.LBB16_46
.LBB16_46:                              # %if.then126
                                        #   in Loop: Header=BB16_43 Depth=1
.Ltmp193:
	.loc	7 1135 25 is_stmt 1             # C:/Vega/rv32m1_sdk_riscv/devices/RV32M1/drivers/fsl_lpuart.c:1135:25
	lw	a0, -16(s0)
	.loc	7 1135 33 is_stmt 0             # C:/Vega/rv32m1_sdk_riscv/devices/RV32M1/drivers/fsl_lpuart.c:1135:33
	lw	a1, 36(a0)
	.loc	7 1135 42                       # C:/Vega/rv32m1_sdk_riscv/devices/RV32M1/drivers/fsl_lpuart.c:1135:42
	lw	a2, -12(s0)
	.loc	7 1135 100                      # C:/Vega/rv32m1_sdk_riscv/devices/RV32M1/drivers/fsl_lpuart.c:1135:100
	lw	a3, 40(a0)
	addi	a4, zero, 1308
	.loc	7 1135 25                       # C:/Vega/rv32m1_sdk_riscv/devices/RV32M1/drivers/fsl_lpuart.c:1135:25
	sw	a0, -72(s0)
	mv	a0, a2
	lw	a2, -72(s0)
	sw	a1, -76(s0)
	mv	a1, a2
	mv	a2, a4
	lw	a4, -76(s0)
	jalr	a4
	.loc	7 1136 21 is_stmt 1             # C:/Vega/rv32m1_sdk_riscv/devices/RV32M1/drivers/fsl_lpuart.c:1136:21
	j	.LBB16_47
.Ltmp194:
.LBB16_47:                              # %if.end129
                                        #   in Loop: Header=BB16_43 Depth=1
	.loc	7 1137 17                       # C:/Vega/rv32m1_sdk_riscv/devices/RV32M1/drivers/fsl_lpuart.c:1137:17
	j	.LBB16_48
.Ltmp195:
.LBB16_48:                              # %if.end130
                                        #   in Loop: Header=BB16_43 Depth=1
	.loc	7 1140 55                       # C:/Vega/rv32m1_sdk_riscv/devices/RV32M1/drivers/fsl_lpuart.c:1140:55
	lw	a0, -12(s0)
	.loc	7 1140 61 is_stmt 0             # C:/Vega/rv32m1_sdk_riscv/devices/RV32M1/drivers/fsl_lpuart.c:1140:61
	lw	a1, -16(s0)
	.loc	7 1140 21                       # C:/Vega/rv32m1_sdk_riscv/devices/RV32M1/drivers/fsl_lpuart.c:1140:21
	call	LPUART_TransferIsRxRingBufferFull
	mv	a1, zero
.Ltmp196:
	.loc	7 1140 21                       # C:/Vega/rv32m1_sdk_riscv/devices/RV32M1/drivers/fsl_lpuart.c:1140:21
	beq	a0, a1, .LBB16_53
	j	.LBB16_49
.LBB16_49:                              # %if.then132
                                        #   in Loop: Header=BB16_43 Depth=1
.Ltmp197:
	.loc	7 1143 25 is_stmt 1             # C:/Vega/rv32m1_sdk_riscv/devices/RV32M1/drivers/fsl_lpuart.c:1143:25
	lw	a0, -16(s0)
	.loc	7 1143 33 is_stmt 0             # C:/Vega/rv32m1_sdk_riscv/devices/RV32M1/drivers/fsl_lpuart.c:1143:33
	lhu	a0, 34(a0)
	.loc	7 1143 50                       # C:/Vega/rv32m1_sdk_riscv/devices/RV32M1/drivers/fsl_lpuart.c:1143:50
	addi	a0, a0, 1
	.loc	7 1143 58                       # C:/Vega/rv32m1_sdk_riscv/devices/RV32M1/drivers/fsl_lpuart.c:1143:58
	lw	a1, -16(s0)
	.loc	7 1143 66                       # C:/Vega/rv32m1_sdk_riscv/devices/RV32M1/drivers/fsl_lpuart.c:1143:66
	lw	a1, 28(a1)
.Ltmp198:
	.loc	7 1143 25                       # C:/Vega/rv32m1_sdk_riscv/devices/RV32M1/drivers/fsl_lpuart.c:1143:25
	bne	a0, a1, .LBB16_51
	j	.LBB16_50
.LBB16_50:                              # %if.then136
                                        #   in Loop: Header=BB16_43 Depth=1
.Ltmp199:
	.loc	7 1145 25 is_stmt 1             # C:/Vega/rv32m1_sdk_riscv/devices/RV32M1/drivers/fsl_lpuart.c:1145:25
	lw	a0, -16(s0)
	mv	a1, zero
	.loc	7 1145 50 is_stmt 0             # C:/Vega/rv32m1_sdk_riscv/devices/RV32M1/drivers/fsl_lpuart.c:1145:50
	sh	a1, 34(a0)
	.loc	7 1146 21 is_stmt 1             # C:/Vega/rv32m1_sdk_riscv/devices/RV32M1/drivers/fsl_lpuart.c:1146:21
	j	.LBB16_52
.Ltmp200:
.LBB16_51:                              # %if.else
                                        #   in Loop: Header=BB16_43 Depth=1
	.loc	7 1149 25                       # C:/Vega/rv32m1_sdk_riscv/devices/RV32M1/drivers/fsl_lpuart.c:1149:25
	lw	a0, -16(s0)
	.loc	7 1149 49 is_stmt 0             # C:/Vega/rv32m1_sdk_riscv/devices/RV32M1/drivers/fsl_lpuart.c:1149:49
	lh	a1, 34(a0)
	addi	a1, a1, 1
	sh	a1, 34(a0)
	j	.LBB16_52
.Ltmp201:
.LBB16_52:                              # %if.end139
                                        #   in Loop: Header=BB16_43 Depth=1
	.loc	7 1151 17 is_stmt 1             # C:/Vega/rv32m1_sdk_riscv/devices/RV32M1/drivers/fsl_lpuart.c:1151:17
	j	.LBB16_53
.Ltmp202:
.LBB16_53:                              # %if.end140
                                        #   in Loop: Header=BB16_43 Depth=1
	.loc	7 1155 21                       # C:/Vega/rv32m1_sdk_riscv/devices/RV32M1/drivers/fsl_lpuart.c:1155:21
	lw	a0, -16(s0)
	.loc	7 1155 29 is_stmt 0             # C:/Vega/rv32m1_sdk_riscv/devices/RV32M1/drivers/fsl_lpuart.c:1155:29
	lbu	a0, 46(a0)
	andi	a0, a0, 1
	mv	a1, zero
.Ltmp203:
	.loc	7 1155 21                       # C:/Vega/rv32m1_sdk_riscv/devices/RV32M1/drivers/fsl_lpuart.c:1155:21
	beq	a0, a1, .LBB16_55
	j	.LBB16_54
.LBB16_54:                              # %if.then142
                                        #   in Loop: Header=BB16_43 Depth=1
.Ltmp204:
	.loc	7 1157 71 is_stmt 1             # C:/Vega/rv32m1_sdk_riscv/devices/RV32M1/drivers/fsl_lpuart.c:1157:71
	lw	a0, -12(s0)
	.loc	7 1157 77 is_stmt 0             # C:/Vega/rv32m1_sdk_riscv/devices/RV32M1/drivers/fsl_lpuart.c:1157:77
	lw	a0, 28(a0)
	.loc	7 1157 82                       # C:/Vega/rv32m1_sdk_riscv/devices/RV32M1/drivers/fsl_lpuart.c:1157:82
	andi	a0, a0, 127
	.loc	7 1157 21                       # C:/Vega/rv32m1_sdk_riscv/devices/RV32M1/drivers/fsl_lpuart.c:1157:21
	lw	a1, -16(s0)
	.loc	7 1157 29                       # C:/Vega/rv32m1_sdk_riscv/devices/RV32M1/drivers/fsl_lpuart.c:1157:29
	lw	a2, 24(a1)
	.loc	7 1157 50                       # C:/Vega/rv32m1_sdk_riscv/devices/RV32M1/drivers/fsl_lpuart.c:1157:50
	lhu	a1, 32(a1)
	.loc	7 1157 21                       # C:/Vega/rv32m1_sdk_riscv/devices/RV32M1/drivers/fsl_lpuart.c:1157:21
	add	a1, a2, a1
	.loc	7 1157 68                       # C:/Vega/rv32m1_sdk_riscv/devices/RV32M1/drivers/fsl_lpuart.c:1157:68
	sb	a0, 0(a1)
	.loc	7 1158 17 is_stmt 1             # C:/Vega/rv32m1_sdk_riscv/devices/RV32M1/drivers/fsl_lpuart.c:1158:17
	j	.LBB16_56
.Ltmp205:
.LBB16_55:                              # %if.else146
                                        #   in Loop: Header=BB16_43 Depth=1
	.loc	7 1161 70                       # C:/Vega/rv32m1_sdk_riscv/devices/RV32M1/drivers/fsl_lpuart.c:1161:70
	lw	a0, -12(s0)
	.loc	7 1161 76 is_stmt 0             # C:/Vega/rv32m1_sdk_riscv/devices/RV32M1/drivers/fsl_lpuart.c:1161:76
	lw	a0, 28(a0)
	.loc	7 1161 21                       # C:/Vega/rv32m1_sdk_riscv/devices/RV32M1/drivers/fsl_lpuart.c:1161:21
	lw	a1, -16(s0)
	.loc	7 1161 29                       # C:/Vega/rv32m1_sdk_riscv/devices/RV32M1/drivers/fsl_lpuart.c:1161:29
	lw	a2, 24(a1)
	.loc	7 1161 50                       # C:/Vega/rv32m1_sdk_riscv/devices/RV32M1/drivers/fsl_lpuart.c:1161:50
	lhu	a1, 32(a1)
	.loc	7 1161 21                       # C:/Vega/rv32m1_sdk_riscv/devices/RV32M1/drivers/fsl_lpuart.c:1161:21
	add	a1, a2, a1
	.loc	7 1161 68                       # C:/Vega/rv32m1_sdk_riscv/devices/RV32M1/drivers/fsl_lpuart.c:1161:68
	sb	a0, 0(a1)
	j	.LBB16_56
.Ltmp206:
.LBB16_56:                              # %if.end153
                                        #   in Loop: Header=BB16_43 Depth=1
	.loc	7 1168 21 is_stmt 1             # C:/Vega/rv32m1_sdk_riscv/devices/RV32M1/drivers/fsl_lpuart.c:1168:21
	lw	a0, -16(s0)
	.loc	7 1168 29 is_stmt 0             # C:/Vega/rv32m1_sdk_riscv/devices/RV32M1/drivers/fsl_lpuart.c:1168:29
	lhu	a0, 32(a0)
	.loc	7 1168 46                       # C:/Vega/rv32m1_sdk_riscv/devices/RV32M1/drivers/fsl_lpuart.c:1168:46
	addi	a0, a0, 1
	.loc	7 1168 54                       # C:/Vega/rv32m1_sdk_riscv/devices/RV32M1/drivers/fsl_lpuart.c:1168:54
	lw	a1, -16(s0)
	.loc	7 1168 62                       # C:/Vega/rv32m1_sdk_riscv/devices/RV32M1/drivers/fsl_lpuart.c:1168:62
	lw	a1, 28(a1)
.Ltmp207:
	.loc	7 1168 21                       # C:/Vega/rv32m1_sdk_riscv/devices/RV32M1/drivers/fsl_lpuart.c:1168:21
	bne	a0, a1, .LBB16_58
	j	.LBB16_57
.LBB16_57:                              # %if.then160
                                        #   in Loop: Header=BB16_43 Depth=1
.Ltmp208:
	.loc	7 1170 21 is_stmt 1             # C:/Vega/rv32m1_sdk_riscv/devices/RV32M1/drivers/fsl_lpuart.c:1170:21
	lw	a0, -16(s0)
	mv	a1, zero
	.loc	7 1170 46 is_stmt 0             # C:/Vega/rv32m1_sdk_riscv/devices/RV32M1/drivers/fsl_lpuart.c:1170:46
	sh	a1, 32(a0)
	.loc	7 1171 17 is_stmt 1             # C:/Vega/rv32m1_sdk_riscv/devices/RV32M1/drivers/fsl_lpuart.c:1171:17
	j	.LBB16_59
.Ltmp209:
.LBB16_58:                              # %if.else162
                                        #   in Loop: Header=BB16_43 Depth=1
	.loc	7 1174 21                       # C:/Vega/rv32m1_sdk_riscv/devices/RV32M1/drivers/fsl_lpuart.c:1174:21
	lw	a0, -16(s0)
	.loc	7 1174 45 is_stmt 0             # C:/Vega/rv32m1_sdk_riscv/devices/RV32M1/drivers/fsl_lpuart.c:1174:45
	lh	a1, 32(a0)
	addi	a1, a1, 1
	sh	a1, 32(a0)
	j	.LBB16_59
.Ltmp210:
.LBB16_59:                              # %if.end165
                                        #   in Loop: Header=BB16_43 Depth=1
	.loc	7 1128 13 is_stmt 1             # C:/Vega/rv32m1_sdk_riscv/devices/RV32M1/drivers/fsl_lpuart.c:1128:13
	j	.LBB16_43
.LBB16_60:                              # %while.end166
	.loc	7 1177 9                        # C:/Vega/rv32m1_sdk_riscv/devices/RV32M1/drivers/fsl_lpuart.c:1177:9
	j	.LBB16_65
.Ltmp211:
.LBB16_61:                              # %if.else167
	.loc	7 1179 19                       # C:/Vega/rv32m1_sdk_riscv/devices/RV32M1/drivers/fsl_lpuart.c:1179:19
	lw	a0, -16(s0)
	.loc	7 1179 27 is_stmt 0             # C:/Vega/rv32m1_sdk_riscv/devices/RV32M1/drivers/fsl_lpuart.c:1179:27
	lw	a0, 16(a0)
	mv	a1, zero
.Ltmp212:
	.loc	7 1179 18                       # C:/Vega/rv32m1_sdk_riscv/devices/RV32M1/drivers/fsl_lpuart.c:1179:18
	bne	a0, a1, .LBB16_63
	j	.LBB16_62
.LBB16_62:                              # %if.then170
.Ltmp213:
	.loc	7 1181 38 is_stmt 1             # C:/Vega/rv32m1_sdk_riscv/devices/RV32M1/drivers/fsl_lpuart.c:1181:38
	lw	a0, -12(s0)
	lui	a1, 33280
	.loc	7 1181 13 is_stmt 0             # C:/Vega/rv32m1_sdk_riscv/devices/RV32M1/drivers/fsl_lpuart.c:1181:13
	call	LPUART_DisableInterrupts
	.loc	7 1182 9 is_stmt 1              # C:/Vega/rv32m1_sdk_riscv/devices/RV32M1/drivers/fsl_lpuart.c:1182:9
	j	.LBB16_64
.Ltmp214:
.LBB16_63:                              # %if.else171
	.loc	7 0 9 is_stmt 0                 # C:/Vega/rv32m1_sdk_riscv/devices/RV32M1/drivers/fsl_lpuart.c:0:9
	j	.LBB16_64
.LBB16_64:                              # %if.end172
	j	.LBB16_65
.LBB16_65:                              # %if.end173
	.loc	7 1186 5 is_stmt 1              # C:/Vega/rv32m1_sdk_riscv/devices/RV32M1/drivers/fsl_lpuart.c:1186:5
	j	.LBB16_66
.Ltmp215:
.LBB16_66:                              # %if.end174
	.loc	7 1189 10                       # C:/Vega/rv32m1_sdk_riscv/devices/RV32M1/drivers/fsl_lpuart.c:1189:10
	lw	a0, -12(s0)
	.loc	7 1189 16 is_stmt 0             # C:/Vega/rv32m1_sdk_riscv/devices/RV32M1/drivers/fsl_lpuart.c:1189:16
	lw	a0, 20(a0)
	lui	a1, 2048
	.loc	7 1189 21                       # C:/Vega/rv32m1_sdk_riscv/devices/RV32M1/drivers/fsl_lpuart.c:1189:21
	and	a0, a0, a1
	mv	a1, zero
	.loc	7 1189 36                       # C:/Vega/rv32m1_sdk_riscv/devices/RV32M1/drivers/fsl_lpuart.c:1189:36
	beq	a0, a1, .LBB16_81
	j	.LBB16_67
.LBB16_67:                              # %land.lhs.true178
	.loc	7 1189 40                       # C:/Vega/rv32m1_sdk_riscv/devices/RV32M1/drivers/fsl_lpuart.c:1189:40
	lw	a0, -12(s0)
	.loc	7 1189 46                       # C:/Vega/rv32m1_sdk_riscv/devices/RV32M1/drivers/fsl_lpuart.c:1189:46
	lw	a0, 24(a0)
	lui	a1, 2048
	.loc	7 1189 51                       # C:/Vega/rv32m1_sdk_riscv/devices/RV32M1/drivers/fsl_lpuart.c:1189:51
	and	a0, a0, a1
	mv	a1, zero
.Ltmp216:
	.loc	7 1189 9                        # C:/Vega/rv32m1_sdk_riscv/devices/RV32M1/drivers/fsl_lpuart.c:1189:9
	beq	a0, a1, .LBB16_81
	j	.LBB16_68
.LBB16_68:                              # %if.then182
.Ltmp217:
	.loc	7 1194 19 is_stmt 1             # C:/Vega/rv32m1_sdk_riscv/devices/RV32M1/drivers/fsl_lpuart.c:1194:19
	lw	a0, -12(s0)
	.loc	7 1194 25 is_stmt 0             # C:/Vega/rv32m1_sdk_riscv/devices/RV32M1/drivers/fsl_lpuart.c:1194:25
	lw	a0, 44(a0)
	lui	a1, 1
	addi	a1, a1, -256
	.loc	7 1194 31                       # C:/Vega/rv32m1_sdk_riscv/devices/RV32M1/drivers/fsl_lpuart.c:1194:31
	and	a0, a0, a1
	.loc	7 1194 43                       # C:/Vega/rv32m1_sdk_riscv/devices/RV32M1/drivers/fsl_lpuart.c:1194:43
	srli	a0, a0, 8
	addi	a1, zero, 8
	.loc	7 1193 21 is_stmt 1             # C:/Vega/rv32m1_sdk_riscv/devices/RV32M1/drivers/fsl_lpuart.c:1193:21
	sub	a0, a1, a0
	.loc	7 1193 15 is_stmt 0             # C:/Vega/rv32m1_sdk_riscv/devices/RV32M1/drivers/fsl_lpuart.c:1193:15
	sb	a0, -17(s0)
	.loc	7 1199 9 is_stmt 1              # C:/Vega/rv32m1_sdk_riscv/devices/RV32M1/drivers/fsl_lpuart.c:1199:9
	j	.LBB16_69
.LBB16_69:                              # %while.cond188
                                        # =>This Inner Loop Header: Depth=1
	.loc	7 1199 17 is_stmt 0             # C:/Vega/rv32m1_sdk_riscv/devices/RV32M1/drivers/fsl_lpuart.c:1199:17
	lbu	a0, -17(s0)
	mv	a1, zero
	mv	a2, a1
	.loc	7 1199 24                       # C:/Vega/rv32m1_sdk_riscv/devices/RV32M1/drivers/fsl_lpuart.c:1199:24
	sw	a2, -80(s0)
	beq	a0, a1, .LBB16_71
	j	.LBB16_70
.LBB16_70:                              # %land.rhs191
                                        #   in Loop: Header=BB16_69 Depth=1
	.loc	7 1199 28                       # C:/Vega/rv32m1_sdk_riscv/devices/RV32M1/drivers/fsl_lpuart.c:1199:28
	lw	a0, -16(s0)
	.loc	7 1199 36                       # C:/Vega/rv32m1_sdk_riscv/devices/RV32M1/drivers/fsl_lpuart.c:1199:36
	lw	a0, 4(a0)
	.loc	7 1199 24                       # C:/Vega/rv32m1_sdk_riscv/devices/RV32M1/drivers/fsl_lpuart.c:1199:24
	snez	a0, a0
	sw	a0, -80(s0)
	j	.LBB16_71
.LBB16_71:                              # %land.end193
                                        #   in Loop: Header=BB16_69 Depth=1
	.loc	7 0 0                           # C:/Vega/rv32m1_sdk_riscv/devices/RV32M1/drivers/fsl_lpuart.c:0:0
	lw	a0, -80(s0)
	.loc	7 1199 9                        # C:/Vega/rv32m1_sdk_riscv/devices/RV32M1/drivers/fsl_lpuart.c:1199:9
	andi	a0, a0, 1
	mv	a1, zero
	beq	a0, a1, .LBB16_80
	j	.LBB16_72
.LBB16_72:                              # %while.body194
                                        #   in Loop: Header=BB16_69 Depth=1
.Ltmp218:
	.loc	7 1202 27 is_stmt 1             # C:/Vega/rv32m1_sdk_riscv/devices/RV32M1/drivers/fsl_lpuart.c:1202:27
	lw	a0, -16(s0)
	.loc	7 1202 35 is_stmt 0             # C:/Vega/rv32m1_sdk_riscv/devices/RV32M1/drivers/fsl_lpuart.c:1202:35
	lw	a0, 4(a0)
	.loc	7 1202 50                       # C:/Vega/rv32m1_sdk_riscv/devices/RV32M1/drivers/fsl_lpuart.c:1202:50
	lbu	a1, -17(s0)
	.loc	7 1202 26                       # C:/Vega/rv32m1_sdk_riscv/devices/RV32M1/drivers/fsl_lpuart.c:1202:26
	bgeu	a0, a1, .LBB16_74
	j	.LBB16_73
.LBB16_73:                              # %cond.true199
                                        #   in Loop: Header=BB16_69 Depth=1
	.loc	7 1202 60                       # C:/Vega/rv32m1_sdk_riscv/devices/RV32M1/drivers/fsl_lpuart.c:1202:60
	lw	a0, -16(s0)
	.loc	7 1202 68                       # C:/Vega/rv32m1_sdk_riscv/devices/RV32M1/drivers/fsl_lpuart.c:1202:68
	lw	a0, 4(a0)
	.loc	7 1202 26                       # C:/Vega/rv32m1_sdk_riscv/devices/RV32M1/drivers/fsl_lpuart.c:1202:26
	sw	a0, -84(s0)
	j	.LBB16_75
.LBB16_74:                              # %cond.false201
                                        #   in Loop: Header=BB16_69 Depth=1
	.loc	7 1202 83                       # C:/Vega/rv32m1_sdk_riscv/devices/RV32M1/drivers/fsl_lpuart.c:1202:83
	lbu	a0, -17(s0)
	.loc	7 1202 26                       # C:/Vega/rv32m1_sdk_riscv/devices/RV32M1/drivers/fsl_lpuart.c:1202:26
	sw	a0, -84(s0)
	j	.LBB16_75
.LBB16_75:                              # %cond.end203
                                        #   in Loop: Header=BB16_69 Depth=1
	lw	a0, -84(s0)
	.loc	7 1202 23                       # C:/Vega/rv32m1_sdk_riscv/devices/RV32M1/drivers/fsl_lpuart.c:1202:23
	sb	a0, -18(s0)
	.loc	7 1208 37 is_stmt 1             # C:/Vega/rv32m1_sdk_riscv/devices/RV32M1/drivers/fsl_lpuart.c:1208:37
	lw	a0, -12(s0)
	.loc	7 1208 43 is_stmt 0             # C:/Vega/rv32m1_sdk_riscv/devices/RV32M1/drivers/fsl_lpuart.c:1208:43
	lw	a1, -16(s0)
	.loc	7 1208 51                       # C:/Vega/rv32m1_sdk_riscv/devices/RV32M1/drivers/fsl_lpuart.c:1208:51
	lw	a1, 0(a1)
	.loc	7 1208 59                       # C:/Vega/rv32m1_sdk_riscv/devices/RV32M1/drivers/fsl_lpuart.c:1208:59
	lbu	a2, -18(s0)
	.loc	7 1208 13                       # C:/Vega/rv32m1_sdk_riscv/devices/RV32M1/drivers/fsl_lpuart.c:1208:13
	call	LPUART_WriteNonBlocking
	.loc	7 1209 31 is_stmt 1             # C:/Vega/rv32m1_sdk_riscv/devices/RV32M1/drivers/fsl_lpuart.c:1209:31
	lbu	a0, -18(s0)
	.loc	7 1209 13 is_stmt 0             # C:/Vega/rv32m1_sdk_riscv/devices/RV32M1/drivers/fsl_lpuart.c:1209:13
	lw	a1, -16(s0)
	.loc	7 1209 28                       # C:/Vega/rv32m1_sdk_riscv/devices/RV32M1/drivers/fsl_lpuart.c:1209:28
	lw	a2, 0(a1)
	add	a0, a2, a0
	sw	a0, 0(a1)
	.loc	7 1210 35 is_stmt 1             # C:/Vega/rv32m1_sdk_riscv/devices/RV32M1/drivers/fsl_lpuart.c:1210:35
	lbu	a0, -18(s0)
	.loc	7 1210 13 is_stmt 0             # C:/Vega/rv32m1_sdk_riscv/devices/RV32M1/drivers/fsl_lpuart.c:1210:13
	lw	a1, -16(s0)
	.loc	7 1210 32                       # C:/Vega/rv32m1_sdk_riscv/devices/RV32M1/drivers/fsl_lpuart.c:1210:32
	lw	a2, 4(a1)
	sub	a0, a2, a0
	sw	a0, 4(a1)
	.loc	7 1211 22 is_stmt 1             # C:/Vega/rv32m1_sdk_riscv/devices/RV32M1/drivers/fsl_lpuart.c:1211:22
	lb	a0, -18(s0)
	.loc	7 1211 19 is_stmt 0             # C:/Vega/rv32m1_sdk_riscv/devices/RV32M1/drivers/fsl_lpuart.c:1211:19
	lb	a1, -17(s0)
	sub	a0, a1, a0
	sb	a0, -17(s0)
.Ltmp219:
	.loc	7 1214 18 is_stmt 1             # C:/Vega/rv32m1_sdk_riscv/devices/RV32M1/drivers/fsl_lpuart.c:1214:18
	lw	a0, -16(s0)
	.loc	7 1214 26 is_stmt 0             # C:/Vega/rv32m1_sdk_riscv/devices/RV32M1/drivers/fsl_lpuart.c:1214:26
	lw	a0, 4(a0)
	mv	a1, zero
.Ltmp220:
	.loc	7 1214 17                       # C:/Vega/rv32m1_sdk_riscv/devices/RV32M1/drivers/fsl_lpuart.c:1214:17
	bne	a0, a1, .LBB16_79
	j	.LBB16_76
.LBB16_76:                              # %if.then219
                                        #   in Loop: Header=BB16_69 Depth=1
.Ltmp221:
	.loc	7 1216 17 is_stmt 1             # C:/Vega/rv32m1_sdk_riscv/devices/RV32M1/drivers/fsl_lpuart.c:1216:17
	lw	a0, -16(s0)
	mv	a1, zero
	.loc	7 1216 33 is_stmt 0             # C:/Vega/rv32m1_sdk_riscv/devices/RV32M1/drivers/fsl_lpuart.c:1216:33
	sb	a1, 44(a0)
	.loc	7 1219 31 is_stmt 1             # C:/Vega/rv32m1_sdk_riscv/devices/RV32M1/drivers/fsl_lpuart.c:1219:31
	lw	a0, -12(s0)
	.loc	7 1219 37 is_stmt 0             # C:/Vega/rv32m1_sdk_riscv/devices/RV32M1/drivers/fsl_lpuart.c:1219:37
	lw	a0, 24(a0)
	lui	a2, 1046528
	addi	a2, a2, -1
	.loc	7 1219 42                       # C:/Vega/rv32m1_sdk_riscv/devices/RV32M1/drivers/fsl_lpuart.c:1219:42
	and	a0, a0, a2
	.loc	7 1219 17                       # C:/Vega/rv32m1_sdk_riscv/devices/RV32M1/drivers/fsl_lpuart.c:1219:17
	lw	a2, -12(s0)
	.loc	7 1219 28                       # C:/Vega/rv32m1_sdk_riscv/devices/RV32M1/drivers/fsl_lpuart.c:1219:28
	sw	a0, 24(a2)
.Ltmp222:
	.loc	7 1222 21 is_stmt 1             # C:/Vega/rv32m1_sdk_riscv/devices/RV32M1/drivers/fsl_lpuart.c:1222:21
	lw	a0, -16(s0)
	.loc	7 1222 29 is_stmt 0             # C:/Vega/rv32m1_sdk_riscv/devices/RV32M1/drivers/fsl_lpuart.c:1222:29
	lw	a0, 36(a0)
.Ltmp223:
	.loc	7 1222 21                       # C:/Vega/rv32m1_sdk_riscv/devices/RV32M1/drivers/fsl_lpuart.c:1222:21
	beq	a0, a1, .LBB16_78
	j	.LBB16_77
.LBB16_77:                              # %if.then225
                                        #   in Loop: Header=BB16_69 Depth=1
.Ltmp224:
	.loc	7 1224 21 is_stmt 1             # C:/Vega/rv32m1_sdk_riscv/devices/RV32M1/drivers/fsl_lpuart.c:1224:21
	lw	a0, -16(s0)
	.loc	7 1224 29 is_stmt 0             # C:/Vega/rv32m1_sdk_riscv/devices/RV32M1/drivers/fsl_lpuart.c:1224:29
	lw	a1, 36(a0)
	.loc	7 1224 38                       # C:/Vega/rv32m1_sdk_riscv/devices/RV32M1/drivers/fsl_lpuart.c:1224:38
	lw	a2, -12(s0)
	.loc	7 1224 83                       # C:/Vega/rv32m1_sdk_riscv/devices/RV32M1/drivers/fsl_lpuart.c:1224:83
	lw	a3, 40(a0)
	addi	a4, zero, 1302
	.loc	7 1224 21                       # C:/Vega/rv32m1_sdk_riscv/devices/RV32M1/drivers/fsl_lpuart.c:1224:21
	sw	a0, -88(s0)
	mv	a0, a2
	lw	a2, -88(s0)
	sw	a1, -92(s0)
	mv	a1, a2
	mv	a2, a4
	lw	a4, -92(s0)
	jalr	a4
	.loc	7 1225 17 is_stmt 1             # C:/Vega/rv32m1_sdk_riscv/devices/RV32M1/drivers/fsl_lpuart.c:1225:17
	j	.LBB16_78
.Ltmp225:
.LBB16_78:                              # %if.end228
                                        #   in Loop: Header=BB16_69 Depth=1
	.loc	7 1226 13                       # C:/Vega/rv32m1_sdk_riscv/devices/RV32M1/drivers/fsl_lpuart.c:1226:13
	j	.LBB16_79
.Ltmp226:
.LBB16_79:                              # %if.end229
                                        #   in Loop: Header=BB16_69 Depth=1
	.loc	7 1199 9                        # C:/Vega/rv32m1_sdk_riscv/devices/RV32M1/drivers/fsl_lpuart.c:1199:9
	j	.LBB16_69
.LBB16_80:                              # %while.end230
	.loc	7 1228 5                        # C:/Vega/rv32m1_sdk_riscv/devices/RV32M1/drivers/fsl_lpuart.c:1228:5
	j	.LBB16_81
.Ltmp227:
.LBB16_81:                              # %if.end231
	.loc	7 1229 1                        # C:/Vega/rv32m1_sdk_riscv/devices/RV32M1/drivers/fsl_lpuart.c:1229:1
	lw	s0, 88(sp)
	lw	ra, 92(sp)
	addi	sp, sp, 96
	ret
.Ltmp228:
.Lfunc_end16:
	.size	LPUART_TransferHandleIRQ, .Lfunc_end16-LPUART_TransferHandleIRQ
	.cfi_endproc
                                        # -- End function
	.section	.text.EnableIRQ,"ax",@progbits
	.p2align	2                               # -- Begin function EnableIRQ
	.type	EnableIRQ,@function
EnableIRQ:                              # @EnableIRQ
.Lfunc_begin17:
	.loc	6 311 0                         # C:/Vega/rv32m1_sdk_riscv/boards/rv32m1_vega/rtos_examples/freertos_hello/ri5cy/riscvgcc/../../../../../../devices/RV32M1/drivers/fsl_common.h:311:0
	.cfi_startproc
# %bb.0:                                # %entry
	addi	sp, sp, -16
	.cfi_def_cfa_offset 16
	sw	ra, 12(sp)
	sw	s0, 8(sp)
	.cfi_offset ra, -4
	.cfi_offset s0, -8
	addi	s0, sp, 16
	.cfi_def_cfa s0, 0
	sw	a0, -16(s0)
.Ltmp229:
	.loc	6 312 26 prologue_end           # C:/Vega/rv32m1_sdk_riscv/boards/rv32m1_vega/rtos_examples/freertos_hello/ri5cy/riscvgcc/../../../../../../devices/RV32M1/drivers/fsl_common.h:312:26
	lw	a0, -16(s0)
	addi	a1, zero, -128
.Ltmp230:
	.loc	6 312 9 is_stmt 0               # C:/Vega/rv32m1_sdk_riscv/boards/rv32m1_vega/rtos_examples/freertos_hello/ri5cy/riscvgcc/../../../../../../devices/RV32M1/drivers/fsl_common.h:312:9
	bne	a0, a1, .LBB17_2
	j	.LBB17_1
.LBB17_1:                               # %if.then
	.loc	6 0 9                           # C:/Vega/rv32m1_sdk_riscv/boards/rv32m1_vega/rtos_examples/freertos_hello/ri5cy/riscvgcc/../../../../../../devices/RV32M1/drivers/fsl_common.h:0:9
	addi	a0, zero, 1
.Ltmp231:
	.loc	6 314 9 is_stmt 1               # C:/Vega/rv32m1_sdk_riscv/boards/rv32m1_vega/rtos_examples/freertos_hello/ri5cy/riscvgcc/../../../../../../devices/RV32M1/drivers/fsl_common.h:314:9
	sw	a0, -12(s0)
	j	.LBB17_5
.Ltmp232:
.LBB17_2:                               # %if.end
	.loc	6 318 9                         # C:/Vega/rv32m1_sdk_riscv/boards/rv32m1_vega/rtos_examples/freertos_hello/ri5cy/riscvgcc/../../../../../../devices/RV32M1/drivers/fsl_common.h:318:9
	lw	a0, -16(s0)
	addi	a1, zero, 32
.Ltmp233:
	.loc	6 318 9 is_stmt 0               # C:/Vega/rv32m1_sdk_riscv/boards/rv32m1_vega/rtos_examples/freertos_hello/ri5cy/riscvgcc/../../../../../../devices/RV32M1/drivers/fsl_common.h:318:9
	blt	a0, a1, .LBB17_4
	j	.LBB17_3
.LBB17_3:                               # %if.then2
	.loc	6 0 9                           # C:/Vega/rv32m1_sdk_riscv/boards/rv32m1_vega/rtos_examples/freertos_hello/ri5cy/riscvgcc/../../../../../../devices/RV32M1/drivers/fsl_common.h:0:9
	addi	a0, zero, 1
.Ltmp234:
	.loc	6 320 9 is_stmt 1               # C:/Vega/rv32m1_sdk_riscv/boards/rv32m1_vega/rtos_examples/freertos_hello/ri5cy/riscvgcc/../../../../../../devices/RV32M1/drivers/fsl_common.h:320:9
	sw	a0, -12(s0)
	j	.LBB17_5
.Ltmp235:
.LBB17_4:                               # %if.end3
	.loc	6 325 63                        # C:/Vega/rv32m1_sdk_riscv/boards/rv32m1_vega/rtos_examples/freertos_hello/ri5cy/riscvgcc/../../../../../../devices/RV32M1/drivers/fsl_common.h:325:63
	lw	a0, -16(s0)
	addi	a1, zero, 1
	.loc	6 325 60 is_stmt 0              # C:/Vega/rv32m1_sdk_riscv/boards/rv32m1_vega/rtos_examples/freertos_hello/ri5cy/riscvgcc/../../../../../../devices/RV32M1/drivers/fsl_common.h:325:60
	sll	a0, a1, a0
	lui	a1, 917569
	.loc	6 325 44                        # C:/Vega/rv32m1_sdk_riscv/boards/rv32m1_vega/rtos_examples/freertos_hello/ri5cy/riscvgcc/../../../../../../devices/RV32M1/drivers/fsl_common.h:325:44
	lw	a2, 0(a1)
	or	a0, a2, a0
	sw	a0, 0(a1)
	.loc	6 327 42 is_stmt 1              # C:/Vega/rv32m1_sdk_riscv/boards/rv32m1_vega/rtos_examples/freertos_hello/ri5cy/riscvgcc/../../../../../../devices/RV32M1/drivers/fsl_common.h:327:42
	lw	a0, 0(a1)
	mv	a1, zero
	.loc	6 335 5                         # C:/Vega/rv32m1_sdk_riscv/boards/rv32m1_vega/rtos_examples/freertos_hello/ri5cy/riscvgcc/../../../../../../devices/RV32M1/drivers/fsl_common.h:335:5
	sw	a1, -12(s0)
	j	.LBB17_5
.LBB17_5:                               # %return
	.loc	6 336 1                         # C:/Vega/rv32m1_sdk_riscv/boards/rv32m1_vega/rtos_examples/freertos_hello/ri5cy/riscvgcc/../../../../../../devices/RV32M1/drivers/fsl_common.h:336:1
	lw	a0, -12(s0)
	lw	s0, 8(sp)
	lw	ra, 12(sp)
	addi	sp, sp, 16
	ret
.Ltmp236:
.Lfunc_end17:
	.size	EnableIRQ, .Lfunc_end17-EnableIRQ
	.cfi_endproc
                                        # -- End function
	.section	.text.LPUART_TransferStartRingBuffer,"ax",@progbits
	.globl	LPUART_TransferStartRingBuffer  # -- Begin function LPUART_TransferStartRingBuffer
	.p2align	2
	.type	LPUART_TransferStartRingBuffer,@function
LPUART_TransferStartRingBuffer:         # @LPUART_TransferStartRingBuffer
.Lfunc_begin18:
	.loc	7 794 0                         # C:/Vega/rv32m1_sdk_riscv/devices/RV32M1/drivers/fsl_lpuart.c:794:0
	.cfi_startproc
# %bb.0:                                # %entry
	addi	sp, sp, -32
	.cfi_def_cfa_offset 32
	sw	ra, 28(sp)
	sw	s0, 24(sp)
	.cfi_offset ra, -4
	.cfi_offset s0, -8
	addi	s0, sp, 32
	.cfi_def_cfa s0, 0
	sw	a0, -12(s0)
	sw	a1, -16(s0)
	sw	a2, -20(s0)
	sw	a3, -24(s0)
.Ltmp237:
	.loc	7 795 7 prologue_end            # C:/Vega/rv32m1_sdk_riscv/devices/RV32M1/drivers/fsl_lpuart.c:795:7
	lw	a0, -16(s0)
	mv	a1, zero
	.loc	7 795 6 is_stmt 0               # C:/Vega/rv32m1_sdk_riscv/devices/RV32M1/drivers/fsl_lpuart.c:795:6
	beq	a0, a1, .LBB18_2
	j	.LBB18_1
.LBB18_1:                               # %cond.true
	j	.LBB18_3
.LBB18_2:                               # %cond.false
	.loc	7 795 27                        # C:/Vega/rv32m1_sdk_riscv/devices/RV32M1/drivers/fsl_lpuart.c:795:27
	lui	a0, %hi(.L.str)
	addi	a0, a0, %lo(.L.str)
	lui	a1, %hi(.L__func__.LPUART_TransferStartRingBuffer)
	addi	a2, a1, %lo(.L__func__.LPUART_TransferStartRingBuffer)
	lui	a1, %hi(.L.str.8)
	addi	a3, a1, %lo(.L.str.8)
	addi	a1, zero, 795
	call	__assert_func
.LBB18_3:                               # %cond.end
	.loc	7 796 7 is_stmt 1               # C:/Vega/rv32m1_sdk_riscv/devices/RV32M1/drivers/fsl_lpuart.c:796:7
	lw	a0, -20(s0)
	mv	a1, zero
	.loc	7 796 6 is_stmt 0               # C:/Vega/rv32m1_sdk_riscv/devices/RV32M1/drivers/fsl_lpuart.c:796:6
	beq	a0, a1, .LBB18_5
	j	.LBB18_4
.LBB18_4:                               # %cond.true2
	j	.LBB18_6
.LBB18_5:                               # %cond.false3
	.loc	7 796 31                        # C:/Vega/rv32m1_sdk_riscv/devices/RV32M1/drivers/fsl_lpuart.c:796:31
	lui	a0, %hi(.L.str)
	addi	a0, a0, %lo(.L.str)
	lui	a1, %hi(.L__func__.LPUART_TransferStartRingBuffer)
	addi	a2, a1, %lo(.L__func__.LPUART_TransferStartRingBuffer)
	lui	a1, %hi(.L.str.9)
	addi	a3, a1, %lo(.L.str.9)
	addi	a1, zero, 796
	call	__assert_func
.LBB18_6:                               # %cond.end4
	.loc	7 799 28 is_stmt 1              # C:/Vega/rv32m1_sdk_riscv/devices/RV32M1/drivers/fsl_lpuart.c:799:28
	lw	a0, -20(s0)
	.loc	7 799 5 is_stmt 0               # C:/Vega/rv32m1_sdk_riscv/devices/RV32M1/drivers/fsl_lpuart.c:799:5
	lw	a1, -16(s0)
	.loc	7 799 26                        # C:/Vega/rv32m1_sdk_riscv/devices/RV32M1/drivers/fsl_lpuart.c:799:26
	sw	a0, 24(a1)
	.loc	7 800 32 is_stmt 1              # C:/Vega/rv32m1_sdk_riscv/devices/RV32M1/drivers/fsl_lpuart.c:800:32
	lw	a0, -24(s0)
	.loc	7 800 5 is_stmt 0               # C:/Vega/rv32m1_sdk_riscv/devices/RV32M1/drivers/fsl_lpuart.c:800:5
	lw	a1, -16(s0)
	.loc	7 800 30                        # C:/Vega/rv32m1_sdk_riscv/devices/RV32M1/drivers/fsl_lpuart.c:800:30
	sw	a0, 28(a1)
	.loc	7 801 5 is_stmt 1               # C:/Vega/rv32m1_sdk_riscv/devices/RV32M1/drivers/fsl_lpuart.c:801:5
	lw	a0, -16(s0)
	mv	a1, zero
	.loc	7 801 30 is_stmt 0              # C:/Vega/rv32m1_sdk_riscv/devices/RV32M1/drivers/fsl_lpuart.c:801:30
	sh	a1, 32(a0)
	.loc	7 802 5 is_stmt 1               # C:/Vega/rv32m1_sdk_riscv/devices/RV32M1/drivers/fsl_lpuart.c:802:5
	lw	a0, -16(s0)
	.loc	7 802 30 is_stmt 0              # C:/Vega/rv32m1_sdk_riscv/devices/RV32M1/drivers/fsl_lpuart.c:802:30
	sh	a1, 34(a0)
	.loc	7 805 29 is_stmt 1              # C:/Vega/rv32m1_sdk_riscv/devices/RV32M1/drivers/fsl_lpuart.c:805:29
	lw	a0, -12(s0)
	lui	a1, 33280
	.loc	7 805 5 is_stmt 0               # C:/Vega/rv32m1_sdk_riscv/devices/RV32M1/drivers/fsl_lpuart.c:805:5
	call	LPUART_EnableInterrupts
	.loc	7 806 1 is_stmt 1               # C:/Vega/rv32m1_sdk_riscv/devices/RV32M1/drivers/fsl_lpuart.c:806:1
	lw	s0, 24(sp)
	lw	ra, 28(sp)
	addi	sp, sp, 32
	ret
.Ltmp238:
.Lfunc_end18:
	.size	LPUART_TransferStartRingBuffer, .Lfunc_end18-LPUART_TransferStartRingBuffer
	.cfi_endproc
                                        # -- End function
	.section	.text.LPUART_TransferStopRingBuffer,"ax",@progbits
	.globl	LPUART_TransferStopRingBuffer   # -- Begin function LPUART_TransferStopRingBuffer
	.p2align	2
	.type	LPUART_TransferStopRingBuffer,@function
LPUART_TransferStopRingBuffer:          # @LPUART_TransferStopRingBuffer
.Lfunc_begin19:
	.loc	7 809 0                         # C:/Vega/rv32m1_sdk_riscv/devices/RV32M1/drivers/fsl_lpuart.c:809:0
	.cfi_startproc
# %bb.0:                                # %entry
	addi	sp, sp, -16
	.cfi_def_cfa_offset 16
	sw	ra, 12(sp)
	sw	s0, 8(sp)
	.cfi_offset ra, -4
	.cfi_offset s0, -8
	addi	s0, sp, 16
	.cfi_def_cfa s0, 0
	sw	a0, -12(s0)
	sw	a1, -16(s0)
.Ltmp239:
	.loc	7 810 7 prologue_end            # C:/Vega/rv32m1_sdk_riscv/devices/RV32M1/drivers/fsl_lpuart.c:810:7
	lw	a0, -16(s0)
	mv	a1, zero
	.loc	7 810 6 is_stmt 0               # C:/Vega/rv32m1_sdk_riscv/devices/RV32M1/drivers/fsl_lpuart.c:810:6
	beq	a0, a1, .LBB19_2
	j	.LBB19_1
.LBB19_1:                               # %cond.true
	j	.LBB19_3
.LBB19_2:                               # %cond.false
	.loc	7 810 27                        # C:/Vega/rv32m1_sdk_riscv/devices/RV32M1/drivers/fsl_lpuart.c:810:27
	lui	a0, %hi(.L.str)
	addi	a0, a0, %lo(.L.str)
	lui	a1, %hi(.L__func__.LPUART_TransferStopRingBuffer)
	addi	a2, a1, %lo(.L__func__.LPUART_TransferStopRingBuffer)
	lui	a1, %hi(.L.str.8)
	addi	a3, a1, %lo(.L.str.8)
	addi	a1, zero, 810
	call	__assert_func
.LBB19_3:                               # %cond.end
.Ltmp240:
	.loc	7 812 9 is_stmt 1               # C:/Vega/rv32m1_sdk_riscv/devices/RV32M1/drivers/fsl_lpuart.c:812:9
	lw	a0, -16(s0)
	.loc	7 812 17 is_stmt 0              # C:/Vega/rv32m1_sdk_riscv/devices/RV32M1/drivers/fsl_lpuart.c:812:17
	lbu	a0, 45(a0)
	addi	a1, zero, 2
.Ltmp241:
	.loc	7 812 9                         # C:/Vega/rv32m1_sdk_riscv/devices/RV32M1/drivers/fsl_lpuart.c:812:9
	bne	a0, a1, .LBB19_5
	j	.LBB19_4
.LBB19_4:                               # %if.then
.Ltmp242:
	.loc	7 814 34 is_stmt 1              # C:/Vega/rv32m1_sdk_riscv/devices/RV32M1/drivers/fsl_lpuart.c:814:34
	lw	a0, -12(s0)
	lui	a1, 33280
	.loc	7 814 9 is_stmt 0               # C:/Vega/rv32m1_sdk_riscv/devices/RV32M1/drivers/fsl_lpuart.c:814:9
	call	LPUART_DisableInterrupts
	.loc	7 815 5 is_stmt 1               # C:/Vega/rv32m1_sdk_riscv/devices/RV32M1/drivers/fsl_lpuart.c:815:5
	j	.LBB19_5
.Ltmp243:
.LBB19_5:                               # %if.end
	.loc	7 817 5                         # C:/Vega/rv32m1_sdk_riscv/devices/RV32M1/drivers/fsl_lpuart.c:817:5
	lw	a0, -16(s0)
	mv	a1, zero
	.loc	7 817 26 is_stmt 0              # C:/Vega/rv32m1_sdk_riscv/devices/RV32M1/drivers/fsl_lpuart.c:817:26
	sw	a1, 24(a0)
	.loc	7 818 5 is_stmt 1               # C:/Vega/rv32m1_sdk_riscv/devices/RV32M1/drivers/fsl_lpuart.c:818:5
	lw	a0, -16(s0)
	.loc	7 818 30 is_stmt 0              # C:/Vega/rv32m1_sdk_riscv/devices/RV32M1/drivers/fsl_lpuart.c:818:30
	sw	a1, 28(a0)
	.loc	7 819 5 is_stmt 1               # C:/Vega/rv32m1_sdk_riscv/devices/RV32M1/drivers/fsl_lpuart.c:819:5
	lw	a0, -16(s0)
	.loc	7 819 30 is_stmt 0              # C:/Vega/rv32m1_sdk_riscv/devices/RV32M1/drivers/fsl_lpuart.c:819:30
	sh	a1, 32(a0)
	.loc	7 820 5 is_stmt 1               # C:/Vega/rv32m1_sdk_riscv/devices/RV32M1/drivers/fsl_lpuart.c:820:5
	lw	a0, -16(s0)
	.loc	7 820 30 is_stmt 0              # C:/Vega/rv32m1_sdk_riscv/devices/RV32M1/drivers/fsl_lpuart.c:820:30
	sh	a1, 34(a0)
	.loc	7 821 1 is_stmt 1               # C:/Vega/rv32m1_sdk_riscv/devices/RV32M1/drivers/fsl_lpuart.c:821:1
	lw	s0, 8(sp)
	lw	ra, 12(sp)
	addi	sp, sp, 16
	ret
.Ltmp244:
.Lfunc_end19:
	.size	LPUART_TransferStopRingBuffer, .Lfunc_end19-LPUART_TransferStopRingBuffer
	.cfi_endproc
                                        # -- End function
	.section	.text.LPUART_TransferSendNonBlocking,"ax",@progbits
	.globl	LPUART_TransferSendNonBlocking  # -- Begin function LPUART_TransferSendNonBlocking
	.p2align	2
	.type	LPUART_TransferSendNonBlocking,@function
LPUART_TransferSendNonBlocking:         # @LPUART_TransferSendNonBlocking
.Lfunc_begin20:
	.loc	7 824 0                         # C:/Vega/rv32m1_sdk_riscv/devices/RV32M1/drivers/fsl_lpuart.c:824:0
	.cfi_startproc
# %bb.0:                                # %entry
	addi	sp, sp, -32
	.cfi_def_cfa_offset 32
	sw	ra, 28(sp)
	sw	s0, 24(sp)
	.cfi_offset ra, -4
	.cfi_offset s0, -8
	addi	s0, sp, 32
	.cfi_def_cfa s0, 0
	sw	a0, -12(s0)
	sw	a1, -16(s0)
	sw	a2, -20(s0)
.Ltmp245:
	.loc	7 825 7 prologue_end            # C:/Vega/rv32m1_sdk_riscv/devices/RV32M1/drivers/fsl_lpuart.c:825:7
	lw	a0, -16(s0)
	mv	a1, zero
	.loc	7 825 6 is_stmt 0               # C:/Vega/rv32m1_sdk_riscv/devices/RV32M1/drivers/fsl_lpuart.c:825:6
	beq	a0, a1, .LBB20_2
	j	.LBB20_1
.LBB20_1:                               # %cond.true
	j	.LBB20_3
.LBB20_2:                               # %cond.false
	.loc	7 825 27                        # C:/Vega/rv32m1_sdk_riscv/devices/RV32M1/drivers/fsl_lpuart.c:825:27
	lui	a0, %hi(.L.str)
	addi	a0, a0, %lo(.L.str)
	lui	a1, %hi(.L__func__.LPUART_TransferSendNonBlocking)
	addi	a2, a1, %lo(.L__func__.LPUART_TransferSendNonBlocking)
	lui	a1, %hi(.L.str.8)
	addi	a3, a1, %lo(.L.str.8)
	addi	a1, zero, 825
	call	__assert_func
.LBB20_3:                               # %cond.end
	.loc	7 826 7 is_stmt 1               # C:/Vega/rv32m1_sdk_riscv/devices/RV32M1/drivers/fsl_lpuart.c:826:7
	lw	a0, -20(s0)
	mv	a1, zero
	.loc	7 826 6 is_stmt 0               # C:/Vega/rv32m1_sdk_riscv/devices/RV32M1/drivers/fsl_lpuart.c:826:6
	beq	a0, a1, .LBB20_5
	j	.LBB20_4
.LBB20_4:                               # %cond.true2
	j	.LBB20_6
.LBB20_5:                               # %cond.false3
	.loc	7 826 25                        # C:/Vega/rv32m1_sdk_riscv/devices/RV32M1/drivers/fsl_lpuart.c:826:25
	lui	a0, %hi(.L.str)
	addi	a0, a0, %lo(.L.str)
	lui	a1, %hi(.L__func__.LPUART_TransferSendNonBlocking)
	addi	a2, a1, %lo(.L__func__.LPUART_TransferSendNonBlocking)
	lui	a1, %hi(.L.str.10)
	addi	a3, a1, %lo(.L.str.10)
	addi	a1, zero, 826
	call	__assert_func
.LBB20_6:                               # %cond.end4
	.loc	7 827 7 is_stmt 1               # C:/Vega/rv32m1_sdk_riscv/devices/RV32M1/drivers/fsl_lpuart.c:827:7
	lw	a0, -20(s0)
	.loc	7 827 13 is_stmt 0              # C:/Vega/rv32m1_sdk_riscv/devices/RV32M1/drivers/fsl_lpuart.c:827:13
	lw	a0, 0(a0)
	mv	a1, zero
	.loc	7 827 6                         # C:/Vega/rv32m1_sdk_riscv/devices/RV32M1/drivers/fsl_lpuart.c:827:6
	beq	a0, a1, .LBB20_8
	j	.LBB20_7
.LBB20_7:                               # %cond.true6
	j	.LBB20_9
.LBB20_8:                               # %cond.false7
	.loc	7 827 31                        # C:/Vega/rv32m1_sdk_riscv/devices/RV32M1/drivers/fsl_lpuart.c:827:31
	lui	a0, %hi(.L.str)
	addi	a0, a0, %lo(.L.str)
	lui	a1, %hi(.L__func__.LPUART_TransferSendNonBlocking)
	addi	a2, a1, %lo(.L__func__.LPUART_TransferSendNonBlocking)
	lui	a1, %hi(.L.str.11)
	addi	a3, a1, %lo(.L.str.11)
	addi	a1, zero, 827
	call	__assert_func
.LBB20_9:                               # %cond.end8
	.loc	7 828 7 is_stmt 1               # C:/Vega/rv32m1_sdk_riscv/devices/RV32M1/drivers/fsl_lpuart.c:828:7
	lw	a0, -20(s0)
	.loc	7 828 13 is_stmt 0              # C:/Vega/rv32m1_sdk_riscv/devices/RV32M1/drivers/fsl_lpuart.c:828:13
	lw	a0, 4(a0)
	mv	a1, zero
	.loc	7 828 6                         # C:/Vega/rv32m1_sdk_riscv/devices/RV32M1/drivers/fsl_lpuart.c:828:6
	beq	a0, a1, .LBB20_11
	j	.LBB20_10
.LBB20_10:                              # %cond.true10
	j	.LBB20_12
.LBB20_11:                              # %cond.false11
	.loc	7 828 35                        # C:/Vega/rv32m1_sdk_riscv/devices/RV32M1/drivers/fsl_lpuart.c:828:35
	lui	a0, %hi(.L.str)
	addi	a0, a0, %lo(.L.str)
	lui	a1, %hi(.L__func__.LPUART_TransferSendNonBlocking)
	addi	a2, a1, %lo(.L__func__.LPUART_TransferSendNonBlocking)
	lui	a1, %hi(.L.str.12)
	addi	a3, a1, %lo(.L.str.12)
	addi	a1, zero, 828
	call	__assert_func
.LBB20_12:                              # %cond.end12
.Ltmp246:
	.loc	7 833 27 is_stmt 1              # C:/Vega/rv32m1_sdk_riscv/devices/RV32M1/drivers/fsl_lpuart.c:833:27
	lw	a0, -16(s0)
	.loc	7 833 35 is_stmt 0              # C:/Vega/rv32m1_sdk_riscv/devices/RV32M1/drivers/fsl_lpuart.c:833:35
	lbu	a0, 44(a0)
	addi	a1, zero, 1
.Ltmp247:
	.loc	7 833 9                         # C:/Vega/rv32m1_sdk_riscv/devices/RV32M1/drivers/fsl_lpuart.c:833:9
	bne	a0, a1, .LBB20_14
	j	.LBB20_13
.LBB20_13:                              # %if.then
	.loc	7 0 9                           # C:/Vega/rv32m1_sdk_riscv/devices/RV32M1/drivers/fsl_lpuart.c:0:9
	addi	a0, zero, 1300
.Ltmp248:
	.loc	7 835 16 is_stmt 1              # C:/Vega/rv32m1_sdk_riscv/devices/RV32M1/drivers/fsl_lpuart.c:835:16
	sw	a0, -24(s0)
	.loc	7 836 5                         # C:/Vega/rv32m1_sdk_riscv/devices/RV32M1/drivers/fsl_lpuart.c:836:5
	j	.LBB20_15
.Ltmp249:
.LBB20_14:                              # %if.else
	.loc	7 839 26                        # C:/Vega/rv32m1_sdk_riscv/devices/RV32M1/drivers/fsl_lpuart.c:839:26
	lw	a0, -20(s0)
	.loc	7 839 32 is_stmt 0              # C:/Vega/rv32m1_sdk_riscv/devices/RV32M1/drivers/fsl_lpuart.c:839:32
	lw	a0, 0(a0)
	.loc	7 839 9                         # C:/Vega/rv32m1_sdk_riscv/devices/RV32M1/drivers/fsl_lpuart.c:839:9
	lw	a1, -16(s0)
	.loc	7 839 24                        # C:/Vega/rv32m1_sdk_riscv/devices/RV32M1/drivers/fsl_lpuart.c:839:24
	sw	a0, 0(a1)
	.loc	7 840 30 is_stmt 1              # C:/Vega/rv32m1_sdk_riscv/devices/RV32M1/drivers/fsl_lpuart.c:840:30
	lw	a0, -20(s0)
	.loc	7 840 36 is_stmt 0              # C:/Vega/rv32m1_sdk_riscv/devices/RV32M1/drivers/fsl_lpuart.c:840:36
	lw	a0, 4(a0)
	.loc	7 840 9                         # C:/Vega/rv32m1_sdk_riscv/devices/RV32M1/drivers/fsl_lpuart.c:840:9
	lw	a1, -16(s0)
	.loc	7 840 28                        # C:/Vega/rv32m1_sdk_riscv/devices/RV32M1/drivers/fsl_lpuart.c:840:28
	sw	a0, 4(a1)
	.loc	7 841 33 is_stmt 1              # C:/Vega/rv32m1_sdk_riscv/devices/RV32M1/drivers/fsl_lpuart.c:841:33
	lw	a0, -20(s0)
	.loc	7 841 39 is_stmt 0              # C:/Vega/rv32m1_sdk_riscv/devices/RV32M1/drivers/fsl_lpuart.c:841:39
	lw	a0, 4(a0)
	.loc	7 841 9                         # C:/Vega/rv32m1_sdk_riscv/devices/RV32M1/drivers/fsl_lpuart.c:841:9
	lw	a1, -16(s0)
	.loc	7 841 31                        # C:/Vega/rv32m1_sdk_riscv/devices/RV32M1/drivers/fsl_lpuart.c:841:31
	sw	a0, 8(a1)
	.loc	7 842 9 is_stmt 1               # C:/Vega/rv32m1_sdk_riscv/devices/RV32M1/drivers/fsl_lpuart.c:842:9
	lw	a0, -16(s0)
	addi	a1, zero, 1
	.loc	7 842 25 is_stmt 0              # C:/Vega/rv32m1_sdk_riscv/devices/RV32M1/drivers/fsl_lpuart.c:842:25
	sb	a1, 44(a0)
	.loc	7 845 33 is_stmt 1              # C:/Vega/rv32m1_sdk_riscv/devices/RV32M1/drivers/fsl_lpuart.c:845:33
	lw	a0, -12(s0)
	lui	a1, 2048
	.loc	7 845 9 is_stmt 0               # C:/Vega/rv32m1_sdk_riscv/devices/RV32M1/drivers/fsl_lpuart.c:845:9
	call	LPUART_EnableInterrupts
	mv	a0, zero
	.loc	7 847 16 is_stmt 1              # C:/Vega/rv32m1_sdk_riscv/devices/RV32M1/drivers/fsl_lpuart.c:847:16
	sw	a0, -24(s0)
	j	.LBB20_15
.Ltmp250:
.LBB20_15:                              # %if.end
	.loc	7 850 12                        # C:/Vega/rv32m1_sdk_riscv/devices/RV32M1/drivers/fsl_lpuart.c:850:12
	lw	a0, -24(s0)
	.loc	7 850 5 is_stmt 0               # C:/Vega/rv32m1_sdk_riscv/devices/RV32M1/drivers/fsl_lpuart.c:850:5
	lw	s0, 24(sp)
	lw	ra, 28(sp)
	addi	sp, sp, 32
	ret
.Ltmp251:
.Lfunc_end20:
	.size	LPUART_TransferSendNonBlocking, .Lfunc_end20-LPUART_TransferSendNonBlocking
	.cfi_endproc
                                        # -- End function
	.section	.text.LPUART_TransferAbortSend,"ax",@progbits
	.globl	LPUART_TransferAbortSend        # -- Begin function LPUART_TransferAbortSend
	.p2align	2
	.type	LPUART_TransferAbortSend,@function
LPUART_TransferAbortSend:               # @LPUART_TransferAbortSend
.Lfunc_begin21:
	.loc	7 854 0 is_stmt 1               # C:/Vega/rv32m1_sdk_riscv/devices/RV32M1/drivers/fsl_lpuart.c:854:0
	.cfi_startproc
# %bb.0:                                # %entry
	addi	sp, sp, -16
	.cfi_def_cfa_offset 16
	sw	ra, 12(sp)
	sw	s0, 8(sp)
	.cfi_offset ra, -4
	.cfi_offset s0, -8
	addi	s0, sp, 16
	.cfi_def_cfa s0, 0
	sw	a0, -12(s0)
	sw	a1, -16(s0)
.Ltmp252:
	.loc	7 855 7 prologue_end            # C:/Vega/rv32m1_sdk_riscv/devices/RV32M1/drivers/fsl_lpuart.c:855:7
	lw	a0, -16(s0)
	mv	a1, zero
	.loc	7 855 6 is_stmt 0               # C:/Vega/rv32m1_sdk_riscv/devices/RV32M1/drivers/fsl_lpuart.c:855:6
	beq	a0, a1, .LBB21_2
	j	.LBB21_1
.LBB21_1:                               # %cond.true
	j	.LBB21_3
.LBB21_2:                               # %cond.false
	.loc	7 855 27                        # C:/Vega/rv32m1_sdk_riscv/devices/RV32M1/drivers/fsl_lpuart.c:855:27
	lui	a0, %hi(.L.str)
	addi	a0, a0, %lo(.L.str)
	lui	a1, %hi(.L__func__.LPUART_TransferAbortSend)
	addi	a2, a1, %lo(.L__func__.LPUART_TransferAbortSend)
	lui	a1, %hi(.L.str.8)
	addi	a3, a1, %lo(.L.str.8)
	addi	a1, zero, 855
	call	__assert_func
.LBB21_3:                               # %cond.end
	.loc	7 857 30 is_stmt 1              # C:/Vega/rv32m1_sdk_riscv/devices/RV32M1/drivers/fsl_lpuart.c:857:30
	lw	a0, -12(s0)
	lui	a1, 3072
	.loc	7 857 5 is_stmt 0               # C:/Vega/rv32m1_sdk_riscv/devices/RV32M1/drivers/fsl_lpuart.c:857:5
	call	LPUART_DisableInterrupts
	.loc	7 859 5 is_stmt 1               # C:/Vega/rv32m1_sdk_riscv/devices/RV32M1/drivers/fsl_lpuart.c:859:5
	lw	a0, -16(s0)
	mv	a1, zero
	.loc	7 859 24 is_stmt 0              # C:/Vega/rv32m1_sdk_riscv/devices/RV32M1/drivers/fsl_lpuart.c:859:24
	sw	a1, 4(a0)
	.loc	7 860 5 is_stmt 1               # C:/Vega/rv32m1_sdk_riscv/devices/RV32M1/drivers/fsl_lpuart.c:860:5
	lw	a0, -16(s0)
	.loc	7 860 21 is_stmt 0              # C:/Vega/rv32m1_sdk_riscv/devices/RV32M1/drivers/fsl_lpuart.c:860:21
	sb	a1, 44(a0)
	.loc	7 861 1 is_stmt 1               # C:/Vega/rv32m1_sdk_riscv/devices/RV32M1/drivers/fsl_lpuart.c:861:1
	lw	s0, 8(sp)
	lw	ra, 12(sp)
	addi	sp, sp, 16
	ret
.Ltmp253:
.Lfunc_end21:
	.size	LPUART_TransferAbortSend, .Lfunc_end21-LPUART_TransferAbortSend
	.cfi_endproc
                                        # -- End function
	.section	.text.LPUART_TransferGetSendCount,"ax",@progbits
	.globl	LPUART_TransferGetSendCount     # -- Begin function LPUART_TransferGetSendCount
	.p2align	2
	.type	LPUART_TransferGetSendCount,@function
LPUART_TransferGetSendCount:            # @LPUART_TransferGetSendCount
.Lfunc_begin22:
	.loc	7 864 0                         # C:/Vega/rv32m1_sdk_riscv/devices/RV32M1/drivers/fsl_lpuart.c:864:0
	.cfi_startproc
# %bb.0:                                # %entry
	addi	sp, sp, -32
	.cfi_def_cfa_offset 32
	sw	ra, 28(sp)
	sw	s0, 24(sp)
	.cfi_offset ra, -4
	.cfi_offset s0, -8
	addi	s0, sp, 32
	.cfi_def_cfa s0, 0
	sw	a0, -16(s0)
	sw	a1, -20(s0)
	sw	a2, -24(s0)
.Ltmp254:
	.loc	7 865 7 prologue_end            # C:/Vega/rv32m1_sdk_riscv/devices/RV32M1/drivers/fsl_lpuart.c:865:7
	lw	a0, -20(s0)
	mv	a1, zero
	.loc	7 865 6 is_stmt 0               # C:/Vega/rv32m1_sdk_riscv/devices/RV32M1/drivers/fsl_lpuart.c:865:6
	beq	a0, a1, .LBB22_2
	j	.LBB22_1
.LBB22_1:                               # %cond.true
	j	.LBB22_3
.LBB22_2:                               # %cond.false
	.loc	7 865 27                        # C:/Vega/rv32m1_sdk_riscv/devices/RV32M1/drivers/fsl_lpuart.c:865:27
	lui	a0, %hi(.L.str)
	addi	a0, a0, %lo(.L.str)
	lui	a1, %hi(.L__func__.LPUART_TransferGetSendCount)
	addi	a2, a1, %lo(.L__func__.LPUART_TransferGetSendCount)
	lui	a1, %hi(.L.str.8)
	addi	a3, a1, %lo(.L.str.8)
	addi	a1, zero, 865
	call	__assert_func
.LBB22_3:                               # %cond.end
	.loc	7 866 7 is_stmt 1               # C:/Vega/rv32m1_sdk_riscv/devices/RV32M1/drivers/fsl_lpuart.c:866:7
	lw	a0, -24(s0)
	mv	a1, zero
	.loc	7 866 6 is_stmt 0               # C:/Vega/rv32m1_sdk_riscv/devices/RV32M1/drivers/fsl_lpuart.c:866:6
	beq	a0, a1, .LBB22_5
	j	.LBB22_4
.LBB22_4:                               # %cond.true2
	j	.LBB22_6
.LBB22_5:                               # %cond.false3
	.loc	7 866 26                        # C:/Vega/rv32m1_sdk_riscv/devices/RV32M1/drivers/fsl_lpuart.c:866:26
	lui	a0, %hi(.L.str)
	addi	a0, a0, %lo(.L.str)
	lui	a1, %hi(.L__func__.LPUART_TransferGetSendCount)
	addi	a2, a1, %lo(.L__func__.LPUART_TransferGetSendCount)
	lui	a1, %hi(.L.str.13)
	addi	a3, a1, %lo(.L.str.13)
	addi	a1, zero, 866
	call	__assert_func
.LBB22_6:                               # %cond.end4
.Ltmp255:
	.loc	7 868 27 is_stmt 1              # C:/Vega/rv32m1_sdk_riscv/devices/RV32M1/drivers/fsl_lpuart.c:868:27
	lw	a0, -20(s0)
	.loc	7 868 35 is_stmt 0              # C:/Vega/rv32m1_sdk_riscv/devices/RV32M1/drivers/fsl_lpuart.c:868:35
	lbu	a0, 44(a0)
	mv	a1, zero
.Ltmp256:
	.loc	7 868 9                         # C:/Vega/rv32m1_sdk_riscv/devices/RV32M1/drivers/fsl_lpuart.c:868:9
	bne	a0, a1, .LBB22_8
	j	.LBB22_7
.LBB22_7:                               # %if.then
	.loc	7 0 9                           # C:/Vega/rv32m1_sdk_riscv/devices/RV32M1/drivers/fsl_lpuart.c:0:9
	addi	a0, zero, 6
.Ltmp257:
	.loc	7 870 9 is_stmt 1               # C:/Vega/rv32m1_sdk_riscv/devices/RV32M1/drivers/fsl_lpuart.c:870:9
	sw	a0, -12(s0)
	j	.LBB22_9
.Ltmp258:
.LBB22_8:                               # %if.end
	.loc	7 873 14                        # C:/Vega/rv32m1_sdk_riscv/devices/RV32M1/drivers/fsl_lpuart.c:873:14
	lw	a0, -20(s0)
	.loc	7 873 22 is_stmt 0              # C:/Vega/rv32m1_sdk_riscv/devices/RV32M1/drivers/fsl_lpuart.c:873:22
	lw	a1, 8(a0)
	.loc	7 873 46                        # C:/Vega/rv32m1_sdk_riscv/devices/RV32M1/drivers/fsl_lpuart.c:873:46
	lw	a0, 4(a0)
	.loc	7 873 36                        # C:/Vega/rv32m1_sdk_riscv/devices/RV32M1/drivers/fsl_lpuart.c:873:36
	sub	a0, a1, a0
	.loc	7 873 6                         # C:/Vega/rv32m1_sdk_riscv/devices/RV32M1/drivers/fsl_lpuart.c:873:6
	lw	a1, -24(s0)
	.loc	7 873 12                        # C:/Vega/rv32m1_sdk_riscv/devices/RV32M1/drivers/fsl_lpuart.c:873:12
	sw	a0, 0(a1)
	mv	a0, zero
	.loc	7 875 5 is_stmt 1               # C:/Vega/rv32m1_sdk_riscv/devices/RV32M1/drivers/fsl_lpuart.c:875:5
	sw	a0, -12(s0)
	j	.LBB22_9
.LBB22_9:                               # %return
	.loc	7 876 1                         # C:/Vega/rv32m1_sdk_riscv/devices/RV32M1/drivers/fsl_lpuart.c:876:1
	lw	a0, -12(s0)
	lw	s0, 24(sp)
	lw	ra, 28(sp)
	addi	sp, sp, 32
	ret
.Ltmp259:
.Lfunc_end22:
	.size	LPUART_TransferGetSendCount, .Lfunc_end22-LPUART_TransferGetSendCount
	.cfi_endproc
                                        # -- End function
	.section	.text.LPUART_TransferReceiveNonBlocking,"ax",@progbits
	.globl	LPUART_TransferReceiveNonBlocking # -- Begin function LPUART_TransferReceiveNonBlocking
	.p2align	2
	.type	LPUART_TransferReceiveNonBlocking,@function
LPUART_TransferReceiveNonBlocking:      # @LPUART_TransferReceiveNonBlocking
.Lfunc_begin23:
	.loc	7 882 0                         # C:/Vega/rv32m1_sdk_riscv/devices/RV32M1/drivers/fsl_lpuart.c:882:0
	.cfi_startproc
# %bb.0:                                # %entry
	addi	sp, sp, -64
	.cfi_def_cfa_offset 64
	sw	ra, 60(sp)
	sw	s0, 56(sp)
	.cfi_offset ra, -4
	.cfi_offset s0, -8
	addi	s0, sp, 64
	.cfi_def_cfa s0, 0
	sw	a0, -12(s0)
	sw	a1, -16(s0)
	sw	a2, -20(s0)
	sw	a3, -24(s0)
.Ltmp260:
	.loc	7 883 7 prologue_end            # C:/Vega/rv32m1_sdk_riscv/devices/RV32M1/drivers/fsl_lpuart.c:883:7
	lw	a0, -16(s0)
	mv	a1, zero
	.loc	7 883 6 is_stmt 0               # C:/Vega/rv32m1_sdk_riscv/devices/RV32M1/drivers/fsl_lpuart.c:883:6
	beq	a0, a1, .LBB23_2
	j	.LBB23_1
.LBB23_1:                               # %cond.true
	j	.LBB23_3
.LBB23_2:                               # %cond.false
	.loc	7 883 27                        # C:/Vega/rv32m1_sdk_riscv/devices/RV32M1/drivers/fsl_lpuart.c:883:27
	lui	a0, %hi(.L.str)
	addi	a0, a0, %lo(.L.str)
	lui	a1, %hi(.L__func__.LPUART_TransferReceiveNonBlocking)
	addi	a2, a1, %lo(.L__func__.LPUART_TransferReceiveNonBlocking)
	lui	a1, %hi(.L.str.8)
	addi	a3, a1, %lo(.L.str.8)
	addi	a1, zero, 883
	call	__assert_func
.LBB23_3:                               # %cond.end
	.loc	7 884 7 is_stmt 1               # C:/Vega/rv32m1_sdk_riscv/devices/RV32M1/drivers/fsl_lpuart.c:884:7
	lw	a0, -20(s0)
	mv	a1, zero
	.loc	7 884 6 is_stmt 0               # C:/Vega/rv32m1_sdk_riscv/devices/RV32M1/drivers/fsl_lpuart.c:884:6
	beq	a0, a1, .LBB23_5
	j	.LBB23_4
.LBB23_4:                               # %cond.true2
	j	.LBB23_6
.LBB23_5:                               # %cond.false3
	.loc	7 884 25                        # C:/Vega/rv32m1_sdk_riscv/devices/RV32M1/drivers/fsl_lpuart.c:884:25
	lui	a0, %hi(.L.str)
	addi	a0, a0, %lo(.L.str)
	lui	a1, %hi(.L__func__.LPUART_TransferReceiveNonBlocking)
	addi	a2, a1, %lo(.L__func__.LPUART_TransferReceiveNonBlocking)
	lui	a1, %hi(.L.str.10)
	addi	a3, a1, %lo(.L.str.10)
	addi	a1, zero, 884
	call	__assert_func
.LBB23_6:                               # %cond.end4
	.loc	7 885 7 is_stmt 1               # C:/Vega/rv32m1_sdk_riscv/devices/RV32M1/drivers/fsl_lpuart.c:885:7
	lw	a0, -20(s0)
	.loc	7 885 13 is_stmt 0              # C:/Vega/rv32m1_sdk_riscv/devices/RV32M1/drivers/fsl_lpuart.c:885:13
	lw	a0, 0(a0)
	mv	a1, zero
	.loc	7 885 6                         # C:/Vega/rv32m1_sdk_riscv/devices/RV32M1/drivers/fsl_lpuart.c:885:6
	beq	a0, a1, .LBB23_8
	j	.LBB23_7
.LBB23_7:                               # %cond.true6
	j	.LBB23_9
.LBB23_8:                               # %cond.false7
	.loc	7 885 31                        # C:/Vega/rv32m1_sdk_riscv/devices/RV32M1/drivers/fsl_lpuart.c:885:31
	lui	a0, %hi(.L.str)
	addi	a0, a0, %lo(.L.str)
	lui	a1, %hi(.L__func__.LPUART_TransferReceiveNonBlocking)
	addi	a2, a1, %lo(.L__func__.LPUART_TransferReceiveNonBlocking)
	lui	a1, %hi(.L.str.11)
	addi	a3, a1, %lo(.L.str.11)
	addi	a1, zero, 885
	call	__assert_func
.LBB23_9:                               # %cond.end8
	.loc	7 886 7 is_stmt 1               # C:/Vega/rv32m1_sdk_riscv/devices/RV32M1/drivers/fsl_lpuart.c:886:7
	lw	a0, -20(s0)
	.loc	7 886 13 is_stmt 0              # C:/Vega/rv32m1_sdk_riscv/devices/RV32M1/drivers/fsl_lpuart.c:886:13
	lw	a0, 4(a0)
	mv	a1, zero
	.loc	7 886 6                         # C:/Vega/rv32m1_sdk_riscv/devices/RV32M1/drivers/fsl_lpuart.c:886:6
	beq	a0, a1, .LBB23_11
	j	.LBB23_10
.LBB23_10:                              # %cond.true10
	j	.LBB23_12
.LBB23_11:                              # %cond.false11
	.loc	7 886 35                        # C:/Vega/rv32m1_sdk_riscv/devices/RV32M1/drivers/fsl_lpuart.c:886:35
	lui	a0, %hi(.L.str)
	addi	a0, a0, %lo(.L.str)
	lui	a1, %hi(.L__func__.LPUART_TransferReceiveNonBlocking)
	addi	a2, a1, %lo(.L__func__.LPUART_TransferReceiveNonBlocking)
	lui	a1, %hi(.L.str.12)
	addi	a3, a1, %lo(.L.str.12)
	addi	a1, zero, 886
	call	__assert_func
.LBB23_12:                              # %cond.end12
	.loc	7 0 35                          # C:/Vega/rv32m1_sdk_riscv/devices/RV32M1/drivers/fsl_lpuart.c:0:35
	mv	a0, zero
	.loc	7 891 12 is_stmt 1              # C:/Vega/rv32m1_sdk_riscv/devices/RV32M1/drivers/fsl_lpuart.c:891:12
	sw	a0, -36(s0)
.Ltmp261:
	.loc	7 907 27                        # C:/Vega/rv32m1_sdk_riscv/devices/RV32M1/drivers/fsl_lpuart.c:907:27
	lw	a0, -16(s0)
	.loc	7 907 35 is_stmt 0              # C:/Vega/rv32m1_sdk_riscv/devices/RV32M1/drivers/fsl_lpuart.c:907:35
	lbu	a0, 45(a0)
	addi	a1, zero, 3
.Ltmp262:
	.loc	7 907 9                         # C:/Vega/rv32m1_sdk_riscv/devices/RV32M1/drivers/fsl_lpuart.c:907:9
	bne	a0, a1, .LBB23_14
	j	.LBB23_13
.LBB23_13:                              # %if.then
	.loc	7 0 9                           # C:/Vega/rv32m1_sdk_riscv/devices/RV32M1/drivers/fsl_lpuart.c:0:9
	addi	a0, zero, 1301
.Ltmp263:
	.loc	7 909 16 is_stmt 1              # C:/Vega/rv32m1_sdk_riscv/devices/RV32M1/drivers/fsl_lpuart.c:909:16
	sw	a0, -32(s0)
	.loc	7 910 5                         # C:/Vega/rv32m1_sdk_riscv/devices/RV32M1/drivers/fsl_lpuart.c:910:5
	j	.LBB23_38
.Ltmp264:
.LBB23_14:                              # %if.else
	.loc	7 913 26                        # C:/Vega/rv32m1_sdk_riscv/devices/RV32M1/drivers/fsl_lpuart.c:913:26
	lw	a0, -20(s0)
	.loc	7 913 32 is_stmt 0              # C:/Vega/rv32m1_sdk_riscv/devices/RV32M1/drivers/fsl_lpuart.c:913:32
	lw	a0, 4(a0)
	.loc	7 913 24                        # C:/Vega/rv32m1_sdk_riscv/devices/RV32M1/drivers/fsl_lpuart.c:913:24
	sw	a0, -40(s0)
	mv	a0, zero
	.loc	7 914 30 is_stmt 1              # C:/Vega/rv32m1_sdk_riscv/devices/RV32M1/drivers/fsl_lpuart.c:914:30
	sw	a0, -44(s0)
.Ltmp265:
	.loc	7 917 13                        # C:/Vega/rv32m1_sdk_riscv/devices/RV32M1/drivers/fsl_lpuart.c:917:13
	lw	a1, -16(s0)
	.loc	7 917 21 is_stmt 0              # C:/Vega/rv32m1_sdk_riscv/devices/RV32M1/drivers/fsl_lpuart.c:917:21
	lw	a1, 24(a1)
.Ltmp266:
	.loc	7 917 13                        # C:/Vega/rv32m1_sdk_riscv/devices/RV32M1/drivers/fsl_lpuart.c:917:13
	beq	a1, a0, .LBB23_34
	j	.LBB23_15
.LBB23_15:                              # %if.then16
.Ltmp267:
	.loc	7 920 38 is_stmt 1              # C:/Vega/rv32m1_sdk_riscv/devices/RV32M1/drivers/fsl_lpuart.c:920:38
	lw	a0, -12(s0)
	lui	a1, 512
	.loc	7 920 13 is_stmt 0              # C:/Vega/rv32m1_sdk_riscv/devices/RV32M1/drivers/fsl_lpuart.c:920:13
	call	LPUART_DisableInterrupts
	.loc	7 923 64 is_stmt 1              # C:/Vega/rv32m1_sdk_riscv/devices/RV32M1/drivers/fsl_lpuart.c:923:64
	lw	a0, -12(s0)
	.loc	7 923 70 is_stmt 0              # C:/Vega/rv32m1_sdk_riscv/devices/RV32M1/drivers/fsl_lpuart.c:923:70
	lw	a1, -16(s0)
	.loc	7 923 27                        # C:/Vega/rv32m1_sdk_riscv/devices/RV32M1/drivers/fsl_lpuart.c:923:27
	call	LPUART_TransferGetRxRingBufferLength
	.loc	7 923 25                        # C:/Vega/rv32m1_sdk_riscv/devices/RV32M1/drivers/fsl_lpuart.c:923:25
	sw	a0, -36(s0)
.Ltmp268:
	.loc	7 925 17 is_stmt 1              # C:/Vega/rv32m1_sdk_riscv/devices/RV32M1/drivers/fsl_lpuart.c:925:17
	lw	a0, -36(s0)
	mv	a1, zero
.Ltmp269:
	.loc	7 925 17 is_stmt 0              # C:/Vega/rv32m1_sdk_riscv/devices/RV32M1/drivers/fsl_lpuart.c:925:17
	beq	a0, a1, .LBB23_27
	j	.LBB23_16
.LBB23_16:                              # %if.then18
.Ltmp270:
	.loc	7 927 33 is_stmt 1              # C:/Vega/rv32m1_sdk_riscv/devices/RV32M1/drivers/fsl_lpuart.c:927:33
	lw	a0, -40(s0)
	.loc	7 927 52 is_stmt 0              # C:/Vega/rv32m1_sdk_riscv/devices/RV32M1/drivers/fsl_lpuart.c:927:52
	lw	a1, -36(s0)
	.loc	7 927 32                        # C:/Vega/rv32m1_sdk_riscv/devices/RV32M1/drivers/fsl_lpuart.c:927:32
	bgeu	a0, a1, .LBB23_18
	j	.LBB23_17
.LBB23_17:                              # %cond.true21
	.loc	7 927 68                        # C:/Vega/rv32m1_sdk_riscv/devices/RV32M1/drivers/fsl_lpuart.c:927:68
	lw	a0, -40(s0)
	.loc	7 927 32                        # C:/Vega/rv32m1_sdk_riscv/devices/RV32M1/drivers/fsl_lpuart.c:927:32
	sw	a0, -48(s0)
	j	.LBB23_19
.LBB23_18:                              # %cond.false22
	.loc	7 927 87                        # C:/Vega/rv32m1_sdk_riscv/devices/RV32M1/drivers/fsl_lpuart.c:927:87
	lw	a0, -36(s0)
	.loc	7 927 32                        # C:/Vega/rv32m1_sdk_riscv/devices/RV32M1/drivers/fsl_lpuart.c:927:32
	sw	a0, -48(s0)
	j	.LBB23_19
.LBB23_19:                              # %cond.end23
	lw	a0, -48(s0)
	.loc	7 927 29                        # C:/Vega/rv32m1_sdk_riscv/devices/RV32M1/drivers/fsl_lpuart.c:927:29
	sw	a0, -36(s0)
	.loc	7 929 35 is_stmt 1              # C:/Vega/rv32m1_sdk_riscv/devices/RV32M1/drivers/fsl_lpuart.c:929:35
	lw	a0, -36(s0)
	.loc	7 929 32 is_stmt 0              # C:/Vega/rv32m1_sdk_riscv/devices/RV32M1/drivers/fsl_lpuart.c:929:32
	lw	a1, -40(s0)
	sub	a0, a1, a0
	sw	a0, -40(s0)
	mv	a0, zero
.Ltmp271:
	.loc	7 932 24 is_stmt 1              # C:/Vega/rv32m1_sdk_riscv/devices/RV32M1/drivers/fsl_lpuart.c:932:24
	sw	a0, -28(s0)
	.loc	7 932 22 is_stmt 0              # C:/Vega/rv32m1_sdk_riscv/devices/RV32M1/drivers/fsl_lpuart.c:932:22
	j	.LBB23_20
.LBB23_20:                              # %for.cond
                                        # =>This Inner Loop Header: Depth=1
.Ltmp272:
	.loc	7 932 30                        # C:/Vega/rv32m1_sdk_riscv/devices/RV32M1/drivers/fsl_lpuart.c:932:30
	lw	a0, -28(s0)
	.loc	7 932 34                        # C:/Vega/rv32m1_sdk_riscv/devices/RV32M1/drivers/fsl_lpuart.c:932:34
	lw	a1, -36(s0)
.Ltmp273:
	.loc	7 932 17                        # C:/Vega/rv32m1_sdk_riscv/devices/RV32M1/drivers/fsl_lpuart.c:932:17
	bgeu	a0, a1, .LBB23_26
	j	.LBB23_21
.LBB23_21:                              # %for.body
                                        #   in Loop: Header=BB23_20 Depth=1
.Ltmp274:
	.loc	7 934 58 is_stmt 1              # C:/Vega/rv32m1_sdk_riscv/devices/RV32M1/drivers/fsl_lpuart.c:934:58
	lw	a0, -16(s0)
	.loc	7 934 66 is_stmt 0              # C:/Vega/rv32m1_sdk_riscv/devices/RV32M1/drivers/fsl_lpuart.c:934:66
	lw	a1, 24(a0)
	.loc	7 934 87                        # C:/Vega/rv32m1_sdk_riscv/devices/RV32M1/drivers/fsl_lpuart.c:934:87
	lhu	a0, 34(a0)
	.loc	7 934 58                        # C:/Vega/rv32m1_sdk_riscv/devices/RV32M1/drivers/fsl_lpuart.c:934:58
	add	a0, a1, a0
	lb	a0, 0(a0)
	.loc	7 934 21                        # C:/Vega/rv32m1_sdk_riscv/devices/RV32M1/drivers/fsl_lpuart.c:934:21
	lw	a1, -20(s0)
	.loc	7 934 27                        # C:/Vega/rv32m1_sdk_riscv/devices/RV32M1/drivers/fsl_lpuart.c:934:27
	lw	a1, 0(a1)
	.loc	7 934 52                        # C:/Vega/rv32m1_sdk_riscv/devices/RV32M1/drivers/fsl_lpuart.c:934:52
	lw	a2, -44(s0)
	addi	a3, a2, 1
	sw	a3, -44(s0)
	.loc	7 934 21                        # C:/Vega/rv32m1_sdk_riscv/devices/RV32M1/drivers/fsl_lpuart.c:934:21
	add	a1, a1, a2
	.loc	7 934 56                        # C:/Vega/rv32m1_sdk_riscv/devices/RV32M1/drivers/fsl_lpuart.c:934:56
	sb	a0, 0(a1)
.Ltmp275:
	.loc	7 937 25 is_stmt 1              # C:/Vega/rv32m1_sdk_riscv/devices/RV32M1/drivers/fsl_lpuart.c:937:25
	lw	a0, -16(s0)
	.loc	7 937 33 is_stmt 0              # C:/Vega/rv32m1_sdk_riscv/devices/RV32M1/drivers/fsl_lpuart.c:937:33
	lhu	a0, 34(a0)
	.loc	7 937 50                        # C:/Vega/rv32m1_sdk_riscv/devices/RV32M1/drivers/fsl_lpuart.c:937:50
	addi	a0, a0, 1
	.loc	7 937 58                        # C:/Vega/rv32m1_sdk_riscv/devices/RV32M1/drivers/fsl_lpuart.c:937:58
	lw	a1, -16(s0)
	.loc	7 937 66                        # C:/Vega/rv32m1_sdk_riscv/devices/RV32M1/drivers/fsl_lpuart.c:937:66
	lw	a1, 28(a1)
.Ltmp276:
	.loc	7 937 25                        # C:/Vega/rv32m1_sdk_riscv/devices/RV32M1/drivers/fsl_lpuart.c:937:25
	bne	a0, a1, .LBB23_23
	j	.LBB23_22
.LBB23_22:                              # %if.then33
                                        #   in Loop: Header=BB23_20 Depth=1
.Ltmp277:
	.loc	7 939 25 is_stmt 1              # C:/Vega/rv32m1_sdk_riscv/devices/RV32M1/drivers/fsl_lpuart.c:939:25
	lw	a0, -16(s0)
	mv	a1, zero
	.loc	7 939 50 is_stmt 0              # C:/Vega/rv32m1_sdk_riscv/devices/RV32M1/drivers/fsl_lpuart.c:939:50
	sh	a1, 34(a0)
	.loc	7 940 21 is_stmt 1              # C:/Vega/rv32m1_sdk_riscv/devices/RV32M1/drivers/fsl_lpuart.c:940:21
	j	.LBB23_24
.Ltmp278:
.LBB23_23:                              # %if.else35
                                        #   in Loop: Header=BB23_20 Depth=1
	.loc	7 943 25                        # C:/Vega/rv32m1_sdk_riscv/devices/RV32M1/drivers/fsl_lpuart.c:943:25
	lw	a0, -16(s0)
	.loc	7 943 49 is_stmt 0              # C:/Vega/rv32m1_sdk_riscv/devices/RV32M1/drivers/fsl_lpuart.c:943:49
	lh	a1, 34(a0)
	addi	a1, a1, 1
	sh	a1, 34(a0)
	j	.LBB23_24
.Ltmp279:
.LBB23_24:                              # %if.end
                                        #   in Loop: Header=BB23_20 Depth=1
	.loc	7 945 17 is_stmt 1              # C:/Vega/rv32m1_sdk_riscv/devices/RV32M1/drivers/fsl_lpuart.c:945:17
	j	.LBB23_25
.Ltmp280:
.LBB23_25:                              # %for.inc
                                        #   in Loop: Header=BB23_20 Depth=1
	.loc	7 932 48                        # C:/Vega/rv32m1_sdk_riscv/devices/RV32M1/drivers/fsl_lpuart.c:932:48
	lw	a0, -28(s0)
	addi	a0, a0, 1
	sw	a0, -28(s0)
	.loc	7 932 17 is_stmt 0              # C:/Vega/rv32m1_sdk_riscv/devices/RV32M1/drivers/fsl_lpuart.c:932:17
	j	.LBB23_20
.Ltmp281:
.LBB23_26:                              # %for.end
	.loc	7 946 13 is_stmt 1              # C:/Vega/rv32m1_sdk_riscv/devices/RV32M1/drivers/fsl_lpuart.c:946:13
	j	.LBB23_27
.Ltmp282:
.LBB23_27:                              # %if.end39
	.loc	7 949 17                        # C:/Vega/rv32m1_sdk_riscv/devices/RV32M1/drivers/fsl_lpuart.c:949:17
	lw	a0, -40(s0)
	mv	a1, zero
.Ltmp283:
	.loc	7 949 17 is_stmt 0              # C:/Vega/rv32m1_sdk_riscv/devices/RV32M1/drivers/fsl_lpuart.c:949:17
	beq	a0, a1, .LBB23_29
	j	.LBB23_28
.LBB23_28:                              # %if.then41
.Ltmp284:
	.loc	7 952 34 is_stmt 1              # C:/Vega/rv32m1_sdk_riscv/devices/RV32M1/drivers/fsl_lpuart.c:952:34
	lw	a0, -20(s0)
	.loc	7 952 40 is_stmt 0              # C:/Vega/rv32m1_sdk_riscv/devices/RV32M1/drivers/fsl_lpuart.c:952:40
	lw	a0, 0(a0)
	.loc	7 952 47                        # C:/Vega/rv32m1_sdk_riscv/devices/RV32M1/drivers/fsl_lpuart.c:952:47
	lw	a1, -44(s0)
	.loc	7 952 45                        # C:/Vega/rv32m1_sdk_riscv/devices/RV32M1/drivers/fsl_lpuart.c:952:45
	add	a0, a0, a1
	.loc	7 952 17                        # C:/Vega/rv32m1_sdk_riscv/devices/RV32M1/drivers/fsl_lpuart.c:952:17
	lw	a1, -16(s0)
	.loc	7 952 32                        # C:/Vega/rv32m1_sdk_riscv/devices/RV32M1/drivers/fsl_lpuart.c:952:32
	sw	a0, 12(a1)
	.loc	7 953 38 is_stmt 1              # C:/Vega/rv32m1_sdk_riscv/devices/RV32M1/drivers/fsl_lpuart.c:953:38
	lw	a0, -40(s0)
	.loc	7 953 17 is_stmt 0              # C:/Vega/rv32m1_sdk_riscv/devices/RV32M1/drivers/fsl_lpuart.c:953:17
	lw	a1, -16(s0)
	.loc	7 953 36                        # C:/Vega/rv32m1_sdk_riscv/devices/RV32M1/drivers/fsl_lpuart.c:953:36
	sw	a0, 16(a1)
	.loc	7 954 41 is_stmt 1              # C:/Vega/rv32m1_sdk_riscv/devices/RV32M1/drivers/fsl_lpuart.c:954:41
	lw	a0, -40(s0)
	.loc	7 954 17 is_stmt 0              # C:/Vega/rv32m1_sdk_riscv/devices/RV32M1/drivers/fsl_lpuart.c:954:17
	lw	a1, -16(s0)
	.loc	7 954 39                        # C:/Vega/rv32m1_sdk_riscv/devices/RV32M1/drivers/fsl_lpuart.c:954:39
	sw	a0, 20(a1)
	.loc	7 955 17 is_stmt 1              # C:/Vega/rv32m1_sdk_riscv/devices/RV32M1/drivers/fsl_lpuart.c:955:17
	lw	a0, -16(s0)
	addi	a1, zero, 3
	.loc	7 955 33 is_stmt 0              # C:/Vega/rv32m1_sdk_riscv/devices/RV32M1/drivers/fsl_lpuart.c:955:33
	sb	a1, 45(a0)
	.loc	7 956 13 is_stmt 1              # C:/Vega/rv32m1_sdk_riscv/devices/RV32M1/drivers/fsl_lpuart.c:956:13
	j	.LBB23_29
.Ltmp285:
.LBB23_29:                              # %if.end44
	.loc	7 958 37                        # C:/Vega/rv32m1_sdk_riscv/devices/RV32M1/drivers/fsl_lpuart.c:958:37
	lw	a0, -12(s0)
	lui	a1, 512
	.loc	7 958 13 is_stmt 0              # C:/Vega/rv32m1_sdk_riscv/devices/RV32M1/drivers/fsl_lpuart.c:958:13
	call	LPUART_EnableInterrupts
.Ltmp286:
	.loc	7 961 22 is_stmt 1              # C:/Vega/rv32m1_sdk_riscv/devices/RV32M1/drivers/fsl_lpuart.c:961:22
	lw	a0, -40(s0)
	mv	a1, zero
.Ltmp287:
	.loc	7 961 17 is_stmt 0              # C:/Vega/rv32m1_sdk_riscv/devices/RV32M1/drivers/fsl_lpuart.c:961:17
	bne	a0, a1, .LBB23_33
	j	.LBB23_30
.LBB23_30:                              # %if.then47
.Ltmp288:
	.loc	7 963 21 is_stmt 1              # C:/Vega/rv32m1_sdk_riscv/devices/RV32M1/drivers/fsl_lpuart.c:963:21
	lw	a0, -16(s0)
	.loc	7 963 29 is_stmt 0              # C:/Vega/rv32m1_sdk_riscv/devices/RV32M1/drivers/fsl_lpuart.c:963:29
	lw	a0, 36(a0)
	mv	a1, zero
.Ltmp289:
	.loc	7 963 21                        # C:/Vega/rv32m1_sdk_riscv/devices/RV32M1/drivers/fsl_lpuart.c:963:21
	beq	a0, a1, .LBB23_32
	j	.LBB23_31
.LBB23_31:                              # %if.then49
.Ltmp290:
	.loc	7 965 21 is_stmt 1              # C:/Vega/rv32m1_sdk_riscv/devices/RV32M1/drivers/fsl_lpuart.c:965:21
	lw	a0, -16(s0)
	.loc	7 965 29 is_stmt 0              # C:/Vega/rv32m1_sdk_riscv/devices/RV32M1/drivers/fsl_lpuart.c:965:29
	lw	a1, 36(a0)
	.loc	7 965 38                        # C:/Vega/rv32m1_sdk_riscv/devices/RV32M1/drivers/fsl_lpuart.c:965:38
	lw	a2, -12(s0)
	.loc	7 965 83                        # C:/Vega/rv32m1_sdk_riscv/devices/RV32M1/drivers/fsl_lpuart.c:965:83
	lw	a3, 40(a0)
	addi	a4, zero, 1303
	.loc	7 965 21                        # C:/Vega/rv32m1_sdk_riscv/devices/RV32M1/drivers/fsl_lpuart.c:965:21
	sw	a0, -52(s0)
	mv	a0, a2
	lw	a2, -52(s0)
	sw	a1, -56(s0)
	mv	a1, a2
	mv	a2, a4
	lw	a4, -56(s0)
	jalr	a4
	.loc	7 966 17 is_stmt 1              # C:/Vega/rv32m1_sdk_riscv/devices/RV32M1/drivers/fsl_lpuart.c:966:17
	j	.LBB23_32
.Ltmp291:
.LBB23_32:                              # %if.end51
	.loc	7 967 13                        # C:/Vega/rv32m1_sdk_riscv/devices/RV32M1/drivers/fsl_lpuart.c:967:13
	j	.LBB23_33
.Ltmp292:
.LBB23_33:                              # %if.end52
	.loc	7 968 9                         # C:/Vega/rv32m1_sdk_riscv/devices/RV32M1/drivers/fsl_lpuart.c:968:9
	j	.LBB23_35
.Ltmp293:
.LBB23_34:                              # %if.else53
	.loc	7 972 30                        # C:/Vega/rv32m1_sdk_riscv/devices/RV32M1/drivers/fsl_lpuart.c:972:30
	lw	a0, -20(s0)
	.loc	7 972 36 is_stmt 0              # C:/Vega/rv32m1_sdk_riscv/devices/RV32M1/drivers/fsl_lpuart.c:972:36
	lw	a0, 0(a0)
	.loc	7 972 43                        # C:/Vega/rv32m1_sdk_riscv/devices/RV32M1/drivers/fsl_lpuart.c:972:43
	lw	a1, -44(s0)
	.loc	7 972 41                        # C:/Vega/rv32m1_sdk_riscv/devices/RV32M1/drivers/fsl_lpuart.c:972:41
	add	a0, a0, a1
	.loc	7 972 13                        # C:/Vega/rv32m1_sdk_riscv/devices/RV32M1/drivers/fsl_lpuart.c:972:13
	lw	a1, -16(s0)
	.loc	7 972 28                        # C:/Vega/rv32m1_sdk_riscv/devices/RV32M1/drivers/fsl_lpuart.c:972:28
	sw	a0, 12(a1)
	.loc	7 973 34 is_stmt 1              # C:/Vega/rv32m1_sdk_riscv/devices/RV32M1/drivers/fsl_lpuart.c:973:34
	lw	a0, -40(s0)
	.loc	7 973 13 is_stmt 0              # C:/Vega/rv32m1_sdk_riscv/devices/RV32M1/drivers/fsl_lpuart.c:973:13
	lw	a1, -16(s0)
	.loc	7 973 32                        # C:/Vega/rv32m1_sdk_riscv/devices/RV32M1/drivers/fsl_lpuart.c:973:32
	sw	a0, 16(a1)
	.loc	7 974 37 is_stmt 1              # C:/Vega/rv32m1_sdk_riscv/devices/RV32M1/drivers/fsl_lpuart.c:974:37
	lw	a0, -40(s0)
	.loc	7 974 13 is_stmt 0              # C:/Vega/rv32m1_sdk_riscv/devices/RV32M1/drivers/fsl_lpuart.c:974:13
	lw	a1, -16(s0)
	.loc	7 974 35                        # C:/Vega/rv32m1_sdk_riscv/devices/RV32M1/drivers/fsl_lpuart.c:974:35
	sw	a0, 20(a1)
	.loc	7 975 13 is_stmt 1              # C:/Vega/rv32m1_sdk_riscv/devices/RV32M1/drivers/fsl_lpuart.c:975:13
	lw	a0, -16(s0)
	addi	a1, zero, 3
	.loc	7 975 29 is_stmt 0              # C:/Vega/rv32m1_sdk_riscv/devices/RV32M1/drivers/fsl_lpuart.c:975:29
	sb	a1, 45(a0)
	.loc	7 978 37 is_stmt 1              # C:/Vega/rv32m1_sdk_riscv/devices/RV32M1/drivers/fsl_lpuart.c:978:37
	lw	a0, -12(s0)
	lui	a1, 33536
	.loc	7 978 13 is_stmt 0              # C:/Vega/rv32m1_sdk_riscv/devices/RV32M1/drivers/fsl_lpuart.c:978:13
	call	LPUART_EnableInterrupts
	j	.LBB23_35
.Ltmp294:
.LBB23_35:                              # %if.end60
	.loc	7 983 13 is_stmt 1              # C:/Vega/rv32m1_sdk_riscv/devices/RV32M1/drivers/fsl_lpuart.c:983:13
	lw	a0, -24(s0)
	mv	a1, zero
.Ltmp295:
	.loc	7 983 13 is_stmt 0              # C:/Vega/rv32m1_sdk_riscv/devices/RV32M1/drivers/fsl_lpuart.c:983:13
	beq	a0, a1, .LBB23_37
	j	.LBB23_36
.LBB23_36:                              # %if.then62
.Ltmp296:
	.loc	7 985 30 is_stmt 1              # C:/Vega/rv32m1_sdk_riscv/devices/RV32M1/drivers/fsl_lpuart.c:985:30
	lw	a0, -44(s0)
	.loc	7 985 14 is_stmt 0              # C:/Vega/rv32m1_sdk_riscv/devices/RV32M1/drivers/fsl_lpuart.c:985:14
	lw	a1, -24(s0)
	.loc	7 985 28                        # C:/Vega/rv32m1_sdk_riscv/devices/RV32M1/drivers/fsl_lpuart.c:985:28
	sw	a0, 0(a1)
	.loc	7 986 9 is_stmt 1               # C:/Vega/rv32m1_sdk_riscv/devices/RV32M1/drivers/fsl_lpuart.c:986:9
	j	.LBB23_37
.Ltmp297:
.LBB23_37:                              # %if.end63
	.loc	7 0 9 is_stmt 0                 # C:/Vega/rv32m1_sdk_riscv/devices/RV32M1/drivers/fsl_lpuart.c:0:9
	mv	a0, zero
	.loc	7 988 16 is_stmt 1              # C:/Vega/rv32m1_sdk_riscv/devices/RV32M1/drivers/fsl_lpuart.c:988:16
	sw	a0, -32(s0)
	j	.LBB23_38
.Ltmp298:
.LBB23_38:                              # %if.end64
	.loc	7 991 12                        # C:/Vega/rv32m1_sdk_riscv/devices/RV32M1/drivers/fsl_lpuart.c:991:12
	lw	a0, -32(s0)
	.loc	7 991 5 is_stmt 0               # C:/Vega/rv32m1_sdk_riscv/devices/RV32M1/drivers/fsl_lpuart.c:991:5
	lw	s0, 56(sp)
	lw	ra, 60(sp)
	addi	sp, sp, 64
	ret
.Ltmp299:
.Lfunc_end23:
	.size	LPUART_TransferReceiveNonBlocking, .Lfunc_end23-LPUART_TransferReceiveNonBlocking
	.cfi_endproc
                                        # -- End function
	.section	.text.LPUART_TransferGetRxRingBufferLength,"ax",@progbits
	.p2align	2                               # -- Begin function LPUART_TransferGetRxRingBufferLength
	.type	LPUART_TransferGetRxRingBufferLength,@function
LPUART_TransferGetRxRingBufferLength:   # @LPUART_TransferGetRxRingBufferLength
.Lfunc_begin24:
	.loc	7 132 0 is_stmt 1               # C:/Vega/rv32m1_sdk_riscv/devices/RV32M1/drivers/fsl_lpuart.c:132:0
	.cfi_startproc
# %bb.0:                                # %entry
	addi	sp, sp, -32
	.cfi_def_cfa_offset 32
	sw	ra, 28(sp)
	sw	s0, 24(sp)
	.cfi_offset ra, -4
	.cfi_offset s0, -8
	addi	s0, sp, 32
	.cfi_def_cfa s0, 0
	sw	a0, -12(s0)
	sw	a1, -16(s0)
.Ltmp300:
	.loc	7 133 7 prologue_end            # C:/Vega/rv32m1_sdk_riscv/devices/RV32M1/drivers/fsl_lpuart.c:133:7
	lw	a0, -16(s0)
	mv	a1, zero
	.loc	7 133 6 is_stmt 0               # C:/Vega/rv32m1_sdk_riscv/devices/RV32M1/drivers/fsl_lpuart.c:133:6
	beq	a0, a1, .LBB24_2
	j	.LBB24_1
.LBB24_1:                               # %cond.true
	j	.LBB24_3
.LBB24_2:                               # %cond.false
	.loc	7 133 27                        # C:/Vega/rv32m1_sdk_riscv/devices/RV32M1/drivers/fsl_lpuart.c:133:27
	lui	a0, %hi(.L.str)
	addi	a0, a0, %lo(.L.str)
	lui	a1, %hi(.L__func__.LPUART_TransferGetRxRingBufferLength)
	addi	a2, a1, %lo(.L__func__.LPUART_TransferGetRxRingBufferLength)
	lui	a1, %hi(.L.str.8)
	addi	a3, a1, %lo(.L.str.8)
	addi	a1, zero, 133
	call	__assert_func
.LBB24_3:                               # %cond.end
.Ltmp301:
	.loc	7 137 9 is_stmt 1               # C:/Vega/rv32m1_sdk_riscv/devices/RV32M1/drivers/fsl_lpuart.c:137:9
	lw	a0, -16(s0)
	.loc	7 137 17 is_stmt 0              # C:/Vega/rv32m1_sdk_riscv/devices/RV32M1/drivers/fsl_lpuart.c:137:17
	lhu	a0, 34(a0)
	.loc	7 137 36                        # C:/Vega/rv32m1_sdk_riscv/devices/RV32M1/drivers/fsl_lpuart.c:137:36
	lw	a1, -16(s0)
	.loc	7 137 44                        # C:/Vega/rv32m1_sdk_riscv/devices/RV32M1/drivers/fsl_lpuart.c:137:44
	lhu	a1, 32(a1)
.Ltmp302:
	.loc	7 137 9                         # C:/Vega/rv32m1_sdk_riscv/devices/RV32M1/drivers/fsl_lpuart.c:137:9
	bge	a1, a0, .LBB24_5
	j	.LBB24_4
.LBB24_4:                               # %if.then
.Ltmp303:
	.loc	7 139 25 is_stmt 1              # C:/Vega/rv32m1_sdk_riscv/devices/RV32M1/drivers/fsl_lpuart.c:139:25
	lw	a0, -16(s0)
	.loc	7 139 33 is_stmt 0              # C:/Vega/rv32m1_sdk_riscv/devices/RV32M1/drivers/fsl_lpuart.c:139:33
	lhu	a0, 32(a0)
	.loc	7 139 52                        # C:/Vega/rv32m1_sdk_riscv/devices/RV32M1/drivers/fsl_lpuart.c:139:52
	lw	a1, -16(s0)
	.loc	7 139 60                        # C:/Vega/rv32m1_sdk_riscv/devices/RV32M1/drivers/fsl_lpuart.c:139:60
	lw	a2, 28(a1)
	.loc	7 139 50                        # C:/Vega/rv32m1_sdk_riscv/devices/RV32M1/drivers/fsl_lpuart.c:139:50
	add	a0, a0, a2
	.loc	7 139 87                        # C:/Vega/rv32m1_sdk_riscv/devices/RV32M1/drivers/fsl_lpuart.c:139:87
	lhu	a1, 34(a1)
	.loc	7 139 77                        # C:/Vega/rv32m1_sdk_riscv/devices/RV32M1/drivers/fsl_lpuart.c:139:77
	sub	a0, a0, a1
	.loc	7 139 14                        # C:/Vega/rv32m1_sdk_riscv/devices/RV32M1/drivers/fsl_lpuart.c:139:14
	sw	a0, -20(s0)
	.loc	7 140 5 is_stmt 1               # C:/Vega/rv32m1_sdk_riscv/devices/RV32M1/drivers/fsl_lpuart.c:140:5
	j	.LBB24_6
.Ltmp304:
.LBB24_5:                               # %if.else
	.loc	7 143 25                        # C:/Vega/rv32m1_sdk_riscv/devices/RV32M1/drivers/fsl_lpuart.c:143:25
	lw	a0, -16(s0)
	.loc	7 143 33 is_stmt 0              # C:/Vega/rv32m1_sdk_riscv/devices/RV32M1/drivers/fsl_lpuart.c:143:33
	lhu	a0, 32(a0)
	.loc	7 143 52                        # C:/Vega/rv32m1_sdk_riscv/devices/RV32M1/drivers/fsl_lpuart.c:143:52
	lw	a1, -16(s0)
	.loc	7 143 60                        # C:/Vega/rv32m1_sdk_riscv/devices/RV32M1/drivers/fsl_lpuart.c:143:60
	lhu	a1, 34(a1)
	.loc	7 143 50                        # C:/Vega/rv32m1_sdk_riscv/devices/RV32M1/drivers/fsl_lpuart.c:143:50
	sub	a0, a0, a1
	.loc	7 143 14                        # C:/Vega/rv32m1_sdk_riscv/devices/RV32M1/drivers/fsl_lpuart.c:143:14
	sw	a0, -20(s0)
	j	.LBB24_6
.Ltmp305:
.LBB24_6:                               # %if.end
	.loc	7 146 12 is_stmt 1              # C:/Vega/rv32m1_sdk_riscv/devices/RV32M1/drivers/fsl_lpuart.c:146:12
	lw	a0, -20(s0)
	.loc	7 146 5 is_stmt 0               # C:/Vega/rv32m1_sdk_riscv/devices/RV32M1/drivers/fsl_lpuart.c:146:5
	lw	s0, 24(sp)
	lw	ra, 28(sp)
	addi	sp, sp, 32
	ret
.Ltmp306:
.Lfunc_end24:
	.size	LPUART_TransferGetRxRingBufferLength, .Lfunc_end24-LPUART_TransferGetRxRingBufferLength
	.cfi_endproc
                                        # -- End function
	.section	.text.LPUART_TransferAbortReceive,"ax",@progbits
	.globl	LPUART_TransferAbortReceive     # -- Begin function LPUART_TransferAbortReceive
	.p2align	2
	.type	LPUART_TransferAbortReceive,@function
LPUART_TransferAbortReceive:            # @LPUART_TransferAbortReceive
.Lfunc_begin25:
	.loc	7 995 0 is_stmt 1               # C:/Vega/rv32m1_sdk_riscv/devices/RV32M1/drivers/fsl_lpuart.c:995:0
	.cfi_startproc
# %bb.0:                                # %entry
	addi	sp, sp, -16
	.cfi_def_cfa_offset 16
	sw	ra, 12(sp)
	sw	s0, 8(sp)
	.cfi_offset ra, -4
	.cfi_offset s0, -8
	addi	s0, sp, 16
	.cfi_def_cfa s0, 0
	sw	a0, -12(s0)
	sw	a1, -16(s0)
.Ltmp307:
	.loc	7 996 7 prologue_end            # C:/Vega/rv32m1_sdk_riscv/devices/RV32M1/drivers/fsl_lpuart.c:996:7
	lw	a0, -16(s0)
	mv	a1, zero
	.loc	7 996 6 is_stmt 0               # C:/Vega/rv32m1_sdk_riscv/devices/RV32M1/drivers/fsl_lpuart.c:996:6
	beq	a0, a1, .LBB25_2
	j	.LBB25_1
.LBB25_1:                               # %cond.true
	j	.LBB25_3
.LBB25_2:                               # %cond.false
	.loc	7 996 27                        # C:/Vega/rv32m1_sdk_riscv/devices/RV32M1/drivers/fsl_lpuart.c:996:27
	lui	a0, %hi(.L.str)
	addi	a0, a0, %lo(.L.str)
	lui	a1, %hi(.L__func__.LPUART_TransferAbortReceive)
	addi	a2, a1, %lo(.L__func__.LPUART_TransferAbortReceive)
	lui	a1, %hi(.L.str.8)
	addi	a3, a1, %lo(.L.str.8)
	addi	a1, zero, 996
	call	__assert_func
.LBB25_3:                               # %cond.end
.Ltmp308:
	.loc	7 999 10 is_stmt 1              # C:/Vega/rv32m1_sdk_riscv/devices/RV32M1/drivers/fsl_lpuart.c:999:10
	lw	a0, -16(s0)
	.loc	7 999 18 is_stmt 0              # C:/Vega/rv32m1_sdk_riscv/devices/RV32M1/drivers/fsl_lpuart.c:999:18
	lw	a0, 24(a0)
	mv	a1, zero
.Ltmp309:
	.loc	7 999 9                         # C:/Vega/rv32m1_sdk_riscv/devices/RV32M1/drivers/fsl_lpuart.c:999:9
	bne	a0, a1, .LBB25_5
	j	.LBB25_4
.LBB25_4:                               # %if.then
.Ltmp310:
	.loc	7 1002 34 is_stmt 1             # C:/Vega/rv32m1_sdk_riscv/devices/RV32M1/drivers/fsl_lpuart.c:1002:34
	lw	a0, -12(s0)
	lui	a1, 33536
	.loc	7 1002 9 is_stmt 0              # C:/Vega/rv32m1_sdk_riscv/devices/RV32M1/drivers/fsl_lpuart.c:1002:9
	call	LPUART_DisableInterrupts
	.loc	7 1004 5 is_stmt 1              # C:/Vega/rv32m1_sdk_riscv/devices/RV32M1/drivers/fsl_lpuart.c:1004:5
	j	.LBB25_5
.Ltmp311:
.LBB25_5:                               # %if.end
	.loc	7 1006 5                        # C:/Vega/rv32m1_sdk_riscv/devices/RV32M1/drivers/fsl_lpuart.c:1006:5
	lw	a0, -16(s0)
	mv	a1, zero
	.loc	7 1006 24 is_stmt 0             # C:/Vega/rv32m1_sdk_riscv/devices/RV32M1/drivers/fsl_lpuart.c:1006:24
	sw	a1, 16(a0)
	.loc	7 1007 5 is_stmt 1              # C:/Vega/rv32m1_sdk_riscv/devices/RV32M1/drivers/fsl_lpuart.c:1007:5
	lw	a0, -16(s0)
	addi	a1, zero, 2
	.loc	7 1007 21 is_stmt 0             # C:/Vega/rv32m1_sdk_riscv/devices/RV32M1/drivers/fsl_lpuart.c:1007:21
	sb	a1, 45(a0)
	.loc	7 1008 1 is_stmt 1              # C:/Vega/rv32m1_sdk_riscv/devices/RV32M1/drivers/fsl_lpuart.c:1008:1
	lw	s0, 8(sp)
	lw	ra, 12(sp)
	addi	sp, sp, 16
	ret
.Ltmp312:
.Lfunc_end25:
	.size	LPUART_TransferAbortReceive, .Lfunc_end25-LPUART_TransferAbortReceive
	.cfi_endproc
                                        # -- End function
	.section	.text.LPUART_TransferGetReceiveCount,"ax",@progbits
	.globl	LPUART_TransferGetReceiveCount  # -- Begin function LPUART_TransferGetReceiveCount
	.p2align	2
	.type	LPUART_TransferGetReceiveCount,@function
LPUART_TransferGetReceiveCount:         # @LPUART_TransferGetReceiveCount
.Lfunc_begin26:
	.loc	7 1011 0                        # C:/Vega/rv32m1_sdk_riscv/devices/RV32M1/drivers/fsl_lpuart.c:1011:0
	.cfi_startproc
# %bb.0:                                # %entry
	addi	sp, sp, -32
	.cfi_def_cfa_offset 32
	sw	ra, 28(sp)
	sw	s0, 24(sp)
	.cfi_offset ra, -4
	.cfi_offset s0, -8
	addi	s0, sp, 32
	.cfi_def_cfa s0, 0
	sw	a0, -16(s0)
	sw	a1, -20(s0)
	sw	a2, -24(s0)
.Ltmp313:
	.loc	7 1012 7 prologue_end           # C:/Vega/rv32m1_sdk_riscv/devices/RV32M1/drivers/fsl_lpuart.c:1012:7
	lw	a0, -20(s0)
	mv	a1, zero
	.loc	7 1012 6 is_stmt 0              # C:/Vega/rv32m1_sdk_riscv/devices/RV32M1/drivers/fsl_lpuart.c:1012:6
	beq	a0, a1, .LBB26_2
	j	.LBB26_1
.LBB26_1:                               # %cond.true
	j	.LBB26_3
.LBB26_2:                               # %cond.false
	.loc	7 1012 27                       # C:/Vega/rv32m1_sdk_riscv/devices/RV32M1/drivers/fsl_lpuart.c:1012:27
	lui	a0, %hi(.L.str)
	addi	a0, a0, %lo(.L.str)
	lui	a1, %hi(.L__func__.LPUART_TransferGetReceiveCount)
	addi	a2, a1, %lo(.L__func__.LPUART_TransferGetReceiveCount)
	lui	a1, %hi(.L.str.8)
	addi	a3, a1, %lo(.L.str.8)
	addi	a1, zero, 1012
	call	__assert_func
.LBB26_3:                               # %cond.end
	.loc	7 1013 7 is_stmt 1              # C:/Vega/rv32m1_sdk_riscv/devices/RV32M1/drivers/fsl_lpuart.c:1013:7
	lw	a0, -24(s0)
	mv	a1, zero
	.loc	7 1013 6 is_stmt 0              # C:/Vega/rv32m1_sdk_riscv/devices/RV32M1/drivers/fsl_lpuart.c:1013:6
	beq	a0, a1, .LBB26_5
	j	.LBB26_4
.LBB26_4:                               # %cond.true2
	j	.LBB26_6
.LBB26_5:                               # %cond.false3
	.loc	7 1013 26                       # C:/Vega/rv32m1_sdk_riscv/devices/RV32M1/drivers/fsl_lpuart.c:1013:26
	lui	a0, %hi(.L.str)
	addi	a0, a0, %lo(.L.str)
	lui	a1, %hi(.L__func__.LPUART_TransferGetReceiveCount)
	addi	a2, a1, %lo(.L__func__.LPUART_TransferGetReceiveCount)
	lui	a1, %hi(.L.str.13)
	addi	a3, a1, %lo(.L.str.13)
	addi	a1, zero, 1013
	call	__assert_func
.LBB26_6:                               # %cond.end4
.Ltmp314:
	.loc	7 1015 27 is_stmt 1             # C:/Vega/rv32m1_sdk_riscv/devices/RV32M1/drivers/fsl_lpuart.c:1015:27
	lw	a0, -20(s0)
	.loc	7 1015 35 is_stmt 0             # C:/Vega/rv32m1_sdk_riscv/devices/RV32M1/drivers/fsl_lpuart.c:1015:35
	lbu	a0, 45(a0)
	addi	a1, zero, 2
.Ltmp315:
	.loc	7 1015 9                        # C:/Vega/rv32m1_sdk_riscv/devices/RV32M1/drivers/fsl_lpuart.c:1015:9
	bne	a0, a1, .LBB26_8
	j	.LBB26_7
.LBB26_7:                               # %if.then
	.loc	7 0 9                           # C:/Vega/rv32m1_sdk_riscv/devices/RV32M1/drivers/fsl_lpuart.c:0:9
	addi	a0, zero, 6
.Ltmp316:
	.loc	7 1017 9 is_stmt 1              # C:/Vega/rv32m1_sdk_riscv/devices/RV32M1/drivers/fsl_lpuart.c:1017:9
	sw	a0, -12(s0)
	j	.LBB26_9
.Ltmp317:
.LBB26_8:                               # %if.end
	.loc	7 1020 14                       # C:/Vega/rv32m1_sdk_riscv/devices/RV32M1/drivers/fsl_lpuart.c:1020:14
	lw	a0, -20(s0)
	.loc	7 1020 22 is_stmt 0             # C:/Vega/rv32m1_sdk_riscv/devices/RV32M1/drivers/fsl_lpuart.c:1020:22
	lw	a1, 20(a0)
	.loc	7 1020 46                       # C:/Vega/rv32m1_sdk_riscv/devices/RV32M1/drivers/fsl_lpuart.c:1020:46
	lw	a0, 16(a0)
	.loc	7 1020 36                       # C:/Vega/rv32m1_sdk_riscv/devices/RV32M1/drivers/fsl_lpuart.c:1020:36
	sub	a0, a1, a0
	.loc	7 1020 6                        # C:/Vega/rv32m1_sdk_riscv/devices/RV32M1/drivers/fsl_lpuart.c:1020:6
	lw	a1, -24(s0)
	.loc	7 1020 12                       # C:/Vega/rv32m1_sdk_riscv/devices/RV32M1/drivers/fsl_lpuart.c:1020:12
	sw	a0, 0(a1)
	mv	a0, zero
	.loc	7 1022 5 is_stmt 1              # C:/Vega/rv32m1_sdk_riscv/devices/RV32M1/drivers/fsl_lpuart.c:1022:5
	sw	a0, -12(s0)
	j	.LBB26_9
.LBB26_9:                               # %return
	.loc	7 1023 1                        # C:/Vega/rv32m1_sdk_riscv/devices/RV32M1/drivers/fsl_lpuart.c:1023:1
	lw	a0, -12(s0)
	lw	s0, 24(sp)
	lw	ra, 28(sp)
	addi	sp, sp, 32
	ret
.Ltmp318:
.Lfunc_end26:
	.size	LPUART_TransferGetReceiveCount, .Lfunc_end26-LPUART_TransferGetReceiveCount
	.cfi_endproc
                                        # -- End function
	.section	.text.LPUART_ReadNonBlocking,"ax",@progbits
	.p2align	2                               # -- Begin function LPUART_ReadNonBlocking
	.type	LPUART_ReadNonBlocking,@function
LPUART_ReadNonBlocking:                 # @LPUART_ReadNonBlocking
.Lfunc_begin27:
	.loc	7 181 0                         # C:/Vega/rv32m1_sdk_riscv/devices/RV32M1/drivers/fsl_lpuart.c:181:0
	.cfi_startproc
# %bb.0:                                # %entry
	addi	sp, sp, -48
	.cfi_def_cfa_offset 48
	sw	ra, 44(sp)
	sw	s0, 40(sp)
	.cfi_offset ra, -4
	.cfi_offset s0, -8
	addi	s0, sp, 48
	.cfi_def_cfa s0, 0
	sw	a0, -12(s0)
	sw	a1, -16(s0)
	sw	a2, -20(s0)
.Ltmp319:
	.loc	7 182 7 prologue_end            # C:/Vega/rv32m1_sdk_riscv/devices/RV32M1/drivers/fsl_lpuart.c:182:7
	lw	a0, -16(s0)
	mv	a1, zero
	.loc	7 182 6 is_stmt 0               # C:/Vega/rv32m1_sdk_riscv/devices/RV32M1/drivers/fsl_lpuart.c:182:6
	beq	a0, a1, .LBB27_2
	j	.LBB27_1
.LBB27_1:                               # %cond.true
	j	.LBB27_3
.LBB27_2:                               # %cond.false
	.loc	7 182 25                        # C:/Vega/rv32m1_sdk_riscv/devices/RV32M1/drivers/fsl_lpuart.c:182:25
	lui	a0, %hi(.L.str)
	addi	a0, a0, %lo(.L.str)
	lui	a1, %hi(.L__func__.LPUART_ReadNonBlocking)
	addi	a2, a1, %lo(.L__func__.LPUART_ReadNonBlocking)
	lui	a1, %hi(.L.str.7)
	addi	a3, a1, %lo(.L.str.7)
	addi	a1, zero, 182
	call	__assert_func
.LBB27_3:                               # %cond.end
	.loc	7 186 21 is_stmt 1              # C:/Vega/rv32m1_sdk_riscv/devices/RV32M1/drivers/fsl_lpuart.c:186:21
	lw	a0, -12(s0)
	.loc	7 186 27 is_stmt 0              # C:/Vega/rv32m1_sdk_riscv/devices/RV32M1/drivers/fsl_lpuart.c:186:27
	lw	a0, 24(a0)
	.loc	7 186 14                        # C:/Vega/rv32m1_sdk_riscv/devices/RV32M1/drivers/fsl_lpuart.c:186:14
	sw	a0, -28(s0)
	.loc	7 188 16 is_stmt 1              # C:/Vega/rv32m1_sdk_riscv/devices/RV32M1/drivers/fsl_lpuart.c:188:16
	lbu	a0, -27(s0)
	andi	a0, a0, 8
	addi	a1, zero, 1
	mv	a2, zero
	.loc	7 188 28 is_stmt 0              # C:/Vega/rv32m1_sdk_riscv/devices/RV32M1/drivers/fsl_lpuart.c:188:28
	sw	a1, -36(s0)
	bne	a0, a2, .LBB27_8
	j	.LBB27_4
.LBB27_4:                               # %lor.rhs
	.loc	7 189 19 is_stmt 1              # C:/Vega/rv32m1_sdk_riscv/devices/RV32M1/drivers/fsl_lpuart.c:189:19
	lbu	a0, -27(s0)
	andi	a0, a0, 8
	mv	a1, zero
	mv	a2, a1
	.loc	7 189 32 is_stmt 0              # C:/Vega/rv32m1_sdk_riscv/devices/RV32M1/drivers/fsl_lpuart.c:189:32
	sw	a2, -40(s0)
	bne	a0, a1, .LBB27_7
	j	.LBB27_5
.LBB27_5:                               # %land.lhs.true
	.loc	7 189 43                        # C:/Vega/rv32m1_sdk_riscv/devices/RV32M1/drivers/fsl_lpuart.c:189:43
	lbu	a0, -28(s0)
	andi	a0, a0, 16
	mv	a1, zero
	mv	a2, a1
	.loc	7 189 55                        # C:/Vega/rv32m1_sdk_riscv/devices/RV32M1/drivers/fsl_lpuart.c:189:55
	sw	a2, -40(s0)
	bne	a0, a1, .LBB27_7
	j	.LBB27_6
.LBB27_6:                               # %land.rhs
	lbu	a0, -28(s0)
	andi	a0, a0, 2
	srli	a0, a0, 1
	sw	a0, -40(s0)
	j	.LBB27_7
.LBB27_7:                               # %land.end
	.loc	7 0 0                           # C:/Vega/rv32m1_sdk_riscv/devices/RV32M1/drivers/fsl_lpuart.c:0:0
	lw	a0, -40(s0)
	.loc	7 188 28 is_stmt 1              # C:/Vega/rv32m1_sdk_riscv/devices/RV32M1/drivers/fsl_lpuart.c:188:28
	sw	a0, -36(s0)
	j	.LBB27_8
.LBB27_8:                               # %lor.end
	.loc	7 0 28 is_stmt 0                # C:/Vega/rv32m1_sdk_riscv/devices/RV32M1/drivers/fsl_lpuart.c:0:28
	lw	a0, -36(s0)
	.loc	7 187 11 is_stmt 1              # C:/Vega/rv32m1_sdk_riscv/devices/RV32M1/drivers/fsl_lpuart.c:187:11
	andi	a0, a0, 1
	sb	a0, -29(s0)
	mv	a0, zero
.Ltmp320:
	.loc	7 194 12                        # C:/Vega/rv32m1_sdk_riscv/devices/RV32M1/drivers/fsl_lpuart.c:194:12
	sw	a0, -24(s0)
	.loc	7 194 10 is_stmt 0              # C:/Vega/rv32m1_sdk_riscv/devices/RV32M1/drivers/fsl_lpuart.c:194:10
	j	.LBB27_9
.LBB27_9:                               # %for.cond
                                        # =>This Inner Loop Header: Depth=1
.Ltmp321:
	.loc	7 194 17                        # C:/Vega/rv32m1_sdk_riscv/devices/RV32M1/drivers/fsl_lpuart.c:194:17
	lw	a0, -24(s0)
	.loc	7 194 21                        # C:/Vega/rv32m1_sdk_riscv/devices/RV32M1/drivers/fsl_lpuart.c:194:21
	lw	a1, -20(s0)
.Ltmp322:
	.loc	7 194 5                         # C:/Vega/rv32m1_sdk_riscv/devices/RV32M1/drivers/fsl_lpuart.c:194:5
	bgeu	a0, a1, .LBB27_15
	j	.LBB27_10
.LBB27_10:                              # %for.body
                                        #   in Loop: Header=BB27_9 Depth=1
.Ltmp323:
	.loc	7 197 13 is_stmt 1              # C:/Vega/rv32m1_sdk_riscv/devices/RV32M1/drivers/fsl_lpuart.c:197:13
	lbu	a0, -29(s0)
	andi	a0, a0, 1
	mv	a1, zero
.Ltmp324:
	.loc	7 197 13 is_stmt 0              # C:/Vega/rv32m1_sdk_riscv/devices/RV32M1/drivers/fsl_lpuart.c:197:13
	beq	a0, a1, .LBB27_12
	j	.LBB27_11
.LBB27_11:                              # %if.then
                                        #   in Loop: Header=BB27_9 Depth=1
.Ltmp325:
	.loc	7 199 24 is_stmt 1              # C:/Vega/rv32m1_sdk_riscv/devices/RV32M1/drivers/fsl_lpuart.c:199:24
	lw	a0, -12(s0)
	.loc	7 199 30 is_stmt 0              # C:/Vega/rv32m1_sdk_riscv/devices/RV32M1/drivers/fsl_lpuart.c:199:30
	lw	a0, 28(a0)
	.loc	7 199 35                        # C:/Vega/rv32m1_sdk_riscv/devices/RV32M1/drivers/fsl_lpuart.c:199:35
	andi	a0, a0, 127
	.loc	7 199 13                        # C:/Vega/rv32m1_sdk_riscv/devices/RV32M1/drivers/fsl_lpuart.c:199:13
	lw	a1, -16(s0)
	.loc	7 199 18                        # C:/Vega/rv32m1_sdk_riscv/devices/RV32M1/drivers/fsl_lpuart.c:199:18
	lw	a2, -24(s0)
	.loc	7 199 13                        # C:/Vega/rv32m1_sdk_riscv/devices/RV32M1/drivers/fsl_lpuart.c:199:13
	add	a1, a1, a2
	.loc	7 199 21                        # C:/Vega/rv32m1_sdk_riscv/devices/RV32M1/drivers/fsl_lpuart.c:199:21
	sb	a0, 0(a1)
	.loc	7 200 9 is_stmt 1               # C:/Vega/rv32m1_sdk_riscv/devices/RV32M1/drivers/fsl_lpuart.c:200:9
	j	.LBB27_13
.Ltmp326:
.LBB27_12:                              # %if.else
                                        #   in Loop: Header=BB27_9 Depth=1
	.loc	7 203 23                        # C:/Vega/rv32m1_sdk_riscv/devices/RV32M1/drivers/fsl_lpuart.c:203:23
	lw	a0, -12(s0)
	.loc	7 203 29 is_stmt 0              # C:/Vega/rv32m1_sdk_riscv/devices/RV32M1/drivers/fsl_lpuart.c:203:29
	lw	a0, 28(a0)
	.loc	7 203 13                        # C:/Vega/rv32m1_sdk_riscv/devices/RV32M1/drivers/fsl_lpuart.c:203:13
	lw	a1, -16(s0)
	.loc	7 203 18                        # C:/Vega/rv32m1_sdk_riscv/devices/RV32M1/drivers/fsl_lpuart.c:203:18
	lw	a2, -24(s0)
	.loc	7 203 13                        # C:/Vega/rv32m1_sdk_riscv/devices/RV32M1/drivers/fsl_lpuart.c:203:13
	add	a1, a1, a2
	.loc	7 203 21                        # C:/Vega/rv32m1_sdk_riscv/devices/RV32M1/drivers/fsl_lpuart.c:203:21
	sb	a0, 0(a1)
	j	.LBB27_13
.Ltmp327:
.LBB27_13:                              # %if.end
                                        #   in Loop: Header=BB27_9 Depth=1
	.loc	7 208 5 is_stmt 1               # C:/Vega/rv32m1_sdk_riscv/devices/RV32M1/drivers/fsl_lpuart.c:208:5
	j	.LBB27_14
.Ltmp328:
.LBB27_14:                              # %for.inc
                                        #   in Loop: Header=BB27_9 Depth=1
	.loc	7 194 30                        # C:/Vega/rv32m1_sdk_riscv/devices/RV32M1/drivers/fsl_lpuart.c:194:30
	lw	a0, -24(s0)
	addi	a0, a0, 1
	sw	a0, -24(s0)
	.loc	7 194 5 is_stmt 0               # C:/Vega/rv32m1_sdk_riscv/devices/RV32M1/drivers/fsl_lpuart.c:194:5
	j	.LBB27_9
.Ltmp329:
.LBB27_15:                              # %for.end
	.loc	7 209 1 is_stmt 1               # C:/Vega/rv32m1_sdk_riscv/devices/RV32M1/drivers/fsl_lpuart.c:209:1
	lw	s0, 40(sp)
	lw	ra, 44(sp)
	addi	sp, sp, 48
	ret
.Ltmp330:
.Lfunc_end27:
	.size	LPUART_ReadNonBlocking, .Lfunc_end27-LPUART_ReadNonBlocking
	.cfi_endproc
                                        # -- End function
	.section	.text.LPUART_TransferIsRxRingBufferFull,"ax",@progbits
	.p2align	2                               # -- Begin function LPUART_TransferIsRxRingBufferFull
	.type	LPUART_TransferIsRxRingBufferFull,@function
LPUART_TransferIsRxRingBufferFull:      # @LPUART_TransferIsRxRingBufferFull
.Lfunc_begin28:
	.loc	7 150 0                         # C:/Vega/rv32m1_sdk_riscv/devices/RV32M1/drivers/fsl_lpuart.c:150:0
	.cfi_startproc
# %bb.0:                                # %entry
	addi	sp, sp, -32
	.cfi_def_cfa_offset 32
	sw	ra, 28(sp)
	sw	s0, 24(sp)
	.cfi_offset ra, -4
	.cfi_offset s0, -8
	addi	s0, sp, 32
	.cfi_def_cfa s0, 0
	sw	a0, -12(s0)
	sw	a1, -16(s0)
.Ltmp331:
	.loc	7 151 7 prologue_end            # C:/Vega/rv32m1_sdk_riscv/devices/RV32M1/drivers/fsl_lpuart.c:151:7
	lw	a0, -16(s0)
	mv	a1, zero
	.loc	7 151 6 is_stmt 0               # C:/Vega/rv32m1_sdk_riscv/devices/RV32M1/drivers/fsl_lpuart.c:151:6
	beq	a0, a1, .LBB28_2
	j	.LBB28_1
.LBB28_1:                               # %cond.true
	j	.LBB28_3
.LBB28_2:                               # %cond.false
	.loc	7 151 27                        # C:/Vega/rv32m1_sdk_riscv/devices/RV32M1/drivers/fsl_lpuart.c:151:27
	lui	a0, %hi(.L.str)
	addi	a0, a0, %lo(.L.str)
	lui	a1, %hi(.L__func__.LPUART_TransferIsRxRingBufferFull)
	addi	a2, a1, %lo(.L__func__.LPUART_TransferIsRxRingBufferFull)
	lui	a1, %hi(.L.str.8)
	addi	a3, a1, %lo(.L.str.8)
	addi	a1, zero, 151
	call	__assert_func
.LBB28_3:                               # %cond.end
.Ltmp332:
	.loc	7 155 46 is_stmt 1              # C:/Vega/rv32m1_sdk_riscv/devices/RV32M1/drivers/fsl_lpuart.c:155:46
	lw	a0, -12(s0)
	.loc	7 155 52 is_stmt 0              # C:/Vega/rv32m1_sdk_riscv/devices/RV32M1/drivers/fsl_lpuart.c:155:52
	lw	a1, -16(s0)
	.loc	7 155 9                         # C:/Vega/rv32m1_sdk_riscv/devices/RV32M1/drivers/fsl_lpuart.c:155:9
	call	LPUART_TransferGetRxRingBufferLength
	.loc	7 155 64                        # C:/Vega/rv32m1_sdk_riscv/devices/RV32M1/drivers/fsl_lpuart.c:155:64
	lw	a1, -16(s0)
	.loc	7 155 72                        # C:/Vega/rv32m1_sdk_riscv/devices/RV32M1/drivers/fsl_lpuart.c:155:72
	lw	a1, 28(a1)
	.loc	7 155 89                        # C:/Vega/rv32m1_sdk_riscv/devices/RV32M1/drivers/fsl_lpuart.c:155:89
	addi	a1, a1, -1
.Ltmp333:
	.loc	7 155 9                         # C:/Vega/rv32m1_sdk_riscv/devices/RV32M1/drivers/fsl_lpuart.c:155:9
	bne	a0, a1, .LBB28_5
	j	.LBB28_4
.LBB28_4:                               # %if.then
	.loc	7 0 9                           # C:/Vega/rv32m1_sdk_riscv/devices/RV32M1/drivers/fsl_lpuart.c:0:9
	addi	a0, zero, 1
.Ltmp334:
	.loc	7 157 14 is_stmt 1              # C:/Vega/rv32m1_sdk_riscv/devices/RV32M1/drivers/fsl_lpuart.c:157:14
	sb	a0, -17(s0)
	.loc	7 158 5                         # C:/Vega/rv32m1_sdk_riscv/devices/RV32M1/drivers/fsl_lpuart.c:158:5
	j	.LBB28_6
.Ltmp335:
.LBB28_5:                               # %if.else
	.loc	7 0 5 is_stmt 0                 # C:/Vega/rv32m1_sdk_riscv/devices/RV32M1/drivers/fsl_lpuart.c:0:5
	mv	a0, zero
.Ltmp336:
	.loc	7 161 14 is_stmt 1              # C:/Vega/rv32m1_sdk_riscv/devices/RV32M1/drivers/fsl_lpuart.c:161:14
	sb	a0, -17(s0)
	j	.LBB28_6
.Ltmp337:
.LBB28_6:                               # %if.end
	.loc	7 163 5                         # C:/Vega/rv32m1_sdk_riscv/devices/RV32M1/drivers/fsl_lpuart.c:163:5
	lbu	a0, -17(s0)
	andi	a0, a0, 1
	lw	s0, 24(sp)
	lw	ra, 28(sp)
	addi	sp, sp, 32
	ret
.Ltmp338:
.Lfunc_end28:
	.size	LPUART_TransferIsRxRingBufferFull, .Lfunc_end28-LPUART_TransferIsRxRingBufferFull
	.cfi_endproc
                                        # -- End function
	.section	.text.LPUART_WriteNonBlocking,"ax",@progbits
	.p2align	2                               # -- Begin function LPUART_WriteNonBlocking
	.type	LPUART_WriteNonBlocking,@function
LPUART_WriteNonBlocking:                # @LPUART_WriteNonBlocking
.Lfunc_begin29:
	.loc	7 167 0                         # C:/Vega/rv32m1_sdk_riscv/devices/RV32M1/drivers/fsl_lpuart.c:167:0
	.cfi_startproc
# %bb.0:                                # %entry
	addi	sp, sp, -32
	.cfi_def_cfa_offset 32
	sw	ra, 28(sp)
	sw	s0, 24(sp)
	.cfi_offset ra, -4
	.cfi_offset s0, -8
	addi	s0, sp, 32
	.cfi_def_cfa s0, 0
	sw	a0, -12(s0)
	sw	a1, -16(s0)
	sw	a2, -20(s0)
.Ltmp339:
	.loc	7 168 7 prologue_end            # C:/Vega/rv32m1_sdk_riscv/devices/RV32M1/drivers/fsl_lpuart.c:168:7
	lw	a0, -16(s0)
	mv	a1, zero
	.loc	7 168 6 is_stmt 0               # C:/Vega/rv32m1_sdk_riscv/devices/RV32M1/drivers/fsl_lpuart.c:168:6
	beq	a0, a1, .LBB29_2
	j	.LBB29_1
.LBB29_1:                               # %cond.true
	j	.LBB29_3
.LBB29_2:                               # %cond.false
	.loc	7 168 25                        # C:/Vega/rv32m1_sdk_riscv/devices/RV32M1/drivers/fsl_lpuart.c:168:25
	lui	a0, %hi(.L.str)
	addi	a0, a0, %lo(.L.str)
	lui	a1, %hi(.L__func__.LPUART_WriteNonBlocking)
	addi	a2, a1, %lo(.L__func__.LPUART_WriteNonBlocking)
	lui	a1, %hi(.L.str.7)
	addi	a3, a1, %lo(.L.str.7)
	addi	a1, zero, 168
	call	__assert_func
.LBB29_3:                               # %cond.end
	.loc	7 0 25                          # C:/Vega/rv32m1_sdk_riscv/devices/RV32M1/drivers/fsl_lpuart.c:0:25
	mv	a0, zero
.Ltmp340:
	.loc	7 174 12 is_stmt 1              # C:/Vega/rv32m1_sdk_riscv/devices/RV32M1/drivers/fsl_lpuart.c:174:12
	sw	a0, -24(s0)
	.loc	7 174 10 is_stmt 0              # C:/Vega/rv32m1_sdk_riscv/devices/RV32M1/drivers/fsl_lpuart.c:174:10
	j	.LBB29_4
.LBB29_4:                               # %for.cond
                                        # =>This Inner Loop Header: Depth=1
.Ltmp341:
	.loc	7 174 17                        # C:/Vega/rv32m1_sdk_riscv/devices/RV32M1/drivers/fsl_lpuart.c:174:17
	lw	a0, -24(s0)
	.loc	7 174 21                        # C:/Vega/rv32m1_sdk_riscv/devices/RV32M1/drivers/fsl_lpuart.c:174:21
	lw	a1, -20(s0)
.Ltmp342:
	.loc	7 174 5                         # C:/Vega/rv32m1_sdk_riscv/devices/RV32M1/drivers/fsl_lpuart.c:174:5
	bgeu	a0, a1, .LBB29_7
	j	.LBB29_5
.LBB29_5:                               # %for.body
                                        #   in Loop: Header=BB29_4 Depth=1
.Ltmp343:
	.loc	7 176 22 is_stmt 1              # C:/Vega/rv32m1_sdk_riscv/devices/RV32M1/drivers/fsl_lpuart.c:176:22
	lw	a0, -16(s0)
	.loc	7 176 27 is_stmt 0              # C:/Vega/rv32m1_sdk_riscv/devices/RV32M1/drivers/fsl_lpuart.c:176:27
	lw	a1, -24(s0)
	.loc	7 176 22                        # C:/Vega/rv32m1_sdk_riscv/devices/RV32M1/drivers/fsl_lpuart.c:176:22
	add	a0, a0, a1
	lbu	a0, 0(a0)
	.loc	7 176 9                         # C:/Vega/rv32m1_sdk_riscv/devices/RV32M1/drivers/fsl_lpuart.c:176:9
	lw	a1, -12(s0)
	.loc	7 176 20                        # C:/Vega/rv32m1_sdk_riscv/devices/RV32M1/drivers/fsl_lpuart.c:176:20
	sw	a0, 28(a1)
	.loc	7 177 5 is_stmt 1               # C:/Vega/rv32m1_sdk_riscv/devices/RV32M1/drivers/fsl_lpuart.c:177:5
	j	.LBB29_6
.Ltmp344:
.LBB29_6:                               # %for.inc
                                        #   in Loop: Header=BB29_4 Depth=1
	.loc	7 174 30                        # C:/Vega/rv32m1_sdk_riscv/devices/RV32M1/drivers/fsl_lpuart.c:174:30
	lw	a0, -24(s0)
	addi	a0, a0, 1
	sw	a0, -24(s0)
	.loc	7 174 5 is_stmt 0               # C:/Vega/rv32m1_sdk_riscv/devices/RV32M1/drivers/fsl_lpuart.c:174:5
	j	.LBB29_4
.Ltmp345:
.LBB29_7:                               # %for.end
	.loc	7 178 1 is_stmt 1               # C:/Vega/rv32m1_sdk_riscv/devices/RV32M1/drivers/fsl_lpuart.c:178:1
	lw	s0, 24(sp)
	lw	ra, 28(sp)
	addi	sp, sp, 32
	ret
.Ltmp346:
.Lfunc_end29:
	.size	LPUART_WriteNonBlocking, .Lfunc_end29-LPUART_WriteNonBlocking
	.cfi_endproc
                                        # -- End function
	.section	.text.LPUART_TransferHandleErrorIRQ,"ax",@progbits
	.globl	LPUART_TransferHandleErrorIRQ   # -- Begin function LPUART_TransferHandleErrorIRQ
	.p2align	2
	.type	LPUART_TransferHandleErrorIRQ,@function
LPUART_TransferHandleErrorIRQ:          # @LPUART_TransferHandleErrorIRQ
.Lfunc_begin30:
	.loc	7 1232 0                        # C:/Vega/rv32m1_sdk_riscv/devices/RV32M1/drivers/fsl_lpuart.c:1232:0
	.cfi_startproc
# %bb.0:                                # %entry
	addi	sp, sp, -16
	.cfi_def_cfa_offset 16
	sw	ra, 12(sp)
	sw	s0, 8(sp)
	.cfi_offset ra, -4
	.cfi_offset s0, -8
	addi	s0, sp, 16
	.cfi_def_cfa s0, 0
	sw	a0, -12(s0)
	sw	a1, -16(s0)
.Ltmp347:
	.loc	7 1234 1 prologue_end           # C:/Vega/rv32m1_sdk_riscv/devices/RV32M1/drivers/fsl_lpuart.c:1234:1
	lw	s0, 8(sp)
	lw	ra, 12(sp)
	addi	sp, sp, 16
	ret
.Ltmp348:
