	.text
	.attribute	4, 16
	.attribute	5, "rv32i2p0"
	.file	"fsl_gpio.c"
	.file	1 "C:\\Vega" "riscv32-unknown-elf-gcc\\riscv32-unknown-elf\\include\\machine\\_default_types.h"
	.file	2 "C:\\Vega" "riscv32-unknown-elf-gcc\\riscv32-unknown-elf\\include\\sys\\_stdint.h"
	.file	3 "C:/Vega/rv32m1_sdk_riscv/boards/rv32m1_vega/rtos_examples/freertos_hello/ri5cy/riscvgcc/../../../../../../devices/RV32M1" "RV32M1_ri5cy.h"
	.file	4 "C:/Vega/rv32m1_sdk_riscv/devices/RV32M1/drivers" "fsl_gpio.c"
	.file	5 "C:/Vega/rv32m1_sdk_riscv/boards/rv32m1_vega/rtos_examples/freertos_hello/ri5cy/riscvgcc/../../../../../../devices/RV32M1/drivers" "fsl_gpio.h"
	.section	.text.GPIO_PinInit,"ax",@progbits
	.globl	GPIO_PinInit                    # -- Begin function GPIO_PinInit
	.p2align	2
	.type	GPIO_PinInit,@function
GPIO_PinInit:                           # @GPIO_PinInit
.Lfunc_begin0:
	.loc	4 65 0                          # C:/Vega/rv32m1_sdk_riscv/devices/RV32M1/drivers/fsl_gpio.c:65:0
	.cfi_sections .debug_frame
	.cfi_startproc
# %bb.0:                                # %entry
	addi	sp, sp, -32
	.cfi_def_cfa_offset 32
	sw	ra, 28(sp)
	sw	s0, 24(sp)
	.cfi_offset ra, -4
	.cfi_offset s0, -8
	addi	s0, sp, 32
	.cfi_def_cfa s0, 0
	sw	a0, -12(s0)
	sw	a1, -16(s0)
	sw	a2, -20(s0)
.Ltmp0:
	.loc	4 66 7 prologue_end             # C:/Vega/rv32m1_sdk_riscv/devices/RV32M1/drivers/fsl_gpio.c:66:7
	lw	a0, -20(s0)
	mv	a1, zero
	.loc	4 66 6 is_stmt 0                # C:/Vega/rv32m1_sdk_riscv/devices/RV32M1/drivers/fsl_gpio.c:66:6
	beq	a0, a1, .LBB0_2
	j	.LBB0_1
.LBB0_1:                                # %cond.true
	j	.LBB0_3
.LBB0_2:                                # %cond.false
	.loc	4 66 27                         # C:/Vega/rv32m1_sdk_riscv/devices/RV32M1/drivers/fsl_gpio.c:66:27
	lui	a0, %hi(.L.str)
	addi	a0, a0, %lo(.L.str)
	lui	a1, %hi(.L__func__.GPIO_PinInit)
	addi	a2, a1, %lo(.L__func__.GPIO_PinInit)
	lui	a1, %hi(.L.str.1)
	addi	a3, a1, %lo(.L.str.1)
	addi	a1, zero, 66
	call	__assert_func
.LBB0_3:                                # %cond.end
.Ltmp1:
	.loc	4 68 9 is_stmt 1                # C:/Vega/rv32m1_sdk_riscv/devices/RV32M1/drivers/fsl_gpio.c:68:9
	lw	a0, -20(s0)
	.loc	4 68 17 is_stmt 0               # C:/Vega/rv32m1_sdk_riscv/devices/RV32M1/drivers/fsl_gpio.c:68:17
	lw	a0, 0(a0)
	mv	a1, zero
.Ltmp2:
	.loc	4 68 9                          # C:/Vega/rv32m1_sdk_riscv/devices/RV32M1/drivers/fsl_gpio.c:68:9
	bne	a0, a1, .LBB0_5
	j	.LBB0_4
.LBB0_4:                                # %if.then
.Ltmp3:
	.loc	4 70 31 is_stmt 1               # C:/Vega/rv32m1_sdk_riscv/devices/RV32M1/drivers/fsl_gpio.c:70:31
	lw	a0, -16(s0)
	addi	a1, zero, 1
	.loc	4 70 28 is_stmt 0               # C:/Vega/rv32m1_sdk_riscv/devices/RV32M1/drivers/fsl_gpio.c:70:28
	sll	a0, a1, a0
	.loc	4 70 23                         # C:/Vega/rv32m1_sdk_riscv/devices/RV32M1/drivers/fsl_gpio.c:70:23
	not	a0, a0
	.loc	4 70 9                          # C:/Vega/rv32m1_sdk_riscv/devices/RV32M1/drivers/fsl_gpio.c:70:9
	lw	a1, -12(s0)
	.loc	4 70 20                         # C:/Vega/rv32m1_sdk_riscv/devices/RV32M1/drivers/fsl_gpio.c:70:20
	lw	a2, 20(a1)
	and	a0, a2, a0
	sw	a0, 20(a1)
	.loc	4 71 5 is_stmt 1                # C:/Vega/rv32m1_sdk_riscv/devices/RV32M1/drivers/fsl_gpio.c:71:5
	j	.LBB0_6
.Ltmp4:
.LBB0_5:                                # %if.else
	.loc	4 74 29                         # C:/Vega/rv32m1_sdk_riscv/devices/RV32M1/drivers/fsl_gpio.c:74:29
	lw	a0, -12(s0)
	.loc	4 74 35 is_stmt 0               # C:/Vega/rv32m1_sdk_riscv/devices/RV32M1/drivers/fsl_gpio.c:74:35
	lw	a1, -16(s0)
	.loc	4 74 40                         # C:/Vega/rv32m1_sdk_riscv/devices/RV32M1/drivers/fsl_gpio.c:74:40
	lw	a2, -20(s0)
	.loc	4 74 48                         # C:/Vega/rv32m1_sdk_riscv/devices/RV32M1/drivers/fsl_gpio.c:74:48
	lbu	a2, 4(a2)
	.loc	4 74 9                          # C:/Vega/rv32m1_sdk_riscv/devices/RV32M1/drivers/fsl_gpio.c:74:9
	call	GPIO_WritePinOutput
	.loc	4 75 30 is_stmt 1               # C:/Vega/rv32m1_sdk_riscv/devices/RV32M1/drivers/fsl_gpio.c:75:30
	lw	a0, -16(s0)
	addi	a1, zero, 1
	.loc	4 75 27 is_stmt 0               # C:/Vega/rv32m1_sdk_riscv/devices/RV32M1/drivers/fsl_gpio.c:75:27
	sll	a0, a1, a0
	.loc	4 75 9                          # C:/Vega/rv32m1_sdk_riscv/devices/RV32M1/drivers/fsl_gpio.c:75:9
	lw	a1, -12(s0)
	.loc	4 75 20                         # C:/Vega/rv32m1_sdk_riscv/devices/RV32M1/drivers/fsl_gpio.c:75:20
	lw	a2, 20(a1)
	or	a0, a2, a0
	sw	a0, 20(a1)
	j	.LBB0_6
.Ltmp5:
.LBB0_6:                                # %if.end
	.loc	4 77 1 is_stmt 1                # C:/Vega/rv32m1_sdk_riscv/devices/RV32M1/drivers/fsl_gpio.c:77:1
	lw	s0, 24(sp)
	lw	ra, 28(sp)
	addi	sp, sp, 32
	ret
.Ltmp6:
.Lfunc_end0:
	.size	GPIO_PinInit, .Lfunc_end0-GPIO_PinInit
	.cfi_endproc
                                        # -- End function
	.section	.text.GPIO_WritePinOutput,"ax",@progbits
	.p2align	2                               # -- Begin function GPIO_WritePinOutput
	.type	GPIO_WritePinOutput,@function
GPIO_WritePinOutput:                    # @GPIO_WritePinOutput
.Lfunc_begin1:
	.loc	5 136 0                         # C:/Vega/rv32m1_sdk_riscv/boards/rv32m1_vega/rtos_examples/freertos_hello/ri5cy/riscvgcc/../../../../../../devices/RV32M1/drivers/fsl_gpio.h:136:0
	.cfi_startproc
# %bb.0:                                # %entry
	addi	sp, sp, -32
	.cfi_def_cfa_offset 32
	sw	ra, 28(sp)
	sw	s0, 24(sp)
	.cfi_offset ra, -4
	.cfi_offset s0, -8
	addi	s0, sp, 32
	.cfi_def_cfa s0, 0
	mv	a3, a2
	sw	a0, -12(s0)
	sw	a1, -16(s0)
	sb	a2, -17(s0)
.Ltmp7:
	.loc	5 137 9 prologue_end            # C:/Vega/rv32m1_sdk_riscv/boards/rv32m1_vega/rtos_examples/freertos_hello/ri5cy/riscvgcc/../../../../../../devices/RV32M1/drivers/fsl_gpio.h:137:9
	lbu	a0, -17(s0)
	mv	a1, zero
.Ltmp8:
	.loc	5 137 9 is_stmt 0               # C:/Vega/rv32m1_sdk_riscv/boards/rv32m1_vega/rtos_examples/freertos_hello/ri5cy/riscvgcc/../../../../../../devices/RV32M1/drivers/fsl_gpio.h:137:9
	bne	a0, a1, .LBB1_2
	j	.LBB1_1
.LBB1_1:                                # %if.then
.Ltmp9:
	.loc	5 139 28 is_stmt 1              # C:/Vega/rv32m1_sdk_riscv/boards/rv32m1_vega/rtos_examples/freertos_hello/ri5cy/riscvgcc/../../../../../../devices/RV32M1/drivers/fsl_gpio.h:139:28
	lw	a0, -16(s0)
	addi	a1, zero, 1
	.loc	5 139 25 is_stmt 0              # C:/Vega/rv32m1_sdk_riscv/boards/rv32m1_vega/rtos_examples/freertos_hello/ri5cy/riscvgcc/../../../../../../devices/RV32M1/drivers/fsl_gpio.h:139:25
	sll	a0, a1, a0
	.loc	5 139 9                         # C:/Vega/rv32m1_sdk_riscv/boards/rv32m1_vega/rtos_examples/freertos_hello/ri5cy/riscvgcc/../../../../../../devices/RV32M1/drivers/fsl_gpio.h:139:9
	lw	a1, -12(s0)
	.loc	5 139 20                        # C:/Vega/rv32m1_sdk_riscv/boards/rv32m1_vega/rtos_examples/freertos_hello/ri5cy/riscvgcc/../../../../../../devices/RV32M1/drivers/fsl_gpio.h:139:20
	sw	a0, 8(a1)
	.loc	5 140 5 is_stmt 1               # C:/Vega/rv32m1_sdk_riscv/boards/rv32m1_vega/rtos_examples/freertos_hello/ri5cy/riscvgcc/../../../../../../devices/RV32M1/drivers/fsl_gpio.h:140:5
	j	.LBB1_3
.Ltmp10:
.LBB1_2:                                # %if.else
	.loc	5 143 28                        # C:/Vega/rv32m1_sdk_riscv/boards/rv32m1_vega/rtos_examples/freertos_hello/ri5cy/riscvgcc/../../../../../../devices/RV32M1/drivers/fsl_gpio.h:143:28
	lw	a0, -16(s0)
	addi	a1, zero, 1
	.loc	5 143 25 is_stmt 0              # C:/Vega/rv32m1_sdk_riscv/boards/rv32m1_vega/rtos_examples/freertos_hello/ri5cy/riscvgcc/../../../../../../devices/RV32M1/drivers/fsl_gpio.h:143:25
	sll	a0, a1, a0
	.loc	5 143 9                         # C:/Vega/rv32m1_sdk_riscv/boards/rv32m1_vega/rtos_examples/freertos_hello/ri5cy/riscvgcc/../../../../../../devices/RV32M1/drivers/fsl_gpio.h:143:9
	lw	a1, -12(s0)
	.loc	5 143 20                        # C:/Vega/rv32m1_sdk_riscv/boards/rv32m1_vega/rtos_examples/freertos_hello/ri5cy/riscvgcc/../../../../../../devices/RV32M1/drivers/fsl_gpio.h:143:20
	sw	a0, 4(a1)
	j	.LBB1_3
.Ltmp11:
.LBB1_3:                                # %if.end
	.loc	5 145 1 is_stmt 1               # C:/Vega/rv32m1_sdk_riscv/boards/rv32m1_vega/rtos_examples/freertos_hello/ri5cy/riscvgcc/../../../../../../devices/RV32M1/drivers/fsl_gpio.h:145:1
	lw	s0, 24(sp)
	lw	ra, 28(sp)
	addi	sp, sp, 32
	ret
.Ltmp12:
.Lfunc_end1:
	.size	GPIO_WritePinOutput, .Lfunc_end1-GPIO_WritePinOutput
	.cfi_endproc
                                        # -- End function
	.section	.text.GPIO_GetPinsInterruptFlags,"ax",@progbits
	.globl	GPIO_GetPinsInterruptFlags      # -- Begin function GPIO_GetPinsInterruptFlags
	.p2align	2
	.type	GPIO_GetPinsInterruptFlags,@function
GPIO_GetPinsInterruptFlags:             # @GPIO_GetPinsInterruptFlags
.Lfunc_begin2:
	.loc	4 80 0                          # C:/Vega/rv32m1_sdk_riscv/devices/RV32M1/drivers/fsl_gpio.c:80:0
	.cfi_startproc
# %bb.0:                                # %entry
	addi	sp, sp, -32
	.cfi_def_cfa_offset 32
	sw	ra, 28(sp)
	sw	s0, 24(sp)
	.cfi_offset ra, -4
	.cfi_offset s0, -8
	addi	s0, sp, 32
	.cfi_def_cfa s0, 0
	sw	a0, -12(s0)
.Ltmp13:
	.loc	4 83 33 prologue_end            # C:/Vega/rv32m1_sdk_riscv/devices/RV32M1/drivers/fsl_gpio.c:83:33
	lw	a0, -12(s0)
	.loc	4 83 16 is_stmt 0               # C:/Vega/rv32m1_sdk_riscv/devices/RV32M1/drivers/fsl_gpio.c:83:16
	call	GPIO_GetInstance
	.loc	4 83 14                         # C:/Vega/rv32m1_sdk_riscv/devices/RV32M1/drivers/fsl_gpio.c:83:14
	sb	a0, -13(s0)
	.loc	4 84 28 is_stmt 1               # C:/Vega/rv32m1_sdk_riscv/devices/RV32M1/drivers/fsl_gpio.c:84:28
	lbu	a0, -13(s0)
	.loc	4 84 16 is_stmt 0               # C:/Vega/rv32m1_sdk_riscv/devices/RV32M1/drivers/fsl_gpio.c:84:16
	lui	a1, %hi(s_portBases)
	addi	a1, a1, %lo(s_portBases)
	slli	a0, a0, 2
	add	a0, a0, a1
	lw	a0, 0(a0)
	.loc	4 84 14                         # C:/Vega/rv32m1_sdk_riscv/devices/RV32M1/drivers/fsl_gpio.c:84:14
	sw	a0, -20(s0)
	.loc	4 85 12 is_stmt 1               # C:/Vega/rv32m1_sdk_riscv/devices/RV32M1/drivers/fsl_gpio.c:85:12
	lw	a0, -20(s0)
	.loc	4 85 22 is_stmt 0               # C:/Vega/rv32m1_sdk_riscv/devices/RV32M1/drivers/fsl_gpio.c:85:22
	lw	a0, 160(a0)
	.loc	4 85 5                          # C:/Vega/rv32m1_sdk_riscv/devices/RV32M1/drivers/fsl_gpio.c:85:5
	lw	s0, 24(sp)
	lw	ra, 28(sp)
	addi	sp, sp, 32
	ret
.Ltmp14:
.Lfunc_end2:
	.size	GPIO_GetPinsInterruptFlags, .Lfunc_end2-GPIO_GetPinsInterruptFlags
	.cfi_endproc
                                        # -- End function
	.section	.text.GPIO_GetInstance,"ax",@progbits
	.p2align	2                               # -- Begin function GPIO_GetInstance
	.type	GPIO_GetInstance,@function
GPIO_GetInstance:                       # @GPIO_GetInstance
.Lfunc_begin3:
	.loc	4 47 0 is_stmt 1                # C:/Vega/rv32m1_sdk_riscv/devices/RV32M1/drivers/fsl_gpio.c:47:0
	.cfi_startproc
# %bb.0:                                # %entry
	addi	sp, sp, -16
	.cfi_def_cfa_offset 16
	sw	ra, 12(sp)
	sw	s0, 8(sp)
	.cfi_offset ra, -4
	.cfi_offset s0, -8
	addi	s0, sp, 16
	.cfi_def_cfa s0, 0
	sw	a0, -12(s0)
	mv	a0, zero
.Ltmp15:
	.loc	4 51 19 prologue_end            # C:/Vega/rv32m1_sdk_riscv/devices/RV32M1/drivers/fsl_gpio.c:51:19
	sw	a0, -16(s0)
	.loc	4 51 10 is_stmt 0               # C:/Vega/rv32m1_sdk_riscv/devices/RV32M1/drivers/fsl_gpio.c:51:10
	j	.LBB3_1
.LBB3_1:                                # %for.cond
                                        # =>This Inner Loop Header: Depth=1
.Ltmp16:
	.loc	4 51 24                         # C:/Vega/rv32m1_sdk_riscv/devices/RV32M1/drivers/fsl_gpio.c:51:24
	lw	a0, -16(s0)
	addi	a1, zero, 4
.Ltmp17:
	.loc	4 51 5                          # C:/Vega/rv32m1_sdk_riscv/devices/RV32M1/drivers/fsl_gpio.c:51:5
	bltu	a1, a0, .LBB3_6
	j	.LBB3_2
.LBB3_2:                                # %for.body
                                        #   in Loop: Header=BB3_1 Depth=1
.Ltmp18:
	.loc	4 53 25 is_stmt 1               # C:/Vega/rv32m1_sdk_riscv/devices/RV32M1/drivers/fsl_gpio.c:53:25
	lw	a0, -16(s0)
	.loc	4 53 13 is_stmt 0               # C:/Vega/rv32m1_sdk_riscv/devices/RV32M1/drivers/fsl_gpio.c:53:13
	lui	a1, %hi(s_gpioBases)
	addi	a1, a1, %lo(s_gpioBases)
	slli	a0, a0, 2
	add	a0, a0, a1
	lw	a0, 0(a0)
	.loc	4 53 38                         # C:/Vega/rv32m1_sdk_riscv/devices/RV32M1/drivers/fsl_gpio.c:53:38
	lw	a1, -12(s0)
.Ltmp19:
	.loc	4 53 13                         # C:/Vega/rv32m1_sdk_riscv/devices/RV32M1/drivers/fsl_gpio.c:53:13
	bne	a0, a1, .LBB3_4
	j	.LBB3_3
.LBB3_3:                                # %if.then
.Ltmp20:
	.loc	4 55 13 is_stmt 1               # C:/Vega/rv32m1_sdk_riscv/devices/RV32M1/drivers/fsl_gpio.c:55:13
	j	.LBB3_6
.Ltmp21:
.LBB3_4:                                # %if.end
                                        #   in Loop: Header=BB3_1 Depth=1
	.loc	4 57 5                          # C:/Vega/rv32m1_sdk_riscv/devices/RV32M1/drivers/fsl_gpio.c:57:5
	j	.LBB3_5
.Ltmp22:
.LBB3_5:                                # %for.inc
                                        #   in Loop: Header=BB3_1 Depth=1
	.loc	4 51 93                         # C:/Vega/rv32m1_sdk_riscv/devices/RV32M1/drivers/fsl_gpio.c:51:93
	lw	a0, -16(s0)
	addi	a0, a0, 1
	sw	a0, -16(s0)
	.loc	4 51 5 is_stmt 0                # C:/Vega/rv32m1_sdk_riscv/devices/RV32M1/drivers/fsl_gpio.c:51:5
	j	.LBB3_1
.Ltmp23:
.LBB3_6:                                # %for.end
	.loc	4 59 7 is_stmt 1                # C:/Vega/rv32m1_sdk_riscv/devices/RV32M1/drivers/fsl_gpio.c:59:7
	lw	a0, -16(s0)
	addi	a1, zero, 4
	.loc	4 59 6 is_stmt 0                # C:/Vega/rv32m1_sdk_riscv/devices/RV32M1/drivers/fsl_gpio.c:59:6
	bltu	a1, a0, .LBB3_8
	j	.LBB3_7
.LBB3_7:                                # %cond.true
	j	.LBB3_9
.LBB3_8:                                # %cond.false
	.loc	4 59 80                         # C:/Vega/rv32m1_sdk_riscv/devices/RV32M1/drivers/fsl_gpio.c:59:80
	lui	a0, %hi(.L.str)
	addi	a0, a0, %lo(.L.str)
	lui	a1, %hi(.L__func__.GPIO_GetInstance)
	addi	a2, a1, %lo(.L__func__.GPIO_GetInstance)
	lui	a1, %hi(.L.str.2)
	addi	a3, a1, %lo(.L.str.2)
	addi	a1, zero, 59
	call	__assert_func
.LBB3_9:                                # %cond.end
	.loc	4 61 12 is_stmt 1               # C:/Vega/rv32m1_sdk_riscv/devices/RV32M1/drivers/fsl_gpio.c:61:12
	lw	a0, -16(s0)
	.loc	4 61 5 is_stmt 0                # C:/Vega/rv32m1_sdk_riscv/devices/RV32M1/drivers/fsl_gpio.c:61:5
	lw	s0, 8(sp)
	lw	ra, 12(sp)
	addi	sp, sp, 16
	ret
.Ltmp24:
.Lfunc_end3:
	.size	GPIO_GetInstance, .Lfunc_end3-GPIO_GetInstance
	.cfi_endproc
                                        # -- End function
	.section	.text.GPIO_ClearPinsInterruptFlags,"ax",@progbits
	.globl	GPIO_ClearPinsInterruptFlags    # -- Begin function GPIO_ClearPinsInterruptFlags
	.p2align	2
	.type	GPIO_ClearPinsInterruptFlags,@function
GPIO_ClearPinsInterruptFlags:           # @GPIO_ClearPinsInterruptFlags
.Lfunc_begin4:
	.loc	4 89 0 is_stmt 1                # C:/Vega/rv32m1_sdk_riscv/devices/RV32M1/drivers/fsl_gpio.c:89:0
	.cfi_startproc
# %bb.0:                                # %entry
	addi	sp, sp, -32
	.cfi_def_cfa_offset 32
	sw	ra, 28(sp)
	sw	s0, 24(sp)
	.cfi_offset ra, -4
	.cfi_offset s0, -8
	addi	s0, sp, 32
	.cfi_def_cfa s0, 0
	sw	a0, -12(s0)
	sw	a1, -16(s0)
.Ltmp25:
	.loc	4 92 33 prologue_end            # C:/Vega/rv32m1_sdk_riscv/devices/RV32M1/drivers/fsl_gpio.c:92:33
	lw	a0, -12(s0)
	.loc	4 92 16 is_stmt 0               # C:/Vega/rv32m1_sdk_riscv/devices/RV32M1/drivers/fsl_gpio.c:92:16
	call	GPIO_GetInstance
	.loc	4 92 14                         # C:/Vega/rv32m1_sdk_riscv/devices/RV32M1/drivers/fsl_gpio.c:92:14
	sb	a0, -17(s0)
	.loc	4 93 28 is_stmt 1               # C:/Vega/rv32m1_sdk_riscv/devices/RV32M1/drivers/fsl_gpio.c:93:28
	lbu	a0, -17(s0)
	.loc	4 93 16 is_stmt 0               # C:/Vega/rv32m1_sdk_riscv/devices/RV32M1/drivers/fsl_gpio.c:93:16
	lui	a1, %hi(s_portBases)
	addi	a1, a1, %lo(s_portBases)
	slli	a0, a0, 2
	add	a0, a0, a1
	lw	a0, 0(a0)
	.loc	4 93 14                         # C:/Vega/rv32m1_sdk_riscv/devices/RV32M1/drivers/fsl_gpio.c:93:14
	sw	a0, -24(s0)
	.loc	4 94 22 is_stmt 1               # C:/Vega/rv32m1_sdk_riscv/devices/RV32M1/drivers/fsl_gpio.c:94:22
	lw	a0, -16(s0)
	.loc	4 94 5 is_stmt 0                # C:/Vega/rv32m1_sdk_riscv/devices/RV32M1/drivers/fsl_gpio.c:94:5
	lw	a1, -24(s0)
	.loc	4 94 20                         # C:/Vega/rv32m1_sdk_riscv/devices/RV32M1/drivers/fsl_gpio.c:94:20
	sw	a0, 160(a1)
	.loc	4 95 1 is_stmt 1                # C:/Vega/rv32m1_sdk_riscv/devices/RV32M1/drivers/fsl_gpio.c:95:1
	lw	s0, 24(sp)
	lw	ra, 28(sp)
	addi	sp, sp, 32
	ret
.Ltmp26:
.Lfunc_end4:
	.size	GPIO_ClearPinsInterruptFlags, .Lfunc_end4-GPIO_ClearPinsInterruptFlags
	.cfi_endproc
                                        # -- End function
	.type	.L.str,@object                  # @.str
	.section	.rodata.str1.1,"aMS",@progbits,1
.L.str:
	.asciz	"C:/Vega/rv32m1_sdk_riscv/devices/RV32M1/drivers/fsl_gpio.c"
	.size	.L.str, 59

	.type	.L__func__.GPIO_PinInit,@object # @__func__.GPIO_PinInit
.L__func__.GPIO_PinInit:
	.asciz	"GPIO_PinInit"
	.size	.L__func__.GPIO_PinInit, 13

	.type	.L.str.1,@object                # @.str.1
.L.str.1:
	.asciz	"config"
	.size	.L.str.1, 7

	.type	s_portBases,@object             # @s_portBases
	.section	.rodata.s_portBases,"a",@progbits
	.p2align	2
s_portBases:
	.word	1074028544
	.word	1074032640
	.word	1074036736
	.word	1074040832
	.word	1090744320
	.size	s_portBases, 20

	.type	s_gpioBases,@object             # @s_gpioBases
	.section	.rodata.s_gpioBases,"a",@progbits
	.p2align	2
s_gpioBases:
	.word	1208090624
	.word	1208090688
	.word	1208090752
	.word	1208090816
	.word	1090580480
	.size	s_gpioBases, 20

	.type	.L__func__.GPIO_GetInstance,@object # @__func__.GPIO_GetInstance
	.section	.rodata.str1.1,"aMS",@progbits,1
.L__func__.GPIO_GetInstance:
	.asciz	"GPIO_GetInstance"
	.size	.L__func__.GPIO_GetInstance, 17

	.type	.L.str.2,@object                # @.str.2
.L.str.2:
	.asciz	"instance < ARRAY_SIZE(s_gpioBases)"
	.size	.L.str.2, 35

	.section	".note.GNU-stack","",@progbits
	.addrsig
	.addrsig_sym __assert_func
	.addrsig_sym GPIO_WritePinOutput
	.addrsig_sym GPIO_GetInstance
	.addrsig_sym s_portBases
	.addrsig_sym s_gpioBases