	.text
	.attribute	4, 16
	.attribute	5, "rv32i2p0"
	.file	"fsl_io.c"
	.file	1 "C:/Vega/rv32m1_sdk_riscv/boards/rv32m1_vega/rtos_examples/freertos_hello/ri5cy/riscvgcc/../../../../../../devices/RV32M1/utilities" "fsl_io.h"
	.file	2 "C:\\Vega" "riscv32-unknown-elf-gcc\\riscv32-unknown-elf\\include\\machine\\_default_types.h"
	.file	3 "C:\\Vega" "riscv32-unknown-elf-gcc\\riscv32-unknown-elf\\include\\sys\\_stdint.h"
	.file	4 "C:/Vega/rv32m1_sdk_riscv/devices/RV32M1/utilities" "fsl_io.c"
	.file	5 "C:/Vega/rv32m1_sdk_riscv/boards/rv32m1_vega/rtos_examples/freertos_hello/ri5cy/riscvgcc/../../../../../../devices/RV32M1/drivers" "fsl_lpuart.h"
	.file	6 "C:/Vega/rv32m1_sdk_riscv/boards/rv32m1_vega/rtos_examples/freertos_hello/ri5cy/riscvgcc/../../../../../../devices/RV32M1/drivers" "fsl_common.h"
	.file	7 "C:/Vega/rv32m1_sdk_riscv/boards/rv32m1_vega/rtos_examples/freertos_hello/ri5cy/riscvgcc/../../../../../../devices/RV32M1" "RV32M1_ri5cy.h"
	.section	.text.IO_Init,"ax",@progbits
	.globl	IO_Init                         # -- Begin function IO_Init
	.p2align	2
	.type	IO_Init,@function
IO_Init:                                # @IO_Init
.Lfunc_begin0:
	.loc	4 213 0                         # C:/Vega/rv32m1_sdk_riscv/devices/RV32M1/utilities/fsl_io.c:213:0
	.cfi_sections .debug_frame
	.cfi_startproc
# %bb.0:                                # %entry
	addi	sp, sp, -96
	.cfi_def_cfa_offset 96
	sw	ra, 92(sp)
	sw	s0, 88(sp)
	.cfi_offset ra, -4
	.cfi_offset s0, -8
	addi	s0, sp, 96
	.cfi_def_cfa s0, 0
	sw	a0, -12(s0)
	sw	a1, -16(s0)
	sw	a2, -20(s0)
	sw	a3, -24(s0)
.Ltmp0:
	.loc	4 214 21 prologue_end           # C:/Vega/rv32m1_sdk_riscv/devices/RV32M1/utilities/fsl_io.c:214:21
	lw	a0, -12(s0)
	mv	a1, zero
	.loc	4 214 6 is_stmt 0               # C:/Vega/rv32m1_sdk_riscv/devices/RV32M1/utilities/fsl_io.c:214:6
	beq	a0, a1, .LBB0_2
	j	.LBB0_1
.LBB0_1:                                # %cond.true
	j	.LBB0_3
.LBB0_2:                                # %cond.false
	.loc	4 214 37                        # C:/Vega/rv32m1_sdk_riscv/devices/RV32M1/utilities/fsl_io.c:214:37
	lui	a0, %hi(.L.str)
	addi	a0, a0, %lo(.L.str)
	lui	a1, %hi(.L__func__.IO_Init)
	addi	a2, a1, %lo(.L__func__.IO_Init)
	lui	a1, %hi(.L.str.1)
	addi	a3, a1, %lo(.L.str.1)
	addi	a1, zero, 214
	call	__assert_func
.LBB0_3:                                # %cond.end
	.loc	4 217 31 is_stmt 1              # C:/Vega/rv32m1_sdk_riscv/devices/RV32M1/utilities/fsl_io.c:217:31
	lw	a0, -12(s0)
	.loc	4 217 35 is_stmt 0              # C:/Vega/rv32m1_sdk_riscv/devices/RV32M1/utilities/fsl_io.c:217:35
	lb	a0, 4(a0)
	lui	a1, %hi(s_debugConsoleIO)
	addi	a2, a1, %lo(s_debugConsoleIO)
	.loc	4 217 29                        # C:/Vega/rv32m1_sdk_riscv/devices/RV32M1/utilities/fsl_io.c:217:29
	sb	a0, 4(a2)
	.loc	4 218 40 is_stmt 1              # C:/Vega/rv32m1_sdk_riscv/devices/RV32M1/utilities/fsl_io.c:218:40
	lw	a0, -12(s0)
	.loc	4 218 44 is_stmt 0              # C:/Vega/rv32m1_sdk_riscv/devices/RV32M1/utilities/fsl_io.c:218:44
	lw	a0, 0(a0)
	.loc	4 218 29                        # C:/Vega/rv32m1_sdk_riscv/devices/RV32M1/utilities/fsl_io.c:218:29
	sw	a0, %lo(s_debugConsoleIO)(a1)
	.loc	4 220 30 is_stmt 1              # C:/Vega/rv32m1_sdk_riscv/devices/RV32M1/utilities/fsl_io.c:220:30
	lbu	a0, 4(a2)
	addi	a1, zero, 2
	.loc	4 220 5 is_stmt 0               # C:/Vega/rv32m1_sdk_riscv/devices/RV32M1/utilities/fsl_io.c:220:5
	bne	a0, a1, .LBB0_5
	j	.LBB0_4
.LBB0_4:                                # %sw.bb
	.loc	4 0 5                           # C:/Vega/rv32m1_sdk_riscv/devices/RV32M1/utilities/fsl_io.c:0:5
	addi	a0, s0, -72
.Ltmp1:
	.loc	4 249 13 is_stmt 1              # C:/Vega/rv32m1_sdk_riscv/devices/RV32M1/utilities/fsl_io.c:249:13
	sw	a0, -76(s0)
	call	LPUART_GetDefaultConfig
	.loc	4 250 42                        # C:/Vega/rv32m1_sdk_riscv/devices/RV32M1/utilities/fsl_io.c:250:42
	lw	a0, -16(s0)
	.loc	4 250 40 is_stmt 0              # C:/Vega/rv32m1_sdk_riscv/devices/RV32M1/utilities/fsl_io.c:250:40
	sw	a0, -72(s0)
	.loc	4 252 57 is_stmt 1              # C:/Vega/rv32m1_sdk_riscv/devices/RV32M1/utilities/fsl_io.c:252:57
	lui	a0, %hi(s_debugConsoleIO)
	lw	a1, %lo(s_debugConsoleIO)(a0)
	.loc	4 252 81 is_stmt 0              # C:/Vega/rv32m1_sdk_riscv/devices/RV32M1/utilities/fsl_io.c:252:81
	lw	a2, -20(s0)
	.loc	4 252 13                        # C:/Vega/rv32m1_sdk_riscv/devices/RV32M1/utilities/fsl_io.c:252:13
	sw	a0, -80(s0)
	mv	a0, a1
	lw	a1, -76(s0)
	call	LPUART_Init
	.loc	4 253 46 is_stmt 1              # C:/Vega/rv32m1_sdk_riscv/devices/RV32M1/utilities/fsl_io.c:253:46
	lw	a1, -80(s0)
	lw	a2, %lo(s_debugConsoleIO)(a1)
	addi	a3, zero, 1
	.loc	4 253 13 is_stmt 0              # C:/Vega/rv32m1_sdk_riscv/devices/RV32M1/utilities/fsl_io.c:253:13
	sw	a0, -84(s0)
	mv	a0, a2
	mv	a1, a3
	sw	a3, -88(s0)
	call	LPUART_EnableTx
	.loc	4 254 46 is_stmt 1              # C:/Vega/rv32m1_sdk_riscv/devices/RV32M1/utilities/fsl_io.c:254:46
	lw	a0, -80(s0)
	lw	a0, %lo(s_debugConsoleIO)(a0)
	.loc	4 254 13 is_stmt 0              # C:/Vega/rv32m1_sdk_riscv/devices/RV32M1/utilities/fsl_io.c:254:13
	lw	a1, -88(s0)
	call	LPUART_EnableRx
.Ltmp2:
	.loc	4 264 9 is_stmt 1               # C:/Vega/rv32m1_sdk_riscv/devices/RV32M1/utilities/fsl_io.c:264:9
	j	.LBB0_5
.Ltmp3:
.LBB0_5:                                # %sw.epilog
	.loc	4 335 1                         # C:/Vega/rv32m1_sdk_riscv/devices/RV32M1/utilities/fsl_io.c:335:1
	lw	s0, 88(sp)
	lw	ra, 92(sp)
	addi	sp, sp, 96
	ret
.Ltmp4:
.Lfunc_end0:
	.size	IO_Init, .Lfunc_end0-IO_Init
	.cfi_endproc
                                        # -- End function
	.section	.text.LPUART_EnableTx,"ax",@progbits
	.p2align	2                               # -- Begin function LPUART_EnableTx
	.type	LPUART_EnableTx,@function
LPUART_EnableTx:                        # @LPUART_EnableTx
.Lfunc_begin1:
	.loc	5 542 0                         # C:/Vega/rv32m1_sdk_riscv/boards/rv32m1_vega/rtos_examples/freertos_hello/ri5cy/riscvgcc/../../../../../../devices/RV32M1/drivers\fsl_lpuart.h:542:0
	.cfi_startproc
# %bb.0:                                # %entry
	addi	sp, sp, -16
	.cfi_def_cfa_offset 16
	sw	ra, 12(sp)
	sw	s0, 8(sp)
	.cfi_offset ra, -4
	.cfi_offset s0, -8
	addi	s0, sp, 16
	.cfi_def_cfa s0, 0
	mv	a2, a1
	sw	a0, -12(s0)
	sb	a1, -13(s0)
.Ltmp5:
	.loc	5 543 9 prologue_end            # C:/Vega/rv32m1_sdk_riscv/boards/rv32m1_vega/rtos_examples/freertos_hello/ri5cy/riscvgcc/../../../../../../devices/RV32M1/drivers\fsl_lpuart.h:543:9
	lbu	a0, -13(s0)
	andi	a0, a0, 1
	mv	a1, zero
.Ltmp6:
	.loc	5 543 9 is_stmt 0               # C:/Vega/rv32m1_sdk_riscv/boards/rv32m1_vega/rtos_examples/freertos_hello/ri5cy/riscvgcc/../../../../../../devices/RV32M1/drivers\fsl_lpuart.h:543:9
	beq	a0, a1, .LBB1_2
	j	.LBB1_1
.LBB1_1:                                # %if.then
.Ltmp7:
	.loc	5 545 9 is_stmt 1               # C:/Vega/rv32m1_sdk_riscv/boards/rv32m1_vega/rtos_examples/freertos_hello/ri5cy/riscvgcc/../../../../../../devices/RV32M1/drivers\fsl_lpuart.h:545:9
	lw	a0, -12(s0)
	.loc	5 545 20 is_stmt 0              # C:/Vega/rv32m1_sdk_riscv/boards/rv32m1_vega/rtos_examples/freertos_hello/ri5cy/riscvgcc/../../../../../../devices/RV32M1/drivers\fsl_lpuart.h:545:20
	lw	a1, 24(a0)
	lui	a2, 128
	or	a1, a1, a2
	sw	a1, 24(a0)
	.loc	5 546 5 is_stmt 1               # C:/Vega/rv32m1_sdk_riscv/boards/rv32m1_vega/rtos_examples/freertos_hello/ri5cy/riscvgcc/../../../../../../devices/RV32M1/drivers\fsl_lpuart.h:546:5
	j	.LBB1_3
.Ltmp8:
.LBB1_2:                                # %if.else
	.loc	5 549 9                         # C:/Vega/rv32m1_sdk_riscv/boards/rv32m1_vega/rtos_examples/freertos_hello/ri5cy/riscvgcc/../../../../../../devices/RV32M1/drivers\fsl_lpuart.h:549:9
	lw	a0, -12(s0)
	.loc	5 549 20 is_stmt 0              # C:/Vega/rv32m1_sdk_riscv/boards/rv32m1_vega/rtos_examples/freertos_hello/ri5cy/riscvgcc/../../../../../../devices/RV32M1/drivers\fsl_lpuart.h:549:20
	lw	a1, 24(a0)
	lui	a2, 1048448
	addi	a2, a2, -1
	and	a1, a1, a2
	sw	a1, 24(a0)
	j	.LBB1_3
.Ltmp9:
.LBB1_3:                                # %if.end
	.loc	5 551 1 is_stmt 1               # C:/Vega/rv32m1_sdk_riscv/boards/rv32m1_vega/rtos_examples/freertos_hello/ri5cy/riscvgcc/../../../../../../devices/RV32M1/drivers\fsl_lpuart.h:551:1
	lw	s0, 8(sp)
	lw	ra, 12(sp)
	addi	sp, sp, 16
	ret
.Ltmp10:
.Lfunc_end1:
	.size	LPUART_EnableTx, .Lfunc_end1-LPUART_EnableTx
	.cfi_endproc
                                        # -- End function
	.section	.text.LPUART_EnableRx,"ax",@progbits
	.p2align	2                               # -- Begin function LPUART_EnableRx
	.type	LPUART_EnableRx,@function
LPUART_EnableRx:                        # @LPUART_EnableRx
.Lfunc_begin2:
	.loc	5 562 0                         # C:/Vega/rv32m1_sdk_riscv/boards/rv32m1_vega/rtos_examples/freertos_hello/ri5cy/riscvgcc/../../../../../../devices/RV32M1/drivers\fsl_lpuart.h:562:0
	.cfi_startproc
# %bb.0:                                # %entry
	addi	sp, sp, -16
	.cfi_def_cfa_offset 16
	sw	ra, 12(sp)
	sw	s0, 8(sp)
	.cfi_offset ra, -4
	.cfi_offset s0, -8
	addi	s0, sp, 16
	.cfi_def_cfa s0, 0
	mv	a2, a1
	sw	a0, -12(s0)
	sb	a1, -13(s0)
.Ltmp11:
	.loc	5 563 9 prologue_end            # C:/Vega/rv32m1_sdk_riscv/boards/rv32m1_vega/rtos_examples/freertos_hello/ri5cy/riscvgcc/../../../../../../devices/RV32M1/drivers\fsl_lpuart.h:563:9
	lbu	a0, -13(s0)
	andi	a0, a0, 1
	mv	a1, zero
.Ltmp12:
	.loc	5 563 9 is_stmt 0               # C:/Vega/rv32m1_sdk_riscv/boards/rv32m1_vega/rtos_examples/freertos_hello/ri5cy/riscvgcc/../../../../../../devices/RV32M1/drivers\fsl_lpuart.h:563:9
	beq	a0, a1, .LBB2_2
	j	.LBB2_1
.LBB2_1:                                # %if.then
.Ltmp13:
	.loc	5 565 9 is_stmt 1               # C:/Vega/rv32m1_sdk_riscv/boards/rv32m1_vega/rtos_examples/freertos_hello/ri5cy/riscvgcc/../../../../../../devices/RV32M1/drivers\fsl_lpuart.h:565:9
	lw	a0, -12(s0)
	.loc	5 565 20 is_stmt 0              # C:/Vega/rv32m1_sdk_riscv/boards/rv32m1_vega/rtos_examples/freertos_hello/ri5cy/riscvgcc/../../../../../../devices/RV32M1/drivers\fsl_lpuart.h:565:20
	lw	a1, 24(a0)
	lui	a2, 64
	or	a1, a1, a2
	sw	a1, 24(a0)
	.loc	5 566 5 is_stmt 1               # C:/Vega/rv32m1_sdk_riscv/boards/rv32m1_vega/rtos_examples/freertos_hello/ri5cy/riscvgcc/../../../../../../devices/RV32M1/drivers\fsl_lpuart.h:566:5
	j	.LBB2_3
.Ltmp14:
.LBB2_2:                                # %if.else
	.loc	5 569 9                         # C:/Vega/rv32m1_sdk_riscv/boards/rv32m1_vega/rtos_examples/freertos_hello/ri5cy/riscvgcc/../../../../../../devices/RV32M1/drivers\fsl_lpuart.h:569:9
	lw	a0, -12(s0)
	.loc	5 569 20 is_stmt 0              # C:/Vega/rv32m1_sdk_riscv/boards/rv32m1_vega/rtos_examples/freertos_hello/ri5cy/riscvgcc/../../../../../../devices/RV32M1/drivers\fsl_lpuart.h:569:20
	lw	a1, 24(a0)
	lui	a2, 1048512
	addi	a2, a2, -1
	and	a1, a1, a2
	sw	a1, 24(a0)
	j	.LBB2_3
.Ltmp15:
.LBB2_3:                                # %if.end
	.loc	5 571 1 is_stmt 1               # C:/Vega/rv32m1_sdk_riscv/boards/rv32m1_vega/rtos_examples/freertos_hello/ri5cy/riscvgcc/../../../../../../devices/RV32M1/drivers\fsl_lpuart.h:571:1
	lw	s0, 8(sp)
	lw	ra, 12(sp)
	addi	sp, sp, 16
	ret
.Ltmp16:
.Lfunc_end2:
	.size	LPUART_EnableRx, .Lfunc_end2-LPUART_EnableRx
	.cfi_endproc
                                        # -- End function
	.section	.text.IO_Deinit,"ax",@progbits
	.globl	IO_Deinit                       # -- Begin function IO_Deinit
	.p2align	2
	.type	IO_Deinit,@function
IO_Deinit:                              # @IO_Deinit
.Lfunc_begin3:
	.loc	4 338 0                         # C:/Vega/rv32m1_sdk_riscv/devices/RV32M1/utilities/fsl_io.c:338:0
	.cfi_startproc
# %bb.0:                                # %entry
	addi	sp, sp, -16
	.cfi_def_cfa_offset 16
	sw	ra, 12(sp)
	sw	s0, 8(sp)
	.cfi_offset ra, -4
	.cfi_offset s0, -8
	addi	s0, sp, 16
	.cfi_def_cfa s0, 0
	lui	a0, %hi(s_debugConsoleIO)
	addi	a0, a0, %lo(s_debugConsoleIO)
.Ltmp17:
	.loc	4 339 26 prologue_end           # C:/Vega/rv32m1_sdk_riscv/devices/RV32M1/utilities/fsl_io.c:339:26
	lbu	a0, 4(a0)
	mv	a1, zero
.Ltmp18:
	.loc	4 339 9 is_stmt 0               # C:/Vega/rv32m1_sdk_riscv/devices/RV32M1/utilities/fsl_io.c:339:9
	bne	a0, a1, .LBB3_2
	j	.LBB3_1
.LBB3_1:                                # %if.then
	.loc	4 0 9                           # C:/Vega/rv32m1_sdk_riscv/devices/RV32M1/utilities/fsl_io.c:0:9
	mv	a0, zero
.Ltmp19:
	.loc	4 341 9 is_stmt 1               # C:/Vega/rv32m1_sdk_riscv/devices/RV32M1/utilities/fsl_io.c:341:9
	sw	a0, -12(s0)
	j	.LBB3_6
.Ltmp20:
.LBB3_2:                                # %if.end
	.loc	4 0 9 is_stmt 0                 # C:/Vega/rv32m1_sdk_riscv/devices/RV32M1/utilities/fsl_io.c:0:9
	lui	a0, %hi(s_debugConsoleIO)
	addi	a0, a0, %lo(s_debugConsoleIO)
	.loc	4 344 30 is_stmt 1              # C:/Vega/rv32m1_sdk_riscv/devices/RV32M1/utilities/fsl_io.c:344:30
	lbu	a0, 4(a0)
	addi	a1, zero, 2
	.loc	4 344 5 is_stmt 0               # C:/Vega/rv32m1_sdk_riscv/devices/RV32M1/utilities/fsl_io.c:344:5
	bne	a0, a1, .LBB3_4
	j	.LBB3_3
.LBB3_3:                                # %sw.bb
.Ltmp21:
	.loc	4 376 59 is_stmt 1              # C:/Vega/rv32m1_sdk_riscv/devices/RV32M1/utilities/fsl_io.c:376:59
	lui	a0, %hi(s_debugConsoleIO)
	lw	a0, %lo(s_debugConsoleIO)(a0)
	.loc	4 376 13 is_stmt 0              # C:/Vega/rv32m1_sdk_riscv/devices/RV32M1/utilities/fsl_io.c:376:13
	call	LPUART_Deinit
	.loc	4 378 13 is_stmt 1              # C:/Vega/rv32m1_sdk_riscv/devices/RV32M1/utilities/fsl_io.c:378:13
	j	.LBB3_5
.LBB3_4:                                # %sw.default
	.loc	4 0 13 is_stmt 0                # C:/Vega/rv32m1_sdk_riscv/devices/RV32M1/utilities/fsl_io.c:0:13
	lui	a0, %hi(s_debugConsoleIO)
	addi	a0, a0, %lo(s_debugConsoleIO)
	mv	a1, zero
	.loc	4 399 37 is_stmt 1              # C:/Vega/rv32m1_sdk_riscv/devices/RV32M1/utilities/fsl_io.c:399:37
	sb	a1, 4(a0)
	.loc	4 400 13                        # C:/Vega/rv32m1_sdk_riscv/devices/RV32M1/utilities/fsl_io.c:400:13
	j	.LBB3_5
.Ltmp22:
.LBB3_5:                                # %sw.epilog
	.loc	4 0 13 is_stmt 0                # C:/Vega/rv32m1_sdk_riscv/devices/RV32M1/utilities/fsl_io.c:0:13
	lui	a0, %hi(s_debugConsoleIO)
	addi	a0, a0, %lo(s_debugConsoleIO)
	mv	a1, zero
	.loc	4 403 29 is_stmt 1              # C:/Vega/rv32m1_sdk_riscv/devices/RV32M1/utilities/fsl_io.c:403:29
	sb	a1, 4(a0)
	.loc	4 405 5                         # C:/Vega/rv32m1_sdk_riscv/devices/RV32M1/utilities/fsl_io.c:405:5
	sw	a1, -12(s0)
	j	.LBB3_6
.LBB3_6:                                # %return
	.loc	4 406 1                         # C:/Vega/rv32m1_sdk_riscv/devices/RV32M1/utilities/fsl_io.c:406:1
	lw	a0, -12(s0)
	lw	s0, 8(sp)
	lw	ra, 12(sp)
	addi	sp, sp, 16
	ret
.Ltmp23:
.Lfunc_end3:
	.size	IO_Deinit, .Lfunc_end3-IO_Deinit
	.cfi_endproc
                                        # -- End function
	.section	.text.IO_WaitIdle,"ax",@progbits
	.globl	IO_WaitIdle                     # -- Begin function IO_WaitIdle
	.p2align	2
	.type	IO_WaitIdle,@function
IO_WaitIdle:                            # @IO_WaitIdle
.Lfunc_begin4:
	.loc	4 409 0                         # C:/Vega/rv32m1_sdk_riscv/devices/RV32M1/utilities/fsl_io.c:409:0
	.cfi_startproc
# %bb.0:                                # %entry
	addi	sp, sp, -16
	.cfi_def_cfa_offset 16
	sw	ra, 12(sp)
	sw	s0, 8(sp)
	.cfi_offset ra, -4
	.cfi_offset s0, -8
	addi	s0, sp, 16
	.cfi_def_cfa s0, 0
	lui	a0, %hi(s_debugConsoleIO)
	addi	a0, a0, %lo(s_debugConsoleIO)
.Ltmp24:
	.loc	4 410 30 prologue_end           # C:/Vega/rv32m1_sdk_riscv/devices/RV32M1/utilities/fsl_io.c:410:30
	lbu	a0, 4(a0)
	addi	a1, zero, 2
	.loc	4 410 5 is_stmt 0               # C:/Vega/rv32m1_sdk_riscv/devices/RV32M1/utilities/fsl_io.c:410:5
	bne	a0, a1, .LBB4_5
	j	.LBB4_1
.LBB4_1:                                # %sw.bb
.Ltmp25:
	.loc	4 439 13 is_stmt 1              # C:/Vega/rv32m1_sdk_riscv/devices/RV32M1/utilities/fsl_io.c:439:13
	j	.LBB4_2
.LBB4_2:                                # %while.cond
                                        # =>This Inner Loop Header: Depth=1
	.loc	4 439 61 is_stmt 0              # C:/Vega/rv32m1_sdk_riscv/devices/RV32M1/utilities/fsl_io.c:439:61
	lui	a0, %hi(s_debugConsoleIO)
	lw	a0, %lo(s_debugConsoleIO)(a0)
	.loc	4 439 22                        # C:/Vega/rv32m1_sdk_riscv/devices/RV32M1/utilities/fsl_io.c:439:22
	call	LPUART_GetStatusFlags
	lui	a1, 1024
	.loc	4 439 69                        # C:/Vega/rv32m1_sdk_riscv/devices/RV32M1/utilities/fsl_io.c:439:69
	and	a0, a0, a1
	mv	a1, zero
	.loc	4 439 13                        # C:/Vega/rv32m1_sdk_riscv/devices/RV32M1/utilities/fsl_io.c:439:13
	bne	a0, a1, .LBB4_4
	j	.LBB4_3
.LBB4_3:                                # %while.body
                                        #   in Loop: Header=BB4_2 Depth=1
	j	.LBB4_2
.LBB4_4:                                # %while.end
	.loc	4 441 13 is_stmt 1              # C:/Vega/rv32m1_sdk_riscv/devices/RV32M1/utilities/fsl_io.c:441:13
	j	.LBB4_6
.LBB4_5:                                # %sw.default
	.loc	4 453 13                        # C:/Vega/rv32m1_sdk_riscv/devices/RV32M1/utilities/fsl_io.c:453:13
	j	.LBB4_6
.Ltmp26:
.LBB4_6:                                # %sw.epilog
	.loc	4 0 13 is_stmt 0                # C:/Vega/rv32m1_sdk_riscv/devices/RV32M1/utilities/fsl_io.c:0:13
	mv	a0, zero
	.loc	4 456 5 is_stmt 1               # C:/Vega/rv32m1_sdk_riscv/devices/RV32M1/utilities/fsl_io.c:456:5
	lw	s0, 8(sp)
	lw	ra, 12(sp)
	addi	sp, sp, 16
	ret
.Ltmp27:
.Lfunc_end4:
	.size	IO_WaitIdle, .Lfunc_end4-IO_WaitIdle
	.cfi_endproc
                                        # -- End function
	.section	.text.IO_Transfer,"ax",@progbits
	.globl	IO_Transfer                     # -- Begin function IO_Transfer
	.p2align	2
	.type	IO_Transfer,@function
IO_Transfer:                            # @IO_Transfer
.Lfunc_begin5:
	.loc	4 569 0                         # C:/Vega/rv32m1_sdk_riscv/devices/RV32M1/utilities/fsl_io.c:569:0
	.cfi_startproc
# %bb.0:                                # %entry
	addi	sp, sp, -32
	.cfi_def_cfa_offset 32
	sw	ra, 28(sp)
	sw	s0, 24(sp)
	.cfi_offset ra, -4
	.cfi_offset s0, -8
	addi	s0, sp, 32
	.cfi_def_cfa s0, 0
	mv	a3, a2
	sw	a0, -12(s0)
	sw	a1, -16(s0)
	sb	a2, -17(s0)
	mv	a0, zero
.Ltmp28:
	.loc	4 570 14 prologue_end           # C:/Vega/rv32m1_sdk_riscv/devices/RV32M1/utilities/fsl_io.c:570:14
	sw	a0, -24(s0)
	lui	a0, %hi(s_debugConsoleIO)
	addi	a0, a0, %lo(s_debugConsoleIO)
	.loc	4 571 30                        # C:/Vega/rv32m1_sdk_riscv/devices/RV32M1/utilities/fsl_io.c:571:30
	lbu	a0, 4(a0)
	addi	a1, zero, 2
	.loc	4 571 5 is_stmt 0               # C:/Vega/rv32m1_sdk_riscv/devices/RV32M1/utilities/fsl_io.c:571:5
	bne	a0, a1, .LBB5_5
	j	.LBB5_1
.LBB5_1:                                # %sw.bb
.Ltmp29:
	.loc	4 606 17 is_stmt 1              # C:/Vega/rv32m1_sdk_riscv/devices/RV32M1/utilities/fsl_io.c:606:17
	lbu	a0, -17(s0)
	andi	a0, a0, 1
	mv	a1, zero
.Ltmp30:
	.loc	4 606 17 is_stmt 0              # C:/Vega/rv32m1_sdk_riscv/devices/RV32M1/utilities/fsl_io.c:606:17
	beq	a0, a1, .LBB5_3
	j	.LBB5_2
.LBB5_2:                                # %if.then
.Ltmp31:
	.loc	4 608 55 is_stmt 1              # C:/Vega/rv32m1_sdk_riscv/devices/RV32M1/utilities/fsl_io.c:608:55
	lui	a0, %hi(s_debugConsoleIO)
	lw	a0, %lo(s_debugConsoleIO)(a0)
	.loc	4 608 63 is_stmt 0              # C:/Vega/rv32m1_sdk_riscv/devices/RV32M1/utilities/fsl_io.c:608:63
	lw	a1, -12(s0)
	.loc	4 608 67                        # C:/Vega/rv32m1_sdk_riscv/devices/RV32M1/utilities/fsl_io.c:608:67
	lw	a2, -16(s0)
	.loc	4 608 17                        # C:/Vega/rv32m1_sdk_riscv/devices/RV32M1/utilities/fsl_io.c:608:17
	call	LPUART_WriteBlocking
	.loc	4 609 13 is_stmt 1              # C:/Vega/rv32m1_sdk_riscv/devices/RV32M1/utilities/fsl_io.c:609:13
	j	.LBB5_4
.Ltmp32:
.LBB5_3:                                # %if.else
	.loc	4 612 63                        # C:/Vega/rv32m1_sdk_riscv/devices/RV32M1/utilities/fsl_io.c:612:63
	lui	a0, %hi(s_debugConsoleIO)
	lw	a0, %lo(s_debugConsoleIO)(a0)
	.loc	4 612 71 is_stmt 0              # C:/Vega/rv32m1_sdk_riscv/devices/RV32M1/utilities/fsl_io.c:612:71
	lw	a1, -12(s0)
	.loc	4 612 75                        # C:/Vega/rv32m1_sdk_riscv/devices/RV32M1/utilities/fsl_io.c:612:75
	lw	a2, -16(s0)
	.loc	4 612 26                        # C:/Vega/rv32m1_sdk_riscv/devices/RV32M1/utilities/fsl_io.c:612:26
	call	LPUART_ReadBlocking
	.loc	4 612 24                        # C:/Vega/rv32m1_sdk_riscv/devices/RV32M1/utilities/fsl_io.c:612:24
	sw	a0, -24(s0)
	j	.LBB5_4
.Ltmp33:
.LBB5_4:                                # %if.end
	.loc	4 615 9 is_stmt 1               # C:/Vega/rv32m1_sdk_riscv/devices/RV32M1/utilities/fsl_io.c:615:9
	j	.LBB5_6
.LBB5_5:                                # %sw.default
	.loc	4 0 9 is_stmt 0                 # C:/Vega/rv32m1_sdk_riscv/devices/RV32M1/utilities/fsl_io.c:0:9
	addi	a0, zero, 1
	.loc	4 649 20 is_stmt 1              # C:/Vega/rv32m1_sdk_riscv/devices/RV32M1/utilities/fsl_io.c:649:20
	sw	a0, -24(s0)
	.loc	4 650 13                        # C:/Vega/rv32m1_sdk_riscv/devices/RV32M1/utilities/fsl_io.c:650:13
	j	.LBB5_6
.Ltmp34:
.LBB5_6:                                # %sw.epilog
	.loc	4 653 12                        # C:/Vega/rv32m1_sdk_riscv/devices/RV32M1/utilities/fsl_io.c:653:12
	lw	a0, -24(s0)
	.loc	4 653 5 is_stmt 0               # C:/Vega/rv32m1_sdk_riscv/devices/RV32M1/utilities/fsl_io.c:653:5
	lw	s0, 24(sp)
	lw	ra, 28(sp)
	addi	sp, sp, 32
	ret
.Ltmp35:
.Lfunc_end5:
	.size	IO_Transfer, .Lfunc_end5-IO_Transfer
	.cfi_endproc
                                        # -- End function
	.type	.L.str,@object                  # @.str
	.section	.rodata.str1.1,"aMS",@progbits,1
.L.str:
	.asciz	"C:/Vega/rv32m1_sdk_riscv/devices/RV32M1/utilities/fsl_io.c"
	.size	.L.str, 59

	.type	.L__func__.IO_Init,@object      # @__func__.IO_Init
.L__func__.IO_Init:
	.asciz	"IO_Init"
	.size	.L__func__.IO_Init, 8

	.type	.L.str.1,@object                # @.str.1
.L.str.1:
	.asciz	"NULL != io"
	.size	.L.str.1, 11

	.type	s_debugConsoleIO,@object        # @s_debugConsoleIO
	.section	.sbss,"aw",@nobits
	.p2align	2
s_debugConsoleIO:
	.zero	8
	.size	s_debugConsoleIO, 8

	.file	8 "C:\\" "Program Files\\LLVM\\lib\\clang\\11.0.0\\include\\stddef.h"
	.section	".note.GNU-stack","",@progbits
	.addrsig
	.addrsig_sym __assert_func
	.addrsig_sym LPUART_GetDefaultConfig
	.addrsig_sym LPUART_Init
	.addrsig_sym LPUART_EnableTx
	.addrsig_sym LPUART_EnableRx
	.addrsig_sym LPUART_Deinit
	.addrsig_sym LPUART_GetStatusFlags
	.addrsig_sym LPUART_WriteBlocking
	.addrsig_sym LPUART_ReadBlocking
	.addrsig_sym s_debugConsoleIO