	.text
	.attribute	4, 16
	.attribute	5, "rv32i2p0"
	.file	"list.c"
	.file	1 "C:\\Vega" "riscv32-unknown-elf-gcc\\riscv32-unknown-elf\\include\\machine\\_default_types.h"
	.file	2 "C:\\Vega" "riscv32-unknown-elf-gcc\\riscv32-unknown-elf\\include\\sys\\_stdint.h"
	.file	3 "C:/Vega/rv32m1_sdk_riscv/boards/rv32m1_vega/rtos_examples/freertos_hello/ri5cy/riscvgcc/../../../../../../rtos/freertos_9.0.0/Source/portable/GCC/RISCY" "portmacro.h"
	.file	4 "C:/Vega/rv32m1_sdk_riscv/boards/rv32m1_vega/rtos_examples/freertos_hello/ri5cy/riscvgcc/../../../../../../rtos/freertos_9.0.0/Source/include" "list.h"
	.section	.text.vListInitialise,"ax",@progbits
	.globl	vListInitialise                 # -- Begin function vListInitialise
	.p2align	2
	.type	vListInitialise,@function
vListInitialise:                        # @vListInitialise
.Lfunc_begin0:
	.file	5 "C:/Vega/rv32m1_sdk_riscv/rtos/freertos_9.0.0/Source" "list.c"
	.loc	5 80 0                          # C:/Vega/rv32m1_sdk_riscv/rtos/freertos_9.0.0/Source/list.c:80:0
	.cfi_sections .debug_frame
	.cfi_startproc
# %bb.0:                                # %entry
	addi	sp, sp, -16
	.cfi_def_cfa_offset 16
	sw	ra, 12(sp)
	sw	s0, 8(sp)
	.cfi_offset ra, -4
	.cfi_offset s0, -8
	addi	s0, sp, 16
	.cfi_def_cfa s0, 0
	sw	a0, -12(s0)
.Ltmp0:
	.loc	5 84 40 prologue_end            # C:/Vega/rv32m1_sdk_riscv/rtos/freertos_9.0.0/Source/list.c:84:40
	lw	a0, -12(s0)
	.loc	5 84 48 is_stmt 0               # C:/Vega/rv32m1_sdk_riscv/rtos/freertos_9.0.0/Source/list.c:84:48
	addi	a1, a0, 8
	.loc	5 84 18                         # C:/Vega/rv32m1_sdk_riscv/rtos/freertos_9.0.0/Source/list.c:84:18
	sw	a1, 4(a0)
	.loc	5 88 2 is_stmt 1                # C:/Vega/rv32m1_sdk_riscv/rtos/freertos_9.0.0/Source/list.c:88:2
	lw	a0, -12(s0)
	addi	a1, zero, -1
	.loc	5 88 30 is_stmt 0               # C:/Vega/rv32m1_sdk_riscv/rtos/freertos_9.0.0/Source/list.c:88:30
	sw	a1, 8(a0)
	.loc	5 92 48 is_stmt 1               # C:/Vega/rv32m1_sdk_riscv/rtos/freertos_9.0.0/Source/list.c:92:48
	lw	a0, -12(s0)
	.loc	5 92 56 is_stmt 0               # C:/Vega/rv32m1_sdk_riscv/rtos/freertos_9.0.0/Source/list.c:92:56
	addi	a1, a0, 8
	.loc	5 92 26                         # C:/Vega/rv32m1_sdk_riscv/rtos/freertos_9.0.0/Source/list.c:92:26
	sw	a1, 12(a0)
	.loc	5 93 52 is_stmt 1               # C:/Vega/rv32m1_sdk_riscv/rtos/freertos_9.0.0/Source/list.c:93:52
	lw	a0, -12(s0)
	.loc	5 93 60 is_stmt 0               # C:/Vega/rv32m1_sdk_riscv/rtos/freertos_9.0.0/Source/list.c:93:60
	addi	a1, a0, 8
	.loc	5 93 30                         # C:/Vega/rv32m1_sdk_riscv/rtos/freertos_9.0.0/Source/list.c:93:30
	sw	a1, 16(a0)
	.loc	5 95 2 is_stmt 1                # C:/Vega/rv32m1_sdk_riscv/rtos/freertos_9.0.0/Source/list.c:95:2
	lw	a0, -12(s0)
	mv	a1, zero
	.loc	5 95 26 is_stmt 0               # C:/Vega/rv32m1_sdk_riscv/rtos/freertos_9.0.0/Source/list.c:95:26
	sw	a1, 0(a0)
	.loc	5 101 1 is_stmt 1               # C:/Vega/rv32m1_sdk_riscv/rtos/freertos_9.0.0/Source/list.c:101:1
	lw	s0, 8(sp)
	lw	ra, 12(sp)
	addi	sp, sp, 16
	ret
.Ltmp1:
.Lfunc_end0:
	.size	vListInitialise, .Lfunc_end0-vListInitialise
	.cfi_endproc
                                        # -- End function
	.section	.text.vListInitialiseItem,"ax",@progbits
	.globl	vListInitialiseItem             # -- Begin function vListInitialiseItem
	.p2align	2
	.type	vListInitialiseItem,@function
vListInitialiseItem:                    # @vListInitialiseItem
.Lfunc_begin1:
	.loc	5 105 0                         # C:/Vega/rv32m1_sdk_riscv/rtos/freertos_9.0.0/Source/list.c:105:0
	.cfi_startproc
# %bb.0:                                # %entry
	addi	sp, sp, -16
	.cfi_def_cfa_offset 16
	sw	ra, 12(sp)
	sw	s0, 8(sp)
	.cfi_offset ra, -4
	.cfi_offset s0, -8
	addi	s0, sp, 16
	.cfi_def_cfa s0, 0
	sw	a0, -12(s0)
.Ltmp2:
	.loc	5 107 2 prologue_end            # C:/Vega/rv32m1_sdk_riscv/rtos/freertos_9.0.0/Source/list.c:107:2
	lw	a0, -12(s0)
	mv	a1, zero
	.loc	5 107 22 is_stmt 0              # C:/Vega/rv32m1_sdk_riscv/rtos/freertos_9.0.0/Source/list.c:107:22
	sw	a1, 16(a0)
	.loc	5 113 1 is_stmt 1               # C:/Vega/rv32m1_sdk_riscv/rtos/freertos_9.0.0/Source/list.c:113:1
	lw	s0, 8(sp)
	lw	ra, 12(sp)
	addi	sp, sp, 16
	ret
.Ltmp3:
.Lfunc_end1:
	.size	vListInitialiseItem, .Lfunc_end1-vListInitialiseItem
	.cfi_endproc
                                        # -- End function
	.section	.text.vListInsertEnd,"ax",@progbits
	.globl	vListInsertEnd                  # -- Begin function vListInsertEnd
	.p2align	2
	.type	vListInsertEnd,@function
vListInsertEnd:                         # @vListInsertEnd
.Lfunc_begin2:
	.loc	5 117 0                         # C:/Vega/rv32m1_sdk_riscv/rtos/freertos_9.0.0/Source/list.c:117:0
	.cfi_startproc
# %bb.0:                                # %entry
	addi	sp, sp, -32
	.cfi_def_cfa_offset 32
	sw	ra, 28(sp)
	sw	s0, 24(sp)
	.cfi_offset ra, -4
	.cfi_offset s0, -8
	addi	s0, sp, 32
	.cfi_def_cfa s0, 0
	sw	a0, -12(s0)
	sw	a1, -16(s0)
.Ltmp4:
	.loc	5 118 30 prologue_end           # C:/Vega/rv32m1_sdk_riscv/rtos/freertos_9.0.0/Source/list.c:118:30
	lw	a0, -12(s0)
	.loc	5 118 38 is_stmt 0              # C:/Vega/rv32m1_sdk_riscv/rtos/freertos_9.0.0/Source/list.c:118:38
	lw	a0, 4(a0)
	.loc	5 118 20                        # C:/Vega/rv32m1_sdk_riscv/rtos/freertos_9.0.0/Source/list.c:118:20
	sw	a0, -20(s0)
	.loc	5 129 26 is_stmt 1              # C:/Vega/rv32m1_sdk_riscv/rtos/freertos_9.0.0/Source/list.c:129:26
	lw	a0, -20(s0)
	.loc	5 129 2 is_stmt 0               # C:/Vega/rv32m1_sdk_riscv/rtos/freertos_9.0.0/Source/list.c:129:2
	lw	a1, -16(s0)
	.loc	5 129 24                        # C:/Vega/rv32m1_sdk_riscv/rtos/freertos_9.0.0/Source/list.c:129:24
	sw	a0, 4(a1)
	.loc	5 130 30 is_stmt 1              # C:/Vega/rv32m1_sdk_riscv/rtos/freertos_9.0.0/Source/list.c:130:30
	lw	a0, -20(s0)
	.loc	5 130 39 is_stmt 0              # C:/Vega/rv32m1_sdk_riscv/rtos/freertos_9.0.0/Source/list.c:130:39
	lw	a0, 8(a0)
	.loc	5 130 2                         # C:/Vega/rv32m1_sdk_riscv/rtos/freertos_9.0.0/Source/list.c:130:2
	lw	a1, -16(s0)
	.loc	5 130 28                        # C:/Vega/rv32m1_sdk_riscv/rtos/freertos_9.0.0/Source/list.c:130:28
	sw	a0, 8(a1)
	.loc	5 135 32 is_stmt 1              # C:/Vega/rv32m1_sdk_riscv/rtos/freertos_9.0.0/Source/list.c:135:32
	lw	a0, -16(s0)
	.loc	5 135 2 is_stmt 0               # C:/Vega/rv32m1_sdk_riscv/rtos/freertos_9.0.0/Source/list.c:135:2
	lw	a1, -20(s0)
	.loc	5 135 11                        # C:/Vega/rv32m1_sdk_riscv/rtos/freertos_9.0.0/Source/list.c:135:11
	lw	a1, 8(a1)
	.loc	5 135 30                        # C:/Vega/rv32m1_sdk_riscv/rtos/freertos_9.0.0/Source/list.c:135:30
	sw	a0, 4(a1)
	.loc	5 136 24 is_stmt 1              # C:/Vega/rv32m1_sdk_riscv/rtos/freertos_9.0.0/Source/list.c:136:24
	lw	a0, -16(s0)
	.loc	5 136 2 is_stmt 0               # C:/Vega/rv32m1_sdk_riscv/rtos/freertos_9.0.0/Source/list.c:136:2
	lw	a1, -20(s0)
	.loc	5 136 22                        # C:/Vega/rv32m1_sdk_riscv/rtos/freertos_9.0.0/Source/list.c:136:22
	sw	a0, 8(a1)
	.loc	5 139 42 is_stmt 1              # C:/Vega/rv32m1_sdk_riscv/rtos/freertos_9.0.0/Source/list.c:139:42
	lw	a0, -12(s0)
	.loc	5 139 2 is_stmt 0               # C:/Vega/rv32m1_sdk_riscv/rtos/freertos_9.0.0/Source/list.c:139:2
	lw	a1, -16(s0)
	.loc	5 139 29                        # C:/Vega/rv32m1_sdk_riscv/rtos/freertos_9.0.0/Source/list.c:139:29
	sw	a0, 16(a1)
	.loc	5 141 4 is_stmt 1               # C:/Vega/rv32m1_sdk_riscv/rtos/freertos_9.0.0/Source/list.c:141:4
	lw	a0, -12(s0)
	.loc	5 141 29 is_stmt 0              # C:/Vega/rv32m1_sdk_riscv/rtos/freertos_9.0.0/Source/list.c:141:29
	lw	a1, 0(a0)
	addi	a1, a1, 1
	sw	a1, 0(a0)
	.loc	5 142 1 is_stmt 1               # C:/Vega/rv32m1_sdk_riscv/rtos/freertos_9.0.0/Source/list.c:142:1
	lw	s0, 24(sp)
	lw	ra, 28(sp)
	addi	sp, sp, 32
	ret
.Ltmp5:
.Lfunc_end2:
	.size	vListInsertEnd, .Lfunc_end2-vListInsertEnd
	.cfi_endproc
                                        # -- End function
	.section	.text.vListInsert,"ax",@progbits
	.globl	vListInsert                     # -- Begin function vListInsert
	.p2align	2
	.type	vListInsert,@function
vListInsert:                            # @vListInsert
.Lfunc_begin3:
	.loc	5 146 0                         # C:/Vega/rv32m1_sdk_riscv/rtos/freertos_9.0.0/Source/list.c:146:0
	.cfi_startproc
# %bb.0:                                # %entry
	addi	sp, sp, -32
	.cfi_def_cfa_offset 32
	sw	ra, 28(sp)
	sw	s0, 24(sp)
	.cfi_offset ra, -4
	.cfi_offset s0, -8
	addi	s0, sp, 32
	.cfi_def_cfa s0, 0
	sw	a0, -12(s0)
	sw	a1, -16(s0)
.Ltmp6:
	.loc	5 148 38 prologue_end           # C:/Vega/rv32m1_sdk_riscv/rtos/freertos_9.0.0/Source/list.c:148:38
	lw	a0, -16(s0)
	.loc	5 148 53 is_stmt 0              # C:/Vega/rv32m1_sdk_riscv/rtos/freertos_9.0.0/Source/list.c:148:53
	lw	a0, 0(a0)
	.loc	5 148 18                        # C:/Vega/rv32m1_sdk_riscv/rtos/freertos_9.0.0/Source/list.c:148:18
	sw	a0, -24(s0)
.Ltmp7:
	.loc	5 164 6 is_stmt 1               # C:/Vega/rv32m1_sdk_riscv/rtos/freertos_9.0.0/Source/list.c:164:6
	lw	a0, -24(s0)
	addi	a1, zero, -1
.Ltmp8:
	.loc	5 164 6 is_stmt 0               # C:/Vega/rv32m1_sdk_riscv/rtos/freertos_9.0.0/Source/list.c:164:6
	bne	a0, a1, .LBB3_2
	j	.LBB3_1
.LBB3_1:                                # %if.then
.Ltmp9:
	.loc	5 166 16 is_stmt 1              # C:/Vega/rv32m1_sdk_riscv/rtos/freertos_9.0.0/Source/list.c:166:16
	lw	a0, -12(s0)
	.loc	5 166 33 is_stmt 0              # C:/Vega/rv32m1_sdk_riscv/rtos/freertos_9.0.0/Source/list.c:166:33
	lw	a0, 16(a0)
	.loc	5 166 14                        # C:/Vega/rv32m1_sdk_riscv/rtos/freertos_9.0.0/Source/list.c:166:14
	sw	a0, -20(s0)
	.loc	5 167 2 is_stmt 1               # C:/Vega/rv32m1_sdk_riscv/rtos/freertos_9.0.0/Source/list.c:167:2
	j	.LBB3_7
.Ltmp10:
.LBB3_2:                                # %if.else
	.loc	5 192 41                        # C:/Vega/rv32m1_sdk_riscv/rtos/freertos_9.0.0/Source/list.c:192:41
	lw	a0, -12(s0)
	.loc	5 192 49 is_stmt 0              # C:/Vega/rv32m1_sdk_riscv/rtos/freertos_9.0.0/Source/list.c:192:49
	addi	a0, a0, 8
	.loc	5 192 19                        # C:/Vega/rv32m1_sdk_riscv/rtos/freertos_9.0.0/Source/list.c:192:19
	sw	a0, -20(s0)
	.loc	5 192 8                         # C:/Vega/rv32m1_sdk_riscv/rtos/freertos_9.0.0/Source/list.c:192:8
	j	.LBB3_3
.LBB3_3:                                # %for.cond
                                        # =>This Inner Loop Header: Depth=1
.Ltmp11:
	.loc	5 192 61                        # C:/Vega/rv32m1_sdk_riscv/rtos/freertos_9.0.0/Source/list.c:192:61
	lw	a0, -20(s0)
	.loc	5 192 73                        # C:/Vega/rv32m1_sdk_riscv/rtos/freertos_9.0.0/Source/list.c:192:73
	lw	a0, 4(a0)
	.loc	5 192 81                        # C:/Vega/rv32m1_sdk_riscv/rtos/freertos_9.0.0/Source/list.c:192:81
	lw	a0, 0(a0)
	.loc	5 192 95                        # C:/Vega/rv32m1_sdk_riscv/rtos/freertos_9.0.0/Source/list.c:192:95
	lw	a1, -24(s0)
.Ltmp12:
	.loc	5 192 3                         # C:/Vega/rv32m1_sdk_riscv/rtos/freertos_9.0.0/Source/list.c:192:3
	bltu	a1, a0, .LBB3_6
	j	.LBB3_4
.LBB3_4:                                # %for.body
                                        #   in Loop: Header=BB3_3 Depth=1
.Ltmp13:
	.loc	5 196 3 is_stmt 1               # C:/Vega/rv32m1_sdk_riscv/rtos/freertos_9.0.0/Source/list.c:196:3
	j	.LBB3_5
.Ltmp14:
.LBB3_5:                                # %for.inc
                                        #   in Loop: Header=BB3_3 Depth=1
	.loc	5 192 127                       # C:/Vega/rv32m1_sdk_riscv/rtos/freertos_9.0.0/Source/list.c:192:127
	lw	a0, -20(s0)
	.loc	5 192 139 is_stmt 0             # C:/Vega/rv32m1_sdk_riscv/rtos/freertos_9.0.0/Source/list.c:192:139
	lw	a0, 4(a0)
	.loc	5 192 125                       # C:/Vega/rv32m1_sdk_riscv/rtos/freertos_9.0.0/Source/list.c:192:125
	sw	a0, -20(s0)
	.loc	5 192 3                         # C:/Vega/rv32m1_sdk_riscv/rtos/freertos_9.0.0/Source/list.c:192:3
	j	.LBB3_3
.Ltmp15:
.LBB3_6:                                # %for.end
	.loc	5 0 3                           # C:/Vega/rv32m1_sdk_riscv/rtos/freertos_9.0.0/Source/list.c:0:3
	j	.LBB3_7
.LBB3_7:                                # %if.end
	.loc	5 199 26 is_stmt 1              # C:/Vega/rv32m1_sdk_riscv/rtos/freertos_9.0.0/Source/list.c:199:26
	lw	a0, -20(s0)
	.loc	5 199 38 is_stmt 0              # C:/Vega/rv32m1_sdk_riscv/rtos/freertos_9.0.0/Source/list.c:199:38
	lw	a0, 4(a0)
	.loc	5 199 2                         # C:/Vega/rv32m1_sdk_riscv/rtos/freertos_9.0.0/Source/list.c:199:2
	lw	a1, -16(s0)
	.loc	5 199 24                        # C:/Vega/rv32m1_sdk_riscv/rtos/freertos_9.0.0/Source/list.c:199:24
	sw	a0, 4(a1)
	.loc	5 200 38 is_stmt 1              # C:/Vega/rv32m1_sdk_riscv/rtos/freertos_9.0.0/Source/list.c:200:38
	lw	a0, -16(s0)
	.loc	5 200 17 is_stmt 0              # C:/Vega/rv32m1_sdk_riscv/rtos/freertos_9.0.0/Source/list.c:200:17
	lw	a1, 4(a0)
	.loc	5 200 36                        # C:/Vega/rv32m1_sdk_riscv/rtos/freertos_9.0.0/Source/list.c:200:36
	sw	a0, 8(a1)
	.loc	5 201 30 is_stmt 1              # C:/Vega/rv32m1_sdk_riscv/rtos/freertos_9.0.0/Source/list.c:201:30
	lw	a0, -20(s0)
	.loc	5 201 2 is_stmt 0               # C:/Vega/rv32m1_sdk_riscv/rtos/freertos_9.0.0/Source/list.c:201:2
	lw	a1, -16(s0)
	.loc	5 201 28                        # C:/Vega/rv32m1_sdk_riscv/rtos/freertos_9.0.0/Source/list.c:201:28
	sw	a0, 8(a1)
	.loc	5 202 23 is_stmt 1              # C:/Vega/rv32m1_sdk_riscv/rtos/freertos_9.0.0/Source/list.c:202:23
	lw	a0, -16(s0)
	.loc	5 202 2 is_stmt 0               # C:/Vega/rv32m1_sdk_riscv/rtos/freertos_9.0.0/Source/list.c:202:2
	lw	a1, -20(s0)
	.loc	5 202 21                        # C:/Vega/rv32m1_sdk_riscv/rtos/freertos_9.0.0/Source/list.c:202:21
	sw	a0, 4(a1)
	.loc	5 206 42 is_stmt 1              # C:/Vega/rv32m1_sdk_riscv/rtos/freertos_9.0.0/Source/list.c:206:42
	lw	a0, -12(s0)
	.loc	5 206 2 is_stmt 0               # C:/Vega/rv32m1_sdk_riscv/rtos/freertos_9.0.0/Source/list.c:206:2
	lw	a1, -16(s0)
	.loc	5 206 29                        # C:/Vega/rv32m1_sdk_riscv/rtos/freertos_9.0.0/Source/list.c:206:29
	sw	a0, 16(a1)
	.loc	5 208 4 is_stmt 1               # C:/Vega/rv32m1_sdk_riscv/rtos/freertos_9.0.0/Source/list.c:208:4
	lw	a0, -12(s0)
	.loc	5 208 29 is_stmt 0              # C:/Vega/rv32m1_sdk_riscv/rtos/freertos_9.0.0/Source/list.c:208:29
	lw	a1, 0(a0)
	addi	a1, a1, 1
	sw	a1, 0(a0)
	.loc	5 209 1 is_stmt 1               # C:/Vega/rv32m1_sdk_riscv/rtos/freertos_9.0.0/Source/list.c:209:1
	lw	s0, 24(sp)
	lw	ra, 28(sp)
	addi	sp, sp, 32
	ret
.Ltmp16:
.Lfunc_end3:
	.size	vListInsert, .Lfunc_end3-vListInsert
	.cfi_endproc
                                        # -- End function
	.section	.text.uxListRemove,"ax",@progbits
	.globl	uxListRemove                    # -- Begin function uxListRemove
	.p2align	2
	.type	uxListRemove,@function
uxListRemove:                           # @uxListRemove
.Lfunc_begin4:
	.loc	5 213 0                         # C:/Vega/rv32m1_sdk_riscv/rtos/freertos_9.0.0/Source/list.c:213:0
	.cfi_startproc
# %bb.0:                                # %entry
	addi	sp, sp, -16
	.cfi_def_cfa_offset 16
	sw	ra, 12(sp)
	sw	s0, 8(sp)
	.cfi_offset ra, -4
	.cfi_offset s0, -8
	addi	s0, sp, 16
	.cfi_def_cfa s0, 0
	sw	a0, -12(s0)
.Ltmp17:
	.loc	5 216 38 prologue_end           # C:/Vega/rv32m1_sdk_riscv/rtos/freertos_9.0.0/Source/list.c:216:38
	lw	a0, -12(s0)
	.loc	5 216 54 is_stmt 0              # C:/Vega/rv32m1_sdk_riscv/rtos/freertos_9.0.0/Source/list.c:216:54
	lw	a0, 16(a0)
	.loc	5 216 16                        # C:/Vega/rv32m1_sdk_riscv/rtos/freertos_9.0.0/Source/list.c:216:16
	sw	a0, -16(s0)
	.loc	5 218 39 is_stmt 1              # C:/Vega/rv32m1_sdk_riscv/rtos/freertos_9.0.0/Source/list.c:218:39
	lw	a0, -12(s0)
	.loc	5 218 55 is_stmt 0              # C:/Vega/rv32m1_sdk_riscv/rtos/freertos_9.0.0/Source/list.c:218:55
	lw	a1, 8(a0)
	.loc	5 218 18                        # C:/Vega/rv32m1_sdk_riscv/rtos/freertos_9.0.0/Source/list.c:218:18
	lw	a0, 4(a0)
	.loc	5 218 37                        # C:/Vega/rv32m1_sdk_riscv/rtos/freertos_9.0.0/Source/list.c:218:37
	sw	a1, 8(a0)
	.loc	5 219 39 is_stmt 1              # C:/Vega/rv32m1_sdk_riscv/rtos/freertos_9.0.0/Source/list.c:219:39
	lw	a0, -12(s0)
	.loc	5 219 55 is_stmt 0              # C:/Vega/rv32m1_sdk_riscv/rtos/freertos_9.0.0/Source/list.c:219:55
	lw	a1, 4(a0)
	.loc	5 219 18                        # C:/Vega/rv32m1_sdk_riscv/rtos/freertos_9.0.0/Source/list.c:219:18
	lw	a0, 8(a0)
	.loc	5 219 37                        # C:/Vega/rv32m1_sdk_riscv/rtos/freertos_9.0.0/Source/list.c:219:37
	sw	a1, 4(a0)
.Ltmp18:
	.loc	5 225 6 is_stmt 1               # C:/Vega/rv32m1_sdk_riscv/rtos/freertos_9.0.0/Source/list.c:225:6
	lw	a0, -16(s0)
	.loc	5 225 14 is_stmt 0              # C:/Vega/rv32m1_sdk_riscv/rtos/freertos_9.0.0/Source/list.c:225:14
	lw	a0, 4(a0)
	.loc	5 225 25                        # C:/Vega/rv32m1_sdk_riscv/rtos/freertos_9.0.0/Source/list.c:225:25
	lw	a1, -12(s0)
.Ltmp19:
	.loc	5 225 6                         # C:/Vega/rv32m1_sdk_riscv/rtos/freertos_9.0.0/Source/list.c:225:6
	bne	a0, a1, .LBB4_2
	j	.LBB4_1
.LBB4_1:                                # %if.then
.Ltmp20:
	.loc	5 227 21 is_stmt 1              # C:/Vega/rv32m1_sdk_riscv/rtos/freertos_9.0.0/Source/list.c:227:21
	lw	a0, -12(s0)
	.loc	5 227 37 is_stmt 0              # C:/Vega/rv32m1_sdk_riscv/rtos/freertos_9.0.0/Source/list.c:227:37
	lw	a0, 8(a0)
	.loc	5 227 3                         # C:/Vega/rv32m1_sdk_riscv/rtos/freertos_9.0.0/Source/list.c:227:3
	lw	a1, -16(s0)
	.loc	5 227 19                        # C:/Vega/rv32m1_sdk_riscv/rtos/freertos_9.0.0/Source/list.c:227:19
	sw	a0, 4(a1)
	.loc	5 228 2 is_stmt 1               # C:/Vega/rv32m1_sdk_riscv/rtos/freertos_9.0.0/Source/list.c:228:2
	j	.LBB4_3
.Ltmp21:
.LBB4_2:                                # %if.else
	.loc	5 0 2 is_stmt 0                 # C:/Vega/rv32m1_sdk_riscv/rtos/freertos_9.0.0/Source/list.c:0:2
	j	.LBB4_3
.LBB4_3:                                # %if.end
	.loc	5 234 2 is_stmt 1               # C:/Vega/rv32m1_sdk_riscv/rtos/freertos_9.0.0/Source/list.c:234:2
	lw	a0, -12(s0)
	mv	a1, zero
	.loc	5 234 30 is_stmt 0              # C:/Vega/rv32m1_sdk_riscv/rtos/freertos_9.0.0/Source/list.c:234:30
	sw	a1, 16(a0)
	.loc	5 235 4 is_stmt 1               # C:/Vega/rv32m1_sdk_riscv/rtos/freertos_9.0.0/Source/list.c:235:4
	lw	a0, -16(s0)
	.loc	5 235 29 is_stmt 0              # C:/Vega/rv32m1_sdk_riscv/rtos/freertos_9.0.0/Source/list.c:235:29
	lw	a1, 0(a0)
	addi	a1, a1, -1
	sw	a1, 0(a0)
	.loc	5 237 9 is_stmt 1               # C:/Vega/rv32m1_sdk_riscv/rtos/freertos_9.0.0/Source/list.c:237:9
	lw	a0, -16(s0)
	.loc	5 237 17 is_stmt 0              # C:/Vega/rv32m1_sdk_riscv/rtos/freertos_9.0.0/Source/list.c:237:17
	lw	a0, 0(a0)
	.loc	5 237 2                         # C:/Vega/rv32m1_sdk_riscv/rtos/freertos_9.0.0/Source/list.c:237:2
	lw	s0, 8(sp)
	lw	ra, 12(sp)
	addi	sp, sp, 16
	ret
.Ltmp22:
.Lfunc_end4:
	.size	uxListRemove, .Lfunc_end4-uxListRemove
	.cfi_endproc
                                        # -- End function
	.section	".note.GNU-stack","",@progbits
	.addrsig