	.text
	.attribute	4, 16
	.attribute	5, "rv32i2p0"
	.file	"pin_mux.c"
	.file	1 "C:/Vega/rv32m1_sdk_riscv/boards/rv32m1_vega/rtos_examples/freertos_hello/ri5cy/riscvgcc/../../../../../../devices/RV32M1/drivers" "fsl_clock.h"
	.file	2 "C:/Vega/rv32m1_sdk_riscv/boards/rv32m1_vega/rtos_examples/freertos_hello/ri5cy/riscvgcc/../../../../../../devices/RV32M1/drivers" "fsl_port.h"
	.file	3 "C:\\Vega" "riscv32-unknown-elf-gcc\\riscv32-unknown-elf\\include\\machine\\_default_types.h"
	.file	4 "C:\\Vega" "riscv32-unknown-elf-gcc\\riscv32-unknown-elf\\include\\sys\\_stdint.h"
	.file	5 "C:/Vega/rv32m1_sdk_riscv/boards/rv32m1_vega/rtos_examples/freertos_hello/ri5cy/riscvgcc/../../../../../../devices/RV32M1" "RV32M1_ri5cy.h"
	.section	.text.BOARD_InitBootPins,"ax",@progbits
	.globl	BOARD_InitBootPins              # -- Begin function BOARD_InitBootPins
	.p2align	2
	.type	BOARD_InitBootPins,@function
BOARD_InitBootPins:                     # @BOARD_InitBootPins
.Lfunc_begin0:
	.file	6 "C:/Vega/rv32m1_sdk_riscv/boards/rv32m1_vega/rtos_examples/freertos_hello" "pin_mux.c"
	.loc	6 29 0                          # C:/Vega/rv32m1_sdk_riscv/boards/rv32m1_vega/rtos_examples/freertos_hello/pin_mux.c:29:0
	.cfi_sections .debug_frame
	.cfi_startproc
# %bb.0:                                # %entry
	addi	sp, sp, -16
	.cfi_def_cfa_offset 16
.Ltmp0:
	.loc	6 30 5 prologue_end             # C:/Vega/rv32m1_sdk_riscv/boards/rv32m1_vega/rtos_examples/freertos_hello/pin_mux.c:30:5
	sw	ra, 12(sp)
	sw	s0, 8(sp)
	.cfi_offset ra, -4
	.cfi_offset s0, -8
	addi	s0, sp, 16
	.cfi_def_cfa s0, 0
	call	BOARD_InitPins
	.loc	6 31 1                          # C:/Vega/rv32m1_sdk_riscv/boards/rv32m1_vega/rtos_examples/freertos_hello/pin_mux.c:31:1
	lw	s0, 8(sp)
	lw	ra, 12(sp)
	addi	sp, sp, 16
	ret
.Ltmp1:
.Lfunc_end0:
	.size	BOARD_InitBootPins, .Lfunc_end0-BOARD_InitBootPins
	.cfi_endproc
                                        # -- End function
	.section	.text.BOARD_InitPins,"ax",@progbits
	.globl	BOARD_InitPins                  # -- Begin function BOARD_InitPins
	.p2align	2
	.type	BOARD_InitPins,@function
BOARD_InitPins:                         # @BOARD_InitPins
.Lfunc_begin1:
	.loc	6 52 0                          # C:/Vega/rv32m1_sdk_riscv/boards/rv32m1_vega/rtos_examples/freertos_hello/pin_mux.c:52:0
	.cfi_startproc
# %bb.0:                                # %entry
	addi	sp, sp, -16
	.cfi_def_cfa_offset 16
	sw	ra, 12(sp)
	sw	s0, 8(sp)
	.cfi_offset ra, -4
	.cfi_offset s0, -8
	addi	s0, sp, 16
	.cfi_def_cfa s0, 0
	lui	a0, 262187
	addi	a0, a0, 288
.Ltmp2:
	.loc	6 53 3 prologue_end             # C:/Vega/rv32m1_sdk_riscv/boards/rv32m1_vega/rtos_examples/freertos_hello/pin_mux.c:53:3
	call	CLOCK_EnableClock
	lui	a0, 262216
	addi	a1, zero, 7
	addi	a2, zero, 3
	.loc	6 55 3                          # C:/Vega/rv32m1_sdk_riscv/boards/rv32m1_vega/rtos_examples/freertos_hello/pin_mux.c:55:3
	sw	a0, -12(s0)
	sw	a2, -16(s0)
	call	PORT_SetPinMux
	addi	a1, zero, 8
	.loc	6 56 3                          # C:/Vega/rv32m1_sdk_riscv/boards/rv32m1_vega/rtos_examples/freertos_hello/pin_mux.c:56:3
	lw	a0, -12(s0)
	lw	a2, -16(s0)
	call	PORT_SetPinMux
	.loc	6 57 1                          # C:/Vega/rv32m1_sdk_riscv/boards/rv32m1_vega/rtos_examples/freertos_hello/pin_mux.c:57:1
	lw	s0, 8(sp)
	lw	ra, 12(sp)
	addi	sp, sp, 16
	ret
.Ltmp3:
.Lfunc_end1:
	.size	BOARD_InitPins, .Lfunc_end1-BOARD_InitPins
	.cfi_endproc
                                        # -- End function
	.section	.text.CLOCK_EnableClock,"ax",@progbits
	.p2align	2                               # -- Begin function CLOCK_EnableClock
	.type	CLOCK_EnableClock,@function
CLOCK_EnableClock:                      # @CLOCK_EnableClock
.Lfunc_begin2:
	.loc	1 778 0                         # C:/Vega/rv32m1_sdk_riscv/boards/rv32m1_vega/rtos_examples/freertos_hello/ri5cy/riscvgcc/../../../../../../devices/RV32M1/drivers/fsl_clock.h:778:0
	.cfi_startproc
# %bb.0:                                # %entry
	addi	sp, sp, -16
	.cfi_def_cfa_offset 16
	sw	ra, 12(sp)
	sw	s0, 8(sp)
	.cfi_offset ra, -4
	.cfi_offset s0, -8
	addi	s0, sp, 16
	.cfi_def_cfa s0, 0
	sw	a0, -12(s0)
.Ltmp4:
	.loc	1 779 30 prologue_end           # C:/Vega/rv32m1_sdk_riscv/boards/rv32m1_vega/rtos_examples/freertos_hello/ri5cy/riscvgcc/../../../../../../devices/RV32M1/drivers/fsl_clock.h:779:30
	lw	a0, -12(s0)
	.loc	1 779 8 is_stmt 0               # C:/Vega/rv32m1_sdk_riscv/boards/rv32m1_vega/rtos_examples/freertos_hello/ri5cy/riscvgcc/../../../../../../devices/RV32M1/drivers/fsl_clock.h:779:8
	lw	a0, 0(a0)
	lui	a1, 524288
	.loc	1 779 36                        # C:/Vega/rv32m1_sdk_riscv/boards/rv32m1_vega/rtos_examples/freertos_hello/ri5cy/riscvgcc/../../../../../../devices/RV32M1/drivers/fsl_clock.h:779:36
	and	a0, a0, a1
	mv	a1, zero
	.loc	1 779 6                         # C:/Vega/rv32m1_sdk_riscv/boards/rv32m1_vega/rtos_examples/freertos_hello/ri5cy/riscvgcc/../../../../../../devices/RV32M1/drivers/fsl_clock.h:779:6
	beq	a0, a1, .LBB2_2
	j	.LBB2_1
.LBB2_1:                                # %cond.true
	j	.LBB2_3
.LBB2_2:                                # %cond.false
	.loc	1 779 65                        # C:/Vega/rv32m1_sdk_riscv/boards/rv32m1_vega/rtos_examples/freertos_hello/ri5cy/riscvgcc/../../../../../../devices/RV32M1/drivers/fsl_clock.h:779:65
	lui	a0, %hi(.L.str)
	addi	a0, a0, %lo(.L.str)
	lui	a1, %hi(.L__func__.CLOCK_EnableClock)
	addi	a2, a1, %lo(.L__func__.CLOCK_EnableClock)
	lui	a1, %hi(.L.str.1)
	addi	a3, a1, %lo(.L.str.1)
	addi	a1, zero, 779
	call	__assert_func
.LBB2_3:                                # %cond.end
	.loc	1 781 28 is_stmt 1              # C:/Vega/rv32m1_sdk_riscv/boards/rv32m1_vega/rtos_examples/freertos_hello/ri5cy/riscvgcc/../../../../../../devices/RV32M1/drivers/fsl_clock.h:781:28
	lw	a0, -12(s0)
	.loc	1 781 34 is_stmt 0              # C:/Vega/rv32m1_sdk_riscv/boards/rv32m1_vega/rtos_examples/freertos_hello/ri5cy/riscvgcc/../../../../../../devices/RV32M1/drivers/fsl_clock.h:781:34
	lw	a1, 0(a0)
	lui	a2, 262144
	or	a1, a1, a2
	sw	a1, 0(a0)
	.loc	1 782 1 is_stmt 1               # C:/Vega/rv32m1_sdk_riscv/boards/rv32m1_vega/rtos_examples/freertos_hello/ri5cy/riscvgcc/../../../../../../devices/RV32M1/drivers/fsl_clock.h:782:1
	lw	s0, 8(sp)
	lw	ra, 12(sp)
	addi	sp, sp, 16
	ret
.Ltmp5:
.Lfunc_end2:
	.size	CLOCK_EnableClock, .Lfunc_end2-CLOCK_EnableClock
	.cfi_endproc
                                        # -- End function
	.section	.text.PORT_SetPinMux,"ax",@progbits
	.p2align	2                               # -- Begin function PORT_SetPinMux
	.type	PORT_SetPinMux,@function
PORT_SetPinMux:                         # @PORT_SetPinMux
.Lfunc_begin3:
	.loc	2 339 0                         # C:/Vega/rv32m1_sdk_riscv/boards/rv32m1_vega/rtos_examples/freertos_hello/ri5cy/riscvgcc/../../../../../../devices/RV32M1/drivers\fsl_port.h:339:0
	.cfi_startproc
# %bb.0:                                # %entry
	addi	sp, sp, -32
	.cfi_def_cfa_offset 32
	sw	ra, 28(sp)
	sw	s0, 24(sp)
	.cfi_offset ra, -4
	.cfi_offset s0, -8
	addi	s0, sp, 32
	.cfi_def_cfa s0, 0
	sw	a0, -12(s0)
	sw	a1, -16(s0)
	sw	a2, -20(s0)
.Ltmp6:
	.loc	2 340 23 prologue_end           # C:/Vega/rv32m1_sdk_riscv/boards/rv32m1_vega/rtos_examples/freertos_hello/ri5cy/riscvgcc/../../../../../../devices/RV32M1/drivers\fsl_port.h:340:23
	lw	a0, -12(s0)
	.loc	2 340 33 is_stmt 0              # C:/Vega/rv32m1_sdk_riscv/boards/rv32m1_vega/rtos_examples/freertos_hello/ri5cy/riscvgcc/../../../../../../devices/RV32M1/drivers\fsl_port.h:340:33
	lw	a1, -16(s0)
	.loc	2 340 23                        # C:/Vega/rv32m1_sdk_riscv/boards/rv32m1_vega/rtos_examples/freertos_hello/ri5cy/riscvgcc/../../../../../../devices/RV32M1/drivers\fsl_port.h:340:23
	slli	a1, a1, 2
	add	a0, a0, a1
	lw	a0, 0(a0)
	.loc	2 340 38                        # C:/Vega/rv32m1_sdk_riscv/boards/rv32m1_vega/rtos_examples/freertos_hello/ri5cy/riscvgcc/../../../../../../devices/RV32M1/drivers\fsl_port.h:340:38
	andi	a0, a0, -1793
	.loc	2 340 78                        # C:/Vega/rv32m1_sdk_riscv/boards/rv32m1_vega/rtos_examples/freertos_hello/ri5cy/riscvgcc/../../../../../../devices/RV32M1/drivers\fsl_port.h:340:78
	lw	a1, -20(s0)
	.loc	2 340 84                        # C:/Vega/rv32m1_sdk_riscv/boards/rv32m1_vega/rtos_examples/freertos_hello/ri5cy/riscvgcc/../../../../../../devices/RV32M1/drivers\fsl_port.h:340:84
	slli	a1, a1, 8
	.loc	2 340 94                        # C:/Vega/rv32m1_sdk_riscv/boards/rv32m1_vega/rtos_examples/freertos_hello/ri5cy/riscvgcc/../../../../../../devices/RV32M1/drivers\fsl_port.h:340:94
	andi	a1, a1, 1792
	.loc	2 340 51                        # C:/Vega/rv32m1_sdk_riscv/boards/rv32m1_vega/rtos_examples/freertos_hello/ri5cy/riscvgcc/../../../../../../devices/RV32M1/drivers\fsl_port.h:340:51
	or	a0, a0, a1
	.loc	2 340 5                         # C:/Vega/rv32m1_sdk_riscv/boards/rv32m1_vega/rtos_examples/freertos_hello/ri5cy/riscvgcc/../../../../../../devices/RV32M1/drivers\fsl_port.h:340:5
	lw	a1, -12(s0)
	.loc	2 340 15                        # C:/Vega/rv32m1_sdk_riscv/boards/rv32m1_vega/rtos_examples/freertos_hello/ri5cy/riscvgcc/../../../../../../devices/RV32M1/drivers\fsl_port.h:340:15
	lw	a2, -16(s0)
	.loc	2 340 5                         # C:/Vega/rv32m1_sdk_riscv/boards/rv32m1_vega/rtos_examples/freertos_hello/ri5cy/riscvgcc/../../../../../../devices/RV32M1/drivers\fsl_port.h:340:5
	slli	a2, a2, 2
	add	a1, a1, a2
	.loc	2 340 20                        # C:/Vega/rv32m1_sdk_riscv/boards/rv32m1_vega/rtos_examples/freertos_hello/ri5cy/riscvgcc/../../../../../../devices/RV32M1/drivers\fsl_port.h:340:20
	sw	a0, 0(a1)
	.loc	2 341 1 is_stmt 1               # C:/Vega/rv32m1_sdk_riscv/boards/rv32m1_vega/rtos_examples/freertos_hello/ri5cy/riscvgcc/../../../../../../devices/RV32M1/drivers\fsl_port.h:341:1
	lw	s0, 24(sp)
	lw	ra, 28(sp)
	addi	sp, sp, 32
	ret
.Ltmp7:
.Lfunc_end3:
	.size	PORT_SetPinMux, .Lfunc_end3-PORT_SetPinMux
	.cfi_endproc
                                        # -- End function
	.type	.L.str,@object                  # @.str
	.section	.rodata.str1.1,"aMS",@progbits,1
.L.str:
	.asciz	"C:/Vega/rv32m1_sdk_riscv/boards/rv32m1_vega/rtos_examples/freertos_hello/ri5cy/riscvgcc/../../../../../../devices/RV32M1/drivers/fsl_clock.h"
	.size	.L.str, 141

	.type	.L__func__.CLOCK_EnableClock,@object # @__func__.CLOCK_EnableClock
.L__func__.CLOCK_EnableClock:
	.asciz	"CLOCK_EnableClock"
	.size	.L__func__.CLOCK_EnableClock, 18

	.type	.L.str.1,@object                # @.str.1
.L.str.1:
	.asciz	"(*(volatile uint32_t *)name) & PCC_CLKCFG_PR_MASK"
	.size	.L.str.1, 50

	.section	".note.GNU-stack","",@progbits
	.addrsig
	.addrsig_sym BOARD_InitPins
	.addrsig_sym CLOCK_EnableClock
	.addrsig_sym PORT_SetPinMux
	.addrsig_sym __assert_func