	.text
	.attribute	4, 16
	.attribute	5, "rv32i2p0"
	.file	"port.c"
	.file	1 "C:/Vega/rv32m1_sdk_riscv/boards/rv32m1_vega/rtos_examples/freertos_hello/ri5cy/riscvgcc/../../../../../../rtos/freertos_9.0.0/Source/portable/GCC/RISCY" "portmacro.h"
	.file	2 "C:/Vega/rv32m1_sdk_riscv/rtos/freertos_9.0.0/Source/portable/GCC/RISCY" "port.c"
	.file	3 "C:/Vega/rv32m1_sdk_riscv/boards/rv32m1_vega/rtos_examples/freertos_hello/ri5cy/riscvgcc/../../../../../../devices/RV32M1/drivers" "fsl_clock.h"
	.file	4 "C:\\Vega" "riscv32-unknown-elf-gcc\\riscv32-unknown-elf\\include\\machine\\_default_types.h"
	.file	5 "C:\\Vega" "riscv32-unknown-elf-gcc\\riscv32-unknown-elf\\include\\sys\\_stdint.h"
	.section	.text.portYIELD_FROM_ISR,"ax",@progbits
	.globl	portYIELD_FROM_ISR              # -- Begin function portYIELD_FROM_ISR
	.p2align	2
	.type	portYIELD_FROM_ISR,@function
portYIELD_FROM_ISR:                     # @portYIELD_FROM_ISR
.Lfunc_begin0:
	.loc	2 121 0                         # C:/Vega/rv32m1_sdk_riscv/rtos/freertos_9.0.0/Source/portable/GCC/RISCY/port.c:121:0
	.cfi_sections .debug_frame
	.cfi_startproc
# %bb.0:                                # %entry
	addi	sp, sp, -16
	.cfi_def_cfa_offset 16
	sw	ra, 12(sp)
	sw	s0, 8(sp)
	.cfi_offset ra, -4
	.cfi_offset s0, -8
	addi	s0, sp, 16
	.cfi_def_cfa s0, 0
	sw	a0, -12(s0)
.Ltmp0:
	.loc	2 122 34 prologue_end           # C:/Vega/rv32m1_sdk_riscv/rtos/freertos_9.0.0/Source/portable/GCC/RISCY/port.c:122:34
	lw	a0, -12(s0)
	mv	a1, zero
.Ltmp1:
	.loc	2 122 9 is_stmt 0               # C:/Vega/rv32m1_sdk_riscv/rtos/freertos_9.0.0/Source/portable/GCC/RISCY/port.c:122:9
	beq	a0, a1, .LBB0_2
	j	.LBB0_1
.LBB0_1:                                # %if.then
.Ltmp2:
	.loc	2 124 25 is_stmt 1              # C:/Vega/rv32m1_sdk_riscv/rtos/freertos_9.0.0/Source/portable/GCC/RISCY/port.c:124:25
	lui	a0, %hi(uxYieldRequired)
	addi	a1, zero, 1
	sw	a1, %lo(uxYieldRequired)(a0)
	.loc	2 125 5                         # C:/Vega/rv32m1_sdk_riscv/rtos/freertos_9.0.0/Source/portable/GCC/RISCY/port.c:125:5
	j	.LBB0_2
.Ltmp3:
.LBB0_2:                                # %if.end
	.loc	2 126 1                         # C:/Vega/rv32m1_sdk_riscv/rtos/freertos_9.0.0/Source/portable/GCC/RISCY/port.c:126:1
	lw	s0, 8(sp)
	lw	ra, 12(sp)
	addi	sp, sp, 16
	ret
.Ltmp4:
.Lfunc_end0:
	.size	portYIELD_FROM_ISR, .Lfunc_end0-portYIELD_FROM_ISR
	.cfi_endproc
                                        # -- End function
	.section	.text.portYIELD,"ax",@progbits
	.globl	portYIELD                       # -- Begin function portYIELD
	.p2align	2
	.type	portYIELD,@function
portYIELD:                              # @portYIELD
.Lfunc_begin1:
	.loc	2 129 0                         # C:/Vega/rv32m1_sdk_riscv/rtos/freertos_9.0.0/Source/portable/GCC/RISCY/port.c:129:0
	.cfi_startproc
# %bb.0:                                # %entry
	addi	sp, sp, -16
	.cfi_def_cfa_offset 16
.Ltmp5:
	.loc	2 130 9 prologue_end            # C:/Vega/rv32m1_sdk_riscv/rtos/freertos_9.0.0/Source/portable/GCC/RISCY/port.c:130:9
	sw	ra, 12(sp)
	sw	s0, 8(sp)
	.cfi_offset ra, -4
	.cfi_offset s0, -8
	addi	s0, sp, 16
	.cfi_def_cfa s0, 0
	lui	a0, %hi(uxCriticalNesting)
	lw	a0, %lo(uxCriticalNesting)(a0)
	mv	a1, zero
.Ltmp6:
	.loc	2 130 9 is_stmt 0               # C:/Vega/rv32m1_sdk_riscv/rtos/freertos_9.0.0/Source/portable/GCC/RISCY/port.c:130:9
	bne	a0, a1, .LBB1_2
	j	.LBB1_1
.LBB1_1:                                # %if.then
.Ltmp7:
	.loc	2 132 9 is_stmt 1               # C:/Vega/rv32m1_sdk_riscv/rtos/freertos_9.0.0/Source/portable/GCC/RISCY/port.c:132:9
	#APP
	ecall	

	#NO_APP
	.loc	2 133 5                         # C:/Vega/rv32m1_sdk_riscv/rtos/freertos_9.0.0/Source/portable/GCC/RISCY/port.c:133:5
	j	.LBB1_3
.Ltmp8:
.LBB1_2:                                # %if.else
	.loc	2 136 25                        # C:/Vega/rv32m1_sdk_riscv/rtos/freertos_9.0.0/Source/portable/GCC/RISCY/port.c:136:25
	lui	a0, %hi(uxYieldRequired)
	addi	a1, zero, 1
	sw	a1, %lo(uxYieldRequired)(a0)
	j	.LBB1_3
.Ltmp9:
.LBB1_3:                                # %if.end
	.loc	2 138 1                         # C:/Vega/rv32m1_sdk_riscv/rtos/freertos_9.0.0/Source/portable/GCC/RISCY/port.c:138:1
	lw	s0, 8(sp)
	lw	ra, 12(sp)
	addi	sp, sp, 16
	ret
.Ltmp10:
.Lfunc_end1:
	.size	portYIELD, .Lfunc_end1-portYIELD
	.cfi_endproc
                                        # -- End function
	.section	.text.pxPortInitialiseStack,"ax",@progbits
	.globl	pxPortInitialiseStack           # -- Begin function pxPortInitialiseStack
	.p2align	2
	.type	pxPortInitialiseStack,@function
pxPortInitialiseStack:                  # @pxPortInitialiseStack
.Lfunc_begin2:
	.loc	2 164 0                         # C:/Vega/rv32m1_sdk_riscv/rtos/freertos_9.0.0/Source/portable/GCC/RISCY/port.c:164:0
	.cfi_startproc
# %bb.0:                                # %entry
	addi	sp, sp, -32
	.cfi_def_cfa_offset 32
	sw	ra, 28(sp)
	sw	s0, 24(sp)
	.cfi_offset ra, -4
	.cfi_offset s0, -8
	addi	s0, sp, 32
	.cfi_def_cfa s0, 0
	sw	a0, -12(s0)
	sw	a1, -16(s0)
	sw	a2, -20(s0)
.Ltmp11:
	.loc	2 166 6 prologue_end            # C:/Vega/rv32m1_sdk_riscv/rtos/freertos_9.0.0/Source/portable/GCC/RISCY/port.c:166:6
	lw	a0, -12(s0)
	lui	a1, 912092
	addi	a1, a1, -273
	.loc	2 166 19 is_stmt 0              # C:/Vega/rv32m1_sdk_riscv/rtos/freertos_9.0.0/Source/portable/GCC/RISCY/port.c:166:19
	sw	a1, 0(a0)
	.loc	2 167 17 is_stmt 1              # C:/Vega/rv32m1_sdk_riscv/rtos/freertos_9.0.0/Source/portable/GCC/RISCY/port.c:167:17
	lw	a0, -12(s0)
	addi	a0, a0, -4
	sw	a0, -12(s0)
	.loc	2 170 6                         # C:/Vega/rv32m1_sdk_riscv/rtos/freertos_9.0.0/Source/portable/GCC/RISCY/port.c:170:6
	lw	a0, -12(s0)
	lui	a1, 2
	addi	a1, a1, -1920
	.loc	2 170 19 is_stmt 0              # C:/Vega/rv32m1_sdk_riscv/rtos/freertos_9.0.0/Source/portable/GCC/RISCY/port.c:170:19
	sw	a1, 0(a0)
	.loc	2 171 17 is_stmt 1              # C:/Vega/rv32m1_sdk_riscv/rtos/freertos_9.0.0/Source/portable/GCC/RISCY/port.c:171:17
	lw	a0, -12(s0)
	addi	a0, a0, -4
	sw	a0, -12(s0)
	.loc	2 174 37                        # C:/Vega/rv32m1_sdk_riscv/rtos/freertos_9.0.0/Source/portable/GCC/RISCY/port.c:174:37
	lw	a0, -16(s0)
	.loc	2 174 6 is_stmt 0               # C:/Vega/rv32m1_sdk_riscv/rtos/freertos_9.0.0/Source/portable/GCC/RISCY/port.c:174:6
	lw	a1, -12(s0)
	.loc	2 174 19                        # C:/Vega/rv32m1_sdk_riscv/rtos/freertos_9.0.0/Source/portable/GCC/RISCY/port.c:174:19
	sw	a0, 0(a1)
	.loc	2 175 17 is_stmt 1              # C:/Vega/rv32m1_sdk_riscv/rtos/freertos_9.0.0/Source/portable/GCC/RISCY/port.c:175:17
	lw	a0, -12(s0)
	addi	a0, a0, -4
	sw	a0, -12(s0)
	.loc	2 178 18                        # C:/Vega/rv32m1_sdk_riscv/rtos/freertos_9.0.0/Source/portable/GCC/RISCY/port.c:178:18
	lw	a0, -12(s0)
	addi	a0, a0, -52
	sw	a0, -12(s0)
	.loc	2 181 37                        # C:/Vega/rv32m1_sdk_riscv/rtos/freertos_9.0.0/Source/portable/GCC/RISCY/port.c:181:37
	lw	a0, -20(s0)
	.loc	2 181 6 is_stmt 0               # C:/Vega/rv32m1_sdk_riscv/rtos/freertos_9.0.0/Source/portable/GCC/RISCY/port.c:181:6
	lw	a1, -12(s0)
	.loc	2 181 19                        # C:/Vega/rv32m1_sdk_riscv/rtos/freertos_9.0.0/Source/portable/GCC/RISCY/port.c:181:19
	sw	a0, 0(a1)
	.loc	2 182 17 is_stmt 1              # C:/Vega/rv32m1_sdk_riscv/rtos/freertos_9.0.0/Source/portable/GCC/RISCY/port.c:182:17
	lw	a0, -12(s0)
	addi	a0, a0, -4
	sw	a0, -12(s0)
	.loc	2 185 18                        # C:/Vega/rv32m1_sdk_riscv/rtos/freertos_9.0.0/Source/portable/GCC/RISCY/port.c:185:18
	lw	a0, -12(s0)
	addi	a0, a0, -16
	sw	a0, -12(s0)
	.loc	2 188 6                         # C:/Vega/rv32m1_sdk_riscv/rtos/freertos_9.0.0/Source/portable/GCC/RISCY/port.c:188:6
	lw	a0, -12(s0)
	.loc	2 188 19 is_stmt 0              # C:/Vega/rv32m1_sdk_riscv/rtos/freertos_9.0.0/Source/portable/GCC/RISCY/port.c:188:19
	lui	a1, %hi(__global_pointer)
	addi	a1, a1, %lo(__global_pointer)
	sw	a1, 0(a0)
	.loc	2 189 17 is_stmt 1              # C:/Vega/rv32m1_sdk_riscv/rtos/freertos_9.0.0/Source/portable/GCC/RISCY/port.c:189:17
	lw	a0, -12(s0)
	addi	a0, a0, -4
	sw	a0, -12(s0)
	.loc	2 192 6                         # C:/Vega/rv32m1_sdk_riscv/rtos/freertos_9.0.0/Source/portable/GCC/RISCY/port.c:192:6
	lw	a0, -12(s0)
	.loc	2 192 19 is_stmt 0              # C:/Vega/rv32m1_sdk_riscv/rtos/freertos_9.0.0/Source/portable/GCC/RISCY/port.c:192:19
	lui	a1, %hi(prvTaskExitError)
	addi	a1, a1, %lo(prvTaskExitError)
	sw	a1, 0(a0)
	.loc	2 193 17 is_stmt 1              # C:/Vega/rv32m1_sdk_riscv/rtos/freertos_9.0.0/Source/portable/GCC/RISCY/port.c:193:17
	lw	a0, -12(s0)
	addi	a0, a0, -4
	sw	a0, -12(s0)
	.loc	2 196 18                        # C:/Vega/rv32m1_sdk_riscv/rtos/freertos_9.0.0/Source/portable/GCC/RISCY/port.c:196:18
	lw	a0, -12(s0)
	addi	a0, a0, -60
	sw	a0, -12(s0)
	.loc	2 198 12                        # C:/Vega/rv32m1_sdk_riscv/rtos/freertos_9.0.0/Source/portable/GCC/RISCY/port.c:198:12
	lw	a0, -12(s0)
	.loc	2 198 5 is_stmt 0               # C:/Vega/rv32m1_sdk_riscv/rtos/freertos_9.0.0/Source/portable/GCC/RISCY/port.c:198:5
	lw	s0, 24(sp)
	lw	ra, 28(sp)
	addi	sp, sp, 32
	ret
.Ltmp12:
.Lfunc_end2:
	.size	pxPortInitialiseStack, .Lfunc_end2-pxPortInitialiseStack
	.cfi_endproc
                                        # -- End function
	.section	.text.prvTaskExitError,"ax",@progbits
	.p2align	2                               # -- Begin function prvTaskExitError
	.type	prvTaskExitError,@function
prvTaskExitError:                       # @prvTaskExitError
.Lfunc_begin3:
	.loc	2 143 0 is_stmt 1               # C:/Vega/rv32m1_sdk_riscv/rtos/freertos_9.0.0/Source/portable/GCC/RISCY/port.c:143:0
	.cfi_startproc
# %bb.0:                                # %entry
	addi	sp, sp, -16
	.cfi_def_cfa_offset 16
.Ltmp13:
	.loc	2 150 10 prologue_end           # C:/Vega/rv32m1_sdk_riscv/rtos/freertos_9.0.0/Source/portable/GCC/RISCY/port.c:150:10
	sw	ra, 12(sp)
	sw	s0, 8(sp)
	.cfi_offset ra, -4
	.cfi_offset s0, -8
	addi	s0, sp, 16
	.cfi_def_cfa s0, 0
	lui	a0, %hi(uxCriticalNesting)
	lw	a0, %lo(uxCriticalNesting)(a0)
	addi	a1, zero, -1
.Ltmp14:
	.loc	2 150 8 is_stmt 0               # C:/Vega/rv32m1_sdk_riscv/rtos/freertos_9.0.0/Source/portable/GCC/RISCY/port.c:150:8
	beq	a0, a1, .LBB3_3
	j	.LBB3_1
.LBB3_1:                                # %if.then
.Ltmp15:
	.loc	2 150 44                        # C:/Vega/rv32m1_sdk_riscv/rtos/freertos_9.0.0/Source/portable/GCC/RISCY/port.c:150:44
	call	vPortSetInterruptMask
	.loc	2 150 69                        # C:/Vega/rv32m1_sdk_riscv/rtos/freertos_9.0.0/Source/portable/GCC/RISCY/port.c:150:69
	j	.LBB3_2
.LBB3_2:                                # %for.cond
                                        # =>This Inner Loop Header: Depth=1
.Ltmp16:
	.loc	2 150 69                        # C:/Vega/rv32m1_sdk_riscv/rtos/freertos_9.0.0/Source/portable/GCC/RISCY/port.c:150:69
	j	.LBB3_2
.Ltmp17:
.LBB3_3:                                # %if.end
	.loc	2 151 5 is_stmt 1               # C:/Vega/rv32m1_sdk_riscv/rtos/freertos_9.0.0/Source/portable/GCC/RISCY/port.c:151:5
	call	portCPU_IRQ_DISABLE
	.loc	2 152 5                         # C:/Vega/rv32m1_sdk_riscv/rtos/freertos_9.0.0/Source/portable/GCC/RISCY/port.c:152:5
	j	.LBB3_4
.LBB3_4:                                # %for.cond4
                                        # =>This Inner Loop Header: Depth=1
.Ltmp18:
	.loc	2 152 5 is_stmt 0               # C:/Vega/rv32m1_sdk_riscv/rtos/freertos_9.0.0/Source/portable/GCC/RISCY/port.c:152:5
	j	.LBB3_4
.Ltmp19:
.Lfunc_end3:
	.size	prvTaskExitError, .Lfunc_end3-prvTaskExitError
	.cfi_endproc
                                        # -- End function
	.section	.text.xPortStartScheduler,"ax",@progbits
	.globl	xPortStartScheduler             # -- Begin function xPortStartScheduler
	.p2align	2
	.type	xPortStartScheduler,@function
xPortStartScheduler:                    # @xPortStartScheduler
.Lfunc_begin4:
	.loc	2 203 0 is_stmt 1               # C:/Vega/rv32m1_sdk_riscv/rtos/freertos_9.0.0/Source/portable/GCC/RISCY/port.c:203:0
	.cfi_startproc
# %bb.0:                                # %entry
	addi	sp, sp, -16
	.cfi_def_cfa_offset 16
.Ltmp20:
	.loc	2 204 5 prologue_end            # C:/Vega/rv32m1_sdk_riscv/rtos/freertos_9.0.0/Source/portable/GCC/RISCY/port.c:204:5
	sw	ra, 12(sp)
	sw	s0, 8(sp)
	.cfi_offset ra, -4
	.cfi_offset s0, -8
	addi	s0, sp, 16
	.cfi_def_cfa s0, 0
	j	.LBB4_1
.LBB4_1:                                # %do.body
	.loc	2 0 5 is_stmt 0                 # C:/Vega/rv32m1_sdk_riscv/rtos/freertos_9.0.0/Source/portable/GCC/RISCY/port.c:0:5
	lui	a0, 262187
	addi	a0, a0, 192
	addi	a1, zero, 3
.Ltmp21:
	.loc	2 204 10                        # C:/Vega/rv32m1_sdk_riscv/rtos/freertos_9.0.0/Source/portable/GCC/RISCY/port.c:204:10
	call	CLOCK_SetIpSrc
	addi	a0, zero, 200
	addi	a1, zero, 6
	.loc	2 204 131                       # C:/Vega/rv32m1_sdk_riscv/rtos/freertos_9.0.0/Source/portable/GCC/RISCY/port.c:204:131
	call	SystemSetupSystick
	.loc	2 204 179                       # C:/Vega/rv32m1_sdk_riscv/rtos/freertos_9.0.0/Source/portable/GCC/RISCY/port.c:204:179
	j	.LBB4_2
.Ltmp22:
.LBB4_2:                                # %do.end
	.loc	2 206 23 is_stmt 1              # C:/Vega/rv32m1_sdk_riscv/rtos/freertos_9.0.0/Source/portable/GCC/RISCY/port.c:206:23
	lui	a0, %hi(uxCriticalNesting)
	mv	a1, zero
	sw	a1, %lo(uxCriticalNesting)(a0)
	.loc	2 208 5                         # C:/Vega/rv32m1_sdk_riscv/rtos/freertos_9.0.0/Source/portable/GCC/RISCY/port.c:208:5
	call	xPortStartFirstTask
	.loc	2 210 5                         # C:/Vega/rv32m1_sdk_riscv/rtos/freertos_9.0.0/Source/portable/GCC/RISCY/port.c:210:5
	call	prvTaskExitError
	addi	a0, zero, 1
	.loc	2 212 5                         # C:/Vega/rv32m1_sdk_riscv/rtos/freertos_9.0.0/Source/portable/GCC/RISCY/port.c:212:5
	lw	s0, 8(sp)
	lw	ra, 12(sp)
	addi	sp, sp, 16
	ret
.Ltmp23:
.Lfunc_end4:
	.size	xPortStartScheduler, .Lfunc_end4-xPortStartScheduler
	.cfi_endproc
                                        # -- End function
	.section	.text.CLOCK_SetIpSrc,"ax",@progbits
	.p2align	2                               # -- Begin function CLOCK_SetIpSrc
	.type	CLOCK_SetIpSrc,@function
CLOCK_SetIpSrc:                         # @CLOCK_SetIpSrc
.Lfunc_begin5:
	.loc	3 821 0                         # C:/Vega/rv32m1_sdk_riscv/boards/rv32m1_vega/rtos_examples/freertos_hello/ri5cy/riscvgcc/../../../../../../devices/RV32M1/drivers/fsl_clock.h:821:0
	.cfi_startproc
# %bb.0:                                # %entry
	addi	sp, sp, -32
	.cfi_def_cfa_offset 32
	sw	ra, 28(sp)
	sw	s0, 24(sp)
	.cfi_offset ra, -4
	.cfi_offset s0, -8
	addi	s0, sp, 32
	.cfi_def_cfa s0, 0
	sw	a0, -12(s0)
	sw	a1, -16(s0)
.Ltmp24:
	.loc	3 822 43 prologue_end           # C:/Vega/rv32m1_sdk_riscv/boards/rv32m1_vega/rtos_examples/freertos_hello/ri5cy/riscvgcc/../../../../../../devices/RV32M1/drivers/fsl_clock.h:822:43
	lw	a0, -12(s0)
	.loc	3 822 21 is_stmt 0              # C:/Vega/rv32m1_sdk_riscv/boards/rv32m1_vega/rtos_examples/freertos_hello/ri5cy/riscvgcc/../../../../../../devices/RV32M1/drivers/fsl_clock.h:822:21
	lw	a0, 0(a0)
	.loc	3 822 14                        # C:/Vega/rv32m1_sdk_riscv/boards/rv32m1_vega/rtos_examples/freertos_hello/ri5cy/riscvgcc/../../../../../../devices/RV32M1/drivers/fsl_clock.h:822:14
	sw	a0, -20(s0)
	.loc	3 824 11 is_stmt 1              # C:/Vega/rv32m1_sdk_riscv/boards/rv32m1_vega/rtos_examples/freertos_hello/ri5cy/riscvgcc/../../../../../../devices/RV32M1/drivers/fsl_clock.h:824:11
	lbu	a0, -17(s0)
	andi	a0, a0, 128
	mv	a1, zero
	.loc	3 824 6 is_stmt 0               # C:/Vega/rv32m1_sdk_riscv/boards/rv32m1_vega/rtos_examples/freertos_hello/ri5cy/riscvgcc/../../../../../../devices/RV32M1/drivers/fsl_clock.h:824:6
	beq	a0, a1, .LBB5_2
	j	.LBB5_1
.LBB5_1:                                # %cond.true
	j	.LBB5_3
.LBB5_2:                                # %cond.false
	.loc	3 824 40                        # C:/Vega/rv32m1_sdk_riscv/boards/rv32m1_vega/rtos_examples/freertos_hello/ri5cy/riscvgcc/../../../../../../devices/RV32M1/drivers/fsl_clock.h:824:40
	lui	a0, %hi(.L.str)
	addi	a0, a0, %lo(.L.str)
	lui	a1, %hi(.L__func__.CLOCK_SetIpSrc)
	addi	a2, a1, %lo(.L__func__.CLOCK_SetIpSrc)
	lui	a1, %hi(.L.str.1)
	addi	a3, a1, %lo(.L.str.1)
	addi	a1, zero, 824
	call	__assert_func
.LBB5_3:                                # %cond.end
	.loc	3 825 13 is_stmt 1              # C:/Vega/rv32m1_sdk_riscv/boards/rv32m1_vega/rtos_examples/freertos_hello/ri5cy/riscvgcc/../../../../../../devices/RV32M1/drivers/fsl_clock.h:825:13
	lbu	a0, -17(s0)
	andi	a0, a0, 32
	mv	a1, zero
	.loc	3 825 6 is_stmt 0               # C:/Vega/rv32m1_sdk_riscv/boards/rv32m1_vega/rtos_examples/freertos_hello/ri5cy/riscvgcc/../../../../../../devices/RV32M1/drivers/fsl_clock.h:825:6
	bne	a0, a1, .LBB5_5
	j	.LBB5_4
.LBB5_4:                                # %cond.true3
	j	.LBB5_6
.LBB5_5:                                # %cond.false4
	.loc	3 825 43                        # C:/Vega/rv32m1_sdk_riscv/boards/rv32m1_vega/rtos_examples/freertos_hello/ri5cy/riscvgcc/../../../../../../devices/RV32M1/drivers/fsl_clock.h:825:43
	lui	a0, %hi(.L.str)
	addi	a0, a0, %lo(.L.str)
	lui	a1, %hi(.L__func__.CLOCK_SetIpSrc)
	addi	a2, a1, %lo(.L__func__.CLOCK_SetIpSrc)
	lui	a1, %hi(.L.str.2)
	addi	a3, a1, %lo(.L.str.2)
	addi	a1, zero, 825
	call	__assert_func
.LBB5_6:                                # %cond.end5
	.loc	3 827 12 is_stmt 1              # C:/Vega/rv32m1_sdk_riscv/boards/rv32m1_vega/rtos_examples/freertos_hello/ri5cy/riscvgcc/../../../../../../devices/RV32M1/drivers/fsl_clock.h:827:12
	lw	a0, -20(s0)
	lui	a1, 1019904
	addi	a1, a1, -1
	.loc	3 827 16 is_stmt 0              # C:/Vega/rv32m1_sdk_riscv/boards/rv32m1_vega/rtos_examples/freertos_hello/ri5cy/riscvgcc/../../../../../../devices/RV32M1/drivers/fsl_clock.h:827:16
	and	a0, a0, a1
	.loc	3 827 60                        # C:/Vega/rv32m1_sdk_riscv/boards/rv32m1_vega/rtos_examples/freertos_hello/ri5cy/riscvgcc/../../../../../../devices/RV32M1/drivers/fsl_clock.h:827:60
	lw	a1, -16(s0)
	.loc	3 827 66                        # C:/Vega/rv32m1_sdk_riscv/boards/rv32m1_vega/rtos_examples/freertos_hello/ri5cy/riscvgcc/../../../../../../devices/RV32M1/drivers/fsl_clock.h:827:66
	slli	a1, a1, 24
	lui	a2, 28672
	.loc	3 827 77                        # C:/Vega/rv32m1_sdk_riscv/boards/rv32m1_vega/rtos_examples/freertos_hello/ri5cy/riscvgcc/../../../../../../devices/RV32M1/drivers/fsl_clock.h:827:77
	and	a1, a1, a2
	.loc	3 827 33                        # C:/Vega/rv32m1_sdk_riscv/boards/rv32m1_vega/rtos_examples/freertos_hello/ri5cy/riscvgcc/../../../../../../devices/RV32M1/drivers/fsl_clock.h:827:33
	or	a0, a0, a1
	.loc	3 827 9                         # C:/Vega/rv32m1_sdk_riscv/boards/rv32m1_vega/rtos_examples/freertos_hello/ri5cy/riscvgcc/../../../../../../devices/RV32M1/drivers/fsl_clock.h:827:9
	sw	a0, -20(s0)
	.loc	3 833 36 is_stmt 1              # C:/Vega/rv32m1_sdk_riscv/boards/rv32m1_vega/rtos_examples/freertos_hello/ri5cy/riscvgcc/../../../../../../devices/RV32M1/drivers/fsl_clock.h:833:36
	lw	a0, -20(s0)
	lui	a1, 786432
	addi	a1, a1, -1
	.loc	3 833 40 is_stmt 0              # C:/Vega/rv32m1_sdk_riscv/boards/rv32m1_vega/rtos_examples/freertos_hello/ri5cy/riscvgcc/../../../../../../devices/RV32M1/drivers/fsl_clock.h:833:40
	and	a0, a0, a1
	.loc	3 833 28                        # C:/Vega/rv32m1_sdk_riscv/boards/rv32m1_vega/rtos_examples/freertos_hello/ri5cy/riscvgcc/../../../../../../devices/RV32M1/drivers/fsl_clock.h:833:28
	lw	a1, -12(s0)
	.loc	3 833 34                        # C:/Vega/rv32m1_sdk_riscv/boards/rv32m1_vega/rtos_examples/freertos_hello/ri5cy/riscvgcc/../../../../../../devices/RV32M1/drivers/fsl_clock.h:833:34
	sw	a0, 0(a1)
	.loc	3 834 36 is_stmt 1              # C:/Vega/rv32m1_sdk_riscv/boards/rv32m1_vega/rtos_examples/freertos_hello/ri5cy/riscvgcc/../../../../../../devices/RV32M1/drivers/fsl_clock.h:834:36
	lw	a0, -20(s0)
	.loc	3 834 28 is_stmt 0              # C:/Vega/rv32m1_sdk_riscv/boards/rv32m1_vega/rtos_examples/freertos_hello/ri5cy/riscvgcc/../../../../../../devices/RV32M1/drivers/fsl_clock.h:834:28
	lw	a1, -12(s0)
	.loc	3 834 34                        # C:/Vega/rv32m1_sdk_riscv/boards/rv32m1_vega/rtos_examples/freertos_hello/ri5cy/riscvgcc/../../../../../../devices/RV32M1/drivers/fsl_clock.h:834:34
	sw	a0, 0(a1)
	.loc	3 835 1 is_stmt 1               # C:/Vega/rv32m1_sdk_riscv/boards/rv32m1_vega/rtos_examples/freertos_hello/ri5cy/riscvgcc/../../../../../../devices/RV32M1/drivers/fsl_clock.h:835:1
	lw	s0, 24(sp)
	lw	ra, 28(sp)
	addi	sp, sp, 32
	ret
.Ltmp25:
.Lfunc_end5:
	.size	CLOCK_SetIpSrc, .Lfunc_end5-CLOCK_SetIpSrc
	.cfi_endproc
                                        # -- End function
	.section	.text.vPortEndScheduler,"ax",@progbits
	.globl	vPortEndScheduler               # -- Begin function vPortEndScheduler
	.p2align	2
	.type	vPortEndScheduler,@function
vPortEndScheduler:                      # @vPortEndScheduler
.Lfunc_begin6:
	.loc	2 217 0                         # C:/Vega/rv32m1_sdk_riscv/rtos/freertos_9.0.0/Source/portable/GCC/RISCY/port.c:217:0
	.cfi_startproc
# %bb.0:                                # %entry
	addi	sp, sp, -16
	.cfi_def_cfa_offset 16
.Ltmp26:
	.loc	2 218 5 prologue_end            # C:/Vega/rv32m1_sdk_riscv/rtos/freertos_9.0.0/Source/portable/GCC/RISCY/port.c:218:5
	sw	ra, 12(sp)
	sw	s0, 8(sp)
	.cfi_offset ra, -4
	.cfi_offset s0, -8
	addi	s0, sp, 16
	.cfi_def_cfa s0, 0
	call	portCPU_IRQ_DISABLE
	.loc	2 219 5                         # C:/Vega/rv32m1_sdk_riscv/rtos/freertos_9.0.0/Source/portable/GCC/RISCY/port.c:219:5
	j	.LBB6_1
.LBB6_1:                                # %for.cond
                                        # =>This Inner Loop Header: Depth=1
.Ltmp27:
	.loc	2 219 5 is_stmt 0               # C:/Vega/rv32m1_sdk_riscv/rtos/freertos_9.0.0/Source/portable/GCC/RISCY/port.c:219:5
	j	.LBB6_1
.Ltmp28:
.Lfunc_end6:
	.size	vPortEndScheduler, .Lfunc_end6-vPortEndScheduler
	.cfi_endproc
                                        # -- End function
	.section	.text.portCPU_IRQ_DISABLE,"ax",@progbits
	.p2align	2                               # -- Begin function portCPU_IRQ_DISABLE
	.type	portCPU_IRQ_DISABLE,@function
portCPU_IRQ_DISABLE:                    # @portCPU_IRQ_DISABLE
.Lfunc_begin7:
	.loc	2 86 0 is_stmt 1                # C:/Vega/rv32m1_sdk_riscv/rtos/freertos_9.0.0/Source/portable/GCC/RISCY/port.c:86:0
	.cfi_startproc
# %bb.0:                                # %entry
	addi	sp, sp, -16
	.cfi_def_cfa_offset 16
.Ltmp29:
	.loc	2 89 5 prologue_end             # C:/Vega/rv32m1_sdk_riscv/rtos/freertos_9.0.0/Source/portable/GCC/RISCY/port.c:89:5
	sw	ra, 12(sp)
	sw	s0, 8(sp)
	.cfi_offset ra, -4
	.cfi_offset s0, -8
	addi	s0, sp, 16
	.cfi_def_cfa s0, 0
	#APP
	csrrci	a0, mstatus, 8
	#NO_APP
	sw	a0, -12(s0)
	.loc	2 91 12                         # C:/Vega/rv32m1_sdk_riscv/rtos/freertos_9.0.0/Source/portable/GCC/RISCY/port.c:91:12
	lw	a0, -12(s0)
	.loc	2 91 5 is_stmt 0                # C:/Vega/rv32m1_sdk_riscv/rtos/freertos_9.0.0/Source/portable/GCC/RISCY/port.c:91:5
	lw	s0, 8(sp)
	lw	ra, 12(sp)
	addi	sp, sp, 16
	ret
.Ltmp30:
.Lfunc_end7:
	.size	portCPU_IRQ_DISABLE, .Lfunc_end7-portCPU_IRQ_DISABLE
	.cfi_endproc
                                        # -- End function
	.section	.text.vPortEnterCritical,"ax",@progbits
	.globl	vPortEnterCritical              # -- Begin function vPortEnterCritical
	.p2align	2
	.type	vPortEnterCritical,@function
vPortEnterCritical:                     # @vPortEnterCritical
.Lfunc_begin8:
	.loc	2 224 0 is_stmt 1               # C:/Vega/rv32m1_sdk_riscv/rtos/freertos_9.0.0/Source/portable/GCC/RISCY/port.c:224:0
	.cfi_startproc
# %bb.0:                                # %entry
	addi	sp, sp, -16
	.cfi_def_cfa_offset 16
.Ltmp31:
	.loc	2 226 5 prologue_end            # C:/Vega/rv32m1_sdk_riscv/rtos/freertos_9.0.0/Source/portable/GCC/RISCY/port.c:226:5
	sw	ra, 12(sp)
	sw	s0, 8(sp)
	.cfi_offset ra, -4
	.cfi_offset s0, -8
	addi	s0, sp, 16
	.cfi_def_cfa s0, 0
	call	vPortSetInterruptMask
	.loc	2 231 22                        # C:/Vega/rv32m1_sdk_riscv/rtos/freertos_9.0.0/Source/portable/GCC/RISCY/port.c:231:22
	lui	a1, %hi(uxCriticalNesting)
	lw	a2, %lo(uxCriticalNesting)(a1)
	addi	a2, a2, 1
	sw	a2, %lo(uxCriticalNesting)(a1)
.Ltmp32:
	.loc	2 238 9                         # C:/Vega/rv32m1_sdk_riscv/rtos/freertos_9.0.0/Source/portable/GCC/RISCY/port.c:238:9
	lw	a1, %lo(uxCriticalNesting)(a1)
	addi	a2, zero, 1
.Ltmp33:
	.loc	2 238 9 is_stmt 0               # C:/Vega/rv32m1_sdk_riscv/rtos/freertos_9.0.0/Source/portable/GCC/RISCY/port.c:238:9
	bne	a1, a2, .LBB8_5
	j	.LBB8_1
.LBB8_1:                                # %if.then
.Ltmp34:
	.loc	2 240 14 is_stmt 1              # C:/Vega/rv32m1_sdk_riscv/rtos/freertos_9.0.0/Source/portable/GCC/RISCY/port.c:240:14
	lui	a0, %hi(uxInterruptNesting)
	lw	a0, %lo(uxInterruptNesting)(a0)
	mv	a1, zero
.Ltmp35:
	.loc	2 240 12 is_stmt 0              # C:/Vega/rv32m1_sdk_riscv/rtos/freertos_9.0.0/Source/portable/GCC/RISCY/port.c:240:12
	beq	a0, a1, .LBB8_4
	j	.LBB8_2
.LBB8_2:                                # %if.then4
.Ltmp36:
	.loc	2 240 46                        # C:/Vega/rv32m1_sdk_riscv/rtos/freertos_9.0.0/Source/portable/GCC/RISCY/port.c:240:46
	call	vPortSetInterruptMask
	.loc	2 240 71                        # C:/Vega/rv32m1_sdk_riscv/rtos/freertos_9.0.0/Source/portable/GCC/RISCY/port.c:240:71
	j	.LBB8_3
.LBB8_3:                                # %for.cond
                                        # =>This Inner Loop Header: Depth=1
.Ltmp37:
	.loc	2 240 71                        # C:/Vega/rv32m1_sdk_riscv/rtos/freertos_9.0.0/Source/portable/GCC/RISCY/port.c:240:71
	j	.LBB8_3
.Ltmp38:
.LBB8_4:                                # %if.end
	.loc	2 241 5 is_stmt 1               # C:/Vega/rv32m1_sdk_riscv/rtos/freertos_9.0.0/Source/portable/GCC/RISCY/port.c:241:5
	j	.LBB8_5
.Ltmp39:
.LBB8_5:                                # %if.end6
	.loc	2 242 1                         # C:/Vega/rv32m1_sdk_riscv/rtos/freertos_9.0.0/Source/portable/GCC/RISCY/port.c:242:1
	lw	s0, 8(sp)
	lw	ra, 12(sp)
	addi	sp, sp, 16
	ret
.Ltmp40:
.Lfunc_end8:
	.size	vPortEnterCritical, .Lfunc_end8-vPortEnterCritical
	.cfi_endproc
                                        # -- End function
	.section	.text.vPortSetInterruptMask,"ax",@progbits
	.globl	vPortSetInterruptMask           # -- Begin function vPortSetInterruptMask
	.p2align	2
	.type	vPortSetInterruptMask,@function
vPortSetInterruptMask:                  # @vPortSetInterruptMask
.Lfunc_begin9:
	.loc	2 260 0                         # C:/Vega/rv32m1_sdk_riscv/rtos/freertos_9.0.0/Source/portable/GCC/RISCY/port.c:260:0
	.cfi_startproc
# %bb.0:                                # %entry
	addi	sp, sp, -16
	.cfi_def_cfa_offset 16
.Ltmp41:
	.loc	2 264 15 prologue_end           # C:/Vega/rv32m1_sdk_riscv/rtos/freertos_9.0.0/Source/portable/GCC/RISCY/port.c:264:15
	sw	ra, 12(sp)
	sw	s0, 8(sp)
	.cfi_offset ra, -4
	.cfi_offset s0, -8
	addi	s0, sp, 16
	.cfi_def_cfa s0, 0
	call	portCPU_IRQ_DISABLE
	.loc	2 264 13 is_stmt 0              # C:/Vega/rv32m1_sdk_riscv/rtos/freertos_9.0.0/Source/portable/GCC/RISCY/port.c:264:13
	sw	a0, -16(s0)
	lui	a0, 917569
	.loc	2 266 12 is_stmt 1              # C:/Vega/rv32m1_sdk_riscv/rtos/freertos_9.0.0/Source/portable/GCC/RISCY/port.c:266:12
	lw	a1, 36(a0)
	.loc	2 266 9 is_stmt 0               # C:/Vega/rv32m1_sdk_riscv/rtos/freertos_9.0.0/Source/portable/GCC/RISCY/port.c:266:9
	sw	a1, -12(s0)
	addi	a1, zero, 2
	.loc	2 268 42 is_stmt 1              # C:/Vega/rv32m1_sdk_riscv/rtos/freertos_9.0.0/Source/portable/GCC/RISCY/port.c:268:42
	sw	a1, 36(a0)
	.loc	2 270 24                        # C:/Vega/rv32m1_sdk_riscv/rtos/freertos_9.0.0/Source/portable/GCC/RISCY/port.c:270:24
	lw	a0, -16(s0)
	.loc	2 270 5 is_stmt 0               # C:/Vega/rv32m1_sdk_riscv/rtos/freertos_9.0.0/Source/portable/GCC/RISCY/port.c:270:5
	call	portCPU_IRQ_ENABLE
	.loc	2 272 12 is_stmt 1              # C:/Vega/rv32m1_sdk_riscv/rtos/freertos_9.0.0/Source/portable/GCC/RISCY/port.c:272:12
	lw	a0, -12(s0)
	.loc	2 272 5 is_stmt 0               # C:/Vega/rv32m1_sdk_riscv/rtos/freertos_9.0.0/Source/portable/GCC/RISCY/port.c:272:5
	lw	s0, 8(sp)
	lw	ra, 12(sp)
	addi	sp, sp, 16
	ret
.Ltmp42:
.Lfunc_end9:
	.size	vPortSetInterruptMask, .Lfunc_end9-vPortSetInterruptMask
	.cfi_endproc
                                        # -- End function
	.section	.text.vPortExitCritical,"ax",@progbits
	.globl	vPortExitCritical               # -- Begin function vPortExitCritical
	.p2align	2
	.type	vPortExitCritical,@function
vPortExitCritical:                      # @vPortExitCritical
.Lfunc_begin10:
	.loc	2 246 0 is_stmt 1               # C:/Vega/rv32m1_sdk_riscv/rtos/freertos_9.0.0/Source/portable/GCC/RISCY/port.c:246:0
	.cfi_startproc
# %bb.0:                                # %entry
	addi	sp, sp, -16
	.cfi_def_cfa_offset 16
.Ltmp43:
	.loc	2 247 10 prologue_end           # C:/Vega/rv32m1_sdk_riscv/rtos/freertos_9.0.0/Source/portable/GCC/RISCY/port.c:247:10
	sw	ra, 12(sp)
	sw	s0, 8(sp)
	.cfi_offset ra, -4
	.cfi_offset s0, -8
	addi	s0, sp, 16
	.cfi_def_cfa s0, 0
	lui	a0, %hi(uxCriticalNesting)
	lw	a0, %lo(uxCriticalNesting)(a0)
	mv	a1, zero
.Ltmp44:
	.loc	2 247 8 is_stmt 0               # C:/Vega/rv32m1_sdk_riscv/rtos/freertos_9.0.0/Source/portable/GCC/RISCY/port.c:247:8
	bne	a0, a1, .LBB10_3
	j	.LBB10_1
.LBB10_1:                               # %if.then
.Ltmp45:
	.loc	2 247 36                        # C:/Vega/rv32m1_sdk_riscv/rtos/freertos_9.0.0/Source/portable/GCC/RISCY/port.c:247:36
	call	vPortSetInterruptMask
	.loc	2 247 61                        # C:/Vega/rv32m1_sdk_riscv/rtos/freertos_9.0.0/Source/portable/GCC/RISCY/port.c:247:61
	j	.LBB10_2
.LBB10_2:                               # %for.cond
                                        # =>This Inner Loop Header: Depth=1
.Ltmp46:
	.loc	2 247 61                        # C:/Vega/rv32m1_sdk_riscv/rtos/freertos_9.0.0/Source/portable/GCC/RISCY/port.c:247:61
	j	.LBB10_2
.Ltmp47:
.LBB10_3:                               # %if.end
	.loc	2 248 22 is_stmt 1              # C:/Vega/rv32m1_sdk_riscv/rtos/freertos_9.0.0/Source/portable/GCC/RISCY/port.c:248:22
	lui	a0, %hi(uxCriticalNesting)
	lw	a1, %lo(uxCriticalNesting)(a0)
	addi	a1, a1, -1
	sw	a1, %lo(uxCriticalNesting)(a0)
.Ltmp48:
	.loc	2 249 9                         # C:/Vega/rv32m1_sdk_riscv/rtos/freertos_9.0.0/Source/portable/GCC/RISCY/port.c:249:9
	lw	a0, %lo(uxCriticalNesting)(a0)
	mv	a1, zero
.Ltmp49:
	.loc	2 249 9 is_stmt 0               # C:/Vega/rv32m1_sdk_riscv/rtos/freertos_9.0.0/Source/portable/GCC/RISCY/port.c:249:9
	bne	a0, a1, .LBB10_7
	j	.LBB10_4
.LBB10_4:                               # %if.then2
	.loc	2 0 9                           # C:/Vega/rv32m1_sdk_riscv/rtos/freertos_9.0.0/Source/portable/GCC/RISCY/port.c:0:9
	addi	a0, zero, 7
.Ltmp50:
	.loc	2 251 9 is_stmt 1               # C:/Vega/rv32m1_sdk_riscv/rtos/freertos_9.0.0/Source/portable/GCC/RISCY/port.c:251:9
	call	vPortClearInterruptMask
.Ltmp51:
	.loc	2 252 13                        # C:/Vega/rv32m1_sdk_riscv/rtos/freertos_9.0.0/Source/portable/GCC/RISCY/port.c:252:13
	lui	a0, %hi(uxYieldRequired)
	lw	a0, %lo(uxYieldRequired)(a0)
	mv	a1, zero
.Ltmp52:
	.loc	2 252 13 is_stmt 0              # C:/Vega/rv32m1_sdk_riscv/rtos/freertos_9.0.0/Source/portable/GCC/RISCY/port.c:252:13
	beq	a0, a1, .LBB10_6
	j	.LBB10_5
.LBB10_5:                               # %if.then3
.Ltmp53:
	.loc	2 254 13 is_stmt 1              # C:/Vega/rv32m1_sdk_riscv/rtos/freertos_9.0.0/Source/portable/GCC/RISCY/port.c:254:13
	#APP
	ecall	

	#NO_APP
	.loc	2 255 9                         # C:/Vega/rv32m1_sdk_riscv/rtos/freertos_9.0.0/Source/portable/GCC/RISCY/port.c:255:9
	j	.LBB10_6
.Ltmp54:
.LBB10_6:                               # %if.end4
	.loc	2 256 5                         # C:/Vega/rv32m1_sdk_riscv/rtos/freertos_9.0.0/Source/portable/GCC/RISCY/port.c:256:5
	j	.LBB10_7
.Ltmp55:
.LBB10_7:                               # %if.end5
	.loc	2 257 1                         # C:/Vega/rv32m1_sdk_riscv/rtos/freertos_9.0.0/Source/portable/GCC/RISCY/port.c:257:1
	lw	s0, 8(sp)
	lw	ra, 12(sp)
	addi	sp, sp, 16
	ret
.Ltmp56:
.Lfunc_end10:
	.size	vPortExitCritical, .Lfunc_end10-vPortExitCritical
	.cfi_endproc
                                        # -- End function
	.section	.text.vPortClearInterruptMask,"ax",@progbits
	.globl	vPortClearInterruptMask         # -- Begin function vPortClearInterruptMask
	.p2align	2
	.type	vPortClearInterruptMask,@function
vPortClearInterruptMask:                # @vPortClearInterruptMask
.Lfunc_begin11:
	.loc	2 276 0                         # C:/Vega/rv32m1_sdk_riscv/rtos/freertos_9.0.0/Source/portable/GCC/RISCY/port.c:276:0
	.cfi_startproc
# %bb.0:                                # %entry
	addi	sp, sp, -16
	.cfi_def_cfa_offset 16
	sw	ra, 12(sp)
	sw	s0, 8(sp)
	.cfi_offset ra, -4
	.cfi_offset s0, -8
	addi	s0, sp, 16
	.cfi_def_cfa s0, 0
	sw	a0, -12(s0)
.Ltmp57:
	.loc	2 279 15 prologue_end           # C:/Vega/rv32m1_sdk_riscv/rtos/freertos_9.0.0/Source/portable/GCC/RISCY/port.c:279:15
	call	portCPU_IRQ_DISABLE
	.loc	2 279 13 is_stmt 0              # C:/Vega/rv32m1_sdk_riscv/rtos/freertos_9.0.0/Source/portable/GCC/RISCY/port.c:279:13
	sw	a0, -16(s0)
	.loc	2 281 44 is_stmt 1              # C:/Vega/rv32m1_sdk_riscv/rtos/freertos_9.0.0/Source/portable/GCC/RISCY/port.c:281:44
	lw	a0, -12(s0)
	lui	a1, 917569
	.loc	2 281 42 is_stmt 0              # C:/Vega/rv32m1_sdk_riscv/rtos/freertos_9.0.0/Source/portable/GCC/RISCY/port.c:281:42
	sw	a0, 36(a1)
	.loc	2 283 24 is_stmt 1              # C:/Vega/rv32m1_sdk_riscv/rtos/freertos_9.0.0/Source/portable/GCC/RISCY/port.c:283:24
	lw	a0, -16(s0)
	.loc	2 283 5 is_stmt 0               # C:/Vega/rv32m1_sdk_riscv/rtos/freertos_9.0.0/Source/portable/GCC/RISCY/port.c:283:5
	call	portCPU_IRQ_ENABLE
	.loc	2 284 1 is_stmt 1               # C:/Vega/rv32m1_sdk_riscv/rtos/freertos_9.0.0/Source/portable/GCC/RISCY/port.c:284:1
	lw	s0, 8(sp)
	lw	ra, 12(sp)
	addi	sp, sp, 16
	ret
.Ltmp58:
.Lfunc_end11:
	.size	vPortClearInterruptMask, .Lfunc_end11-vPortClearInterruptMask
	.cfi_endproc
                                        # -- End function
	.section	.text.portCPU_IRQ_ENABLE,"ax",@progbits
	.p2align	2                               # -- Begin function portCPU_IRQ_ENABLE
	.type	portCPU_IRQ_ENABLE,@function
portCPU_IRQ_ENABLE:                     # @portCPU_IRQ_ENABLE
.Lfunc_begin12:
	.loc	2 94 0                          # C:/Vega/rv32m1_sdk_riscv/rtos/freertos_9.0.0/Source/portable/GCC/RISCY/port.c:94:0
	.cfi_startproc
# %bb.0:                                # %entry
	addi	sp, sp, -16
	.cfi_def_cfa_offset 16
	sw	ra, 12(sp)
	sw	s0, 8(sp)
	.cfi_offset ra, -4
	.cfi_offset s0, -8
	addi	s0, sp, 16
	.cfi_def_cfa s0, 0
	sw	a0, -12(s0)
.Ltmp59:
	.loc	2 95 48 prologue_end            # C:/Vega/rv32m1_sdk_riscv/rtos/freertos_9.0.0/Source/portable/GCC/RISCY/port.c:95:48
	lw	a0, -12(s0)
	.loc	2 95 5 is_stmt 0                # C:/Vega/rv32m1_sdk_riscv/rtos/freertos_9.0.0/Source/portable/GCC/RISCY/port.c:95:5
	#APP
	csrw	mstatus, a0
	#NO_APP
	.loc	2 96 1 is_stmt 1                # C:/Vega/rv32m1_sdk_riscv/rtos/freertos_9.0.0/Source/portable/GCC/RISCY/port.c:96:1
	lw	s0, 8(sp)
	lw	ra, 12(sp)
	addi	sp, sp, 16
	ret
.Ltmp60:
.Lfunc_end12:
	.size	portCPU_IRQ_ENABLE, .Lfunc_end12-portCPU_IRQ_ENABLE
	.cfi_endproc
                                        # -- End function
	.section	.text.LPIT0_IRQHandler,"ax",@progbits
	.globl	LPIT0_IRQHandler                # -- Begin function LPIT0_IRQHandler
	.p2align	2
	.type	LPIT0_IRQHandler,@function
LPIT0_IRQHandler:                       # @LPIT0_IRQHandler
.Lfunc_begin13:
	.loc	2 287 0                         # C:/Vega/rv32m1_sdk_riscv/rtos/freertos_9.0.0/Source/portable/GCC/RISCY/port.c:287:0
	.cfi_startproc
# %bb.0:                                # %entry
	addi	sp, sp, -16
	.cfi_def_cfa_offset 16
.Ltmp61:
	.loc	2 292 2 prologue_end            # C:/Vega/rv32m1_sdk_riscv/rtos/freertos_9.0.0/Source/portable/GCC/RISCY/port.c:292:2
	sw	ra, 12(sp)
	sw	s0, 8(sp)
	.cfi_offset ra, -4
	.cfi_offset s0, -8
	addi	s0, sp, 16
	.cfi_def_cfa s0, 0
	call	vPortSetInterruptMask
	.loc	2 294 5                         # C:/Vega/rv32m1_sdk_riscv/rtos/freertos_9.0.0/Source/portable/GCC/RISCY/port.c:294:5
	j	.LBB13_1
.LBB13_1:                               # %do.body
.Ltmp62:
	.loc	2 294 45 is_stmt 0              # C:/Vega/rv32m1_sdk_riscv/rtos/freertos_9.0.0/Source/portable/GCC/RISCY/port.c:294:45
	call	SystemClearSystickFlag
	.loc	2 294 71                        # C:/Vega/rv32m1_sdk_riscv/rtos/freertos_9.0.0/Source/portable/GCC/RISCY/port.c:294:71
	j	.LBB13_2
.Ltmp63:
.LBB13_2:                               # %do.end
	.loc	2 297 9 is_stmt 1               # C:/Vega/rv32m1_sdk_riscv/rtos/freertos_9.0.0/Source/portable/GCC/RISCY/port.c:297:9
	call	xTaskIncrementTick
	mv	a1, zero
.Ltmp64:
	.loc	2 297 9 is_stmt 0               # C:/Vega/rv32m1_sdk_riscv/rtos/freertos_9.0.0/Source/portable/GCC/RISCY/port.c:297:9
	beq	a0, a1, .LBB13_4
	j	.LBB13_3
.LBB13_3:                               # %if.then
.Ltmp65:
	.loc	2 299 25 is_stmt 1              # C:/Vega/rv32m1_sdk_riscv/rtos/freertos_9.0.0/Source/portable/GCC/RISCY/port.c:299:25
	lui	a0, %hi(uxYieldRequired)
	addi	a1, zero, 1
	sw	a1, %lo(uxYieldRequired)(a0)
	.loc	2 300 5                         # C:/Vega/rv32m1_sdk_riscv/rtos/freertos_9.0.0/Source/portable/GCC/RISCY/port.c:300:5
	j	.LBB13_4
.Ltmp66:
.LBB13_4:                               # %if.end
	.loc	2 0 5 is_stmt 0                 # C:/Vega/rv32m1_sdk_riscv/rtos/freertos_9.0.0/Source/portable/GCC/RISCY/port.c:0:5
	addi	a0, zero, 7
	.loc	2 302 2 is_stmt 1               # C:/Vega/rv32m1_sdk_riscv/rtos/freertos_9.0.0/Source/portable/GCC/RISCY/port.c:302:2
	call	vPortClearInterruptMask
	.loc	2 303 1                         # C:/Vega/rv32m1_sdk_riscv/rtos/freertos_9.0.0/Source/portable/GCC/RISCY/port.c:303:1
	lw	s0, 8(sp)
	lw	ra, 12(sp)
	addi	sp, sp, 16
	ret
.Ltmp67:
.Lfunc_end13:
	.size	LPIT0_IRQHandler, .Lfunc_end13-LPIT0_IRQHandler
	.cfi_endproc
                                        # -- End function
	.type	uxCriticalNesting,@object       # @uxCriticalNesting
	.section	.sdata,"aw",@progbits
	.globl	uxCriticalNesting
	.p2align	2
uxCriticalNesting:
	.word	2863311530                      # 0xaaaaaaaa
	.size	uxCriticalNesting, 4

	.type	uxInterruptNesting,@object      # @uxInterruptNesting
	.section	.sbss,"aw",@nobits
	.globl	uxInterruptNesting
	.p2align	2
uxInterruptNesting:
	.word	0                               # 0x0
	.size	uxInterruptNesting, 4

	.type	uxYieldRequired,@object         # @uxYieldRequired
	.globl	uxYieldRequired
	.p2align	2
uxYieldRequired:
	.word	0                               # 0x0
	.size	uxYieldRequired, 4

	.type	.L.str,@object                  # @.str
	.section	.rodata.str1.1,"aMS",@progbits,1
.L.str:
	.asciz	"C:/Vega/rv32m1_sdk_riscv/boards/rv32m1_vega/rtos_examples/freertos_hello/ri5cy/riscvgcc/../../../../../../devices/RV32M1/drivers/fsl_clock.h"
	.size	.L.str, 141

	.type	.L__func__.CLOCK_SetIpSrc,@object # @__func__.CLOCK_SetIpSrc
.L__func__.CLOCK_SetIpSrc:
	.asciz	"CLOCK_SetIpSrc"
	.size	.L__func__.CLOCK_SetIpSrc, 15

	.type	.L.str.1,@object                # @.str.1
.L.str.1:
	.asciz	"reg & PCC_CLKCFG_PR_MASK"
	.size	.L.str.1, 25

	.type	.L.str.2,@object                # @.str.2
.L.str.2:
	.asciz	"!(reg & PCC_CLKCFG_INUSE_MASK)"
	.size	.L.str.2, 31

	.file	6 "C:/Vega/rv32m1_sdk_riscv/boards/rv32m1_vega/rtos_examples/freertos_hello/ri5cy/riscvgcc/../../../../../../rtos/freertos_9.0.0/Source/include" "projdefs.h"
	.section	".note.GNU-stack","",@progbits
	.addrsig
	.addrsig_sym prvTaskExitError
	.addrsig_sym CLOCK_SetIpSrc
	.addrsig_sym SystemSetupSystick
	.addrsig_sym xPortStartFirstTask
	.addrsig_sym portCPU_IRQ_DISABLE
	.addrsig_sym vPortSetInterruptMask
	.addrsig_sym vPortClearInterruptMask
	.addrsig_sym portCPU_IRQ_ENABLE
	.addrsig_sym SystemClearSystickFlag
	.addrsig_sym xTaskIncrementTick
	.addrsig_sym __assert_func
	.addrsig_sym uxCriticalNesting
	.addrsig_sym uxInterruptNesting
	.addrsig_sym uxYieldRequired
	.addrsig_sym __global_pointer