	.text
	.attribute	4, 16
	.attribute	5, "rv32i2p0"
	.file	"system_RV32M1_ri5cy.c"
	.file	1 "C:\\Vega" "riscv32-unknown-elf-gcc\\riscv32-unknown-elf\\include\\machine\\_default_types.h"
	.file	2 "C:\\Vega" "riscv32-unknown-elf-gcc\\riscv32-unknown-elf\\include\\sys\\_stdint.h"
	.file	3 "C:/Vega/rv32m1_sdk_riscv/devices/RV32M1" "system_RV32M1_ri5cy.c"
	.file	4 "C:/Vega/rv32m1_sdk_riscv/boards/rv32m1_vega/rtos_examples/freertos_hello/ri5cy/riscvgcc/../../../../../../devices/RV32M1/drivers" "fsl_clock.h"
	.file	5 "C:/Vega/rv32m1_sdk_riscv/boards/rv32m1_vega/rtos_examples/freertos_hello/ri5cy/riscvgcc/../../../../../../devices/RV32M1" "RV32M1_ri5cy.h"
	.file	6 "C:/Vega/rv32m1_sdk_riscv/boards/rv32m1_vega/rtos_examples/freertos_hello/ri5cy/riscvgcc/../../../../../../devices/RV32M1/drivers" "fsl_common.h"
	.section	.text.DefaultIRQHandler,"ax",@progbits
	.p2align	2                               # -- Begin function DefaultIRQHandler
	.type	DefaultIRQHandler,@function
DefaultIRQHandler:                      # @DefaultIRQHandler
.Lfunc_begin0:
	.loc	3 349 0                         # C:/Vega/rv32m1_sdk_riscv/devices/RV32M1/system_RV32M1_ri5cy.c:349:0
	.cfi_sections .debug_frame
	.cfi_startproc
# %bb.0:                                # %entry
	addi	sp, sp, -16
	.cfi_def_cfa_offset 16
.Ltmp0:
	.loc	3 350 5 prologue_end            # C:/Vega/rv32m1_sdk_riscv/devices/RV32M1/system_RV32M1_ri5cy.c:350:5
	sw	ra, 12(sp)
	sw	s0, 8(sp)
	.cfi_offset ra, -4
	.cfi_offset s0, -8
	addi	s0, sp, 16
	.cfi_def_cfa s0, 0
	j	.LBB0_1
.LBB0_1:                                # %for.cond
                                        # =>This Inner Loop Header: Depth=1
.Ltmp1:
	.loc	3 350 5 is_stmt 0               # C:/Vega/rv32m1_sdk_riscv/devices/RV32M1/system_RV32M1_ri5cy.c:350:5
	j	.LBB0_1
.Ltmp2:
.Lfunc_end0:
	.size	DefaultIRQHandler, .Lfunc_end0-DefaultIRQHandler
	.cfi_endproc
                                        # -- End function
	.section	.text.DMA0_0_4_8_12_IRQHandler,"ax",@progbits
	.weak	DMA0_0_4_8_12_IRQHandler        # -- Begin function DMA0_0_4_8_12_IRQHandler
	.p2align	2
	.type	DMA0_0_4_8_12_IRQHandler,@function
DMA0_0_4_8_12_IRQHandler:               # @DMA0_0_4_8_12_IRQHandler
.Lfunc_begin1:
	.loc	3 249 0 is_stmt 1               # C:/Vega/rv32m1_sdk_riscv/devices/RV32M1/system_RV32M1_ri5cy.c:249:0
	.cfi_startproc
# %bb.0:                                # %entry
	addi	sp, sp, -16
	.cfi_def_cfa_offset 16
.Ltmp3:
	.loc	3 249 61 prologue_end           # C:/Vega/rv32m1_sdk_riscv/devices/RV32M1/system_RV32M1_ri5cy.c:249:61
	sw	ra, 12(sp)
	sw	s0, 8(sp)
	.cfi_offset ra, -4
	.cfi_offset s0, -8
	addi	s0, sp, 16
	.cfi_def_cfa s0, 0
	call	DMA0_0_4_8_12_DriverIRQHandler
	.loc	3 249 94 is_stmt 0              # C:/Vega/rv32m1_sdk_riscv/devices/RV32M1/system_RV32M1_ri5cy.c:249:94
	lw	s0, 8(sp)
	lw	ra, 12(sp)
	addi	sp, sp, 16
	ret
.Ltmp4:
.Lfunc_end1:
	.size	DMA0_0_4_8_12_IRQHandler, .Lfunc_end1-DMA0_0_4_8_12_IRQHandler
	.cfi_endproc
                                        # -- End function
	.section	.text.DMA0_1_5_9_13_IRQHandler,"ax",@progbits
	.weak	DMA0_1_5_9_13_IRQHandler        # -- Begin function DMA0_1_5_9_13_IRQHandler
	.p2align	2
	.type	DMA0_1_5_9_13_IRQHandler,@function
DMA0_1_5_9_13_IRQHandler:               # @DMA0_1_5_9_13_IRQHandler
.Lfunc_begin2:
	.loc	3 250 0 is_stmt 1               # C:/Vega/rv32m1_sdk_riscv/devices/RV32M1/system_RV32M1_ri5cy.c:250:0
	.cfi_startproc
# %bb.0:                                # %entry
	addi	sp, sp, -16
	.cfi_def_cfa_offset 16
.Ltmp5:
	.loc	3 250 61 prologue_end           # C:/Vega/rv32m1_sdk_riscv/devices/RV32M1/system_RV32M1_ri5cy.c:250:61
	sw	ra, 12(sp)
	sw	s0, 8(sp)
	.cfi_offset ra, -4
	.cfi_offset s0, -8
	addi	s0, sp, 16
	.cfi_def_cfa s0, 0
	call	DMA0_1_5_9_13_DriverIRQHandler
	.loc	3 250 94 is_stmt 0              # C:/Vega/rv32m1_sdk_riscv/devices/RV32M1/system_RV32M1_ri5cy.c:250:94
	lw	s0, 8(sp)
	lw	ra, 12(sp)
	addi	sp, sp, 16
	ret
.Ltmp6:
.Lfunc_end2:
	.size	DMA0_1_5_9_13_IRQHandler, .Lfunc_end2-DMA0_1_5_9_13_IRQHandler
	.cfi_endproc
                                        # -- End function
	.section	.text.DMA0_2_6_10_14_IRQHandler,"ax",@progbits
	.weak	DMA0_2_6_10_14_IRQHandler       # -- Begin function DMA0_2_6_10_14_IRQHandler
	.p2align	2
	.type	DMA0_2_6_10_14_IRQHandler,@function
DMA0_2_6_10_14_IRQHandler:              # @DMA0_2_6_10_14_IRQHandler
.Lfunc_begin3:
	.loc	3 251 0 is_stmt 1               # C:/Vega/rv32m1_sdk_riscv/devices/RV32M1/system_RV32M1_ri5cy.c:251:0
	.cfi_startproc
# %bb.0:                                # %entry
	addi	sp, sp, -16
	.cfi_def_cfa_offset 16
.Ltmp7:
	.loc	3 251 62 prologue_end           # C:/Vega/rv32m1_sdk_riscv/devices/RV32M1/system_RV32M1_ri5cy.c:251:62
	sw	ra, 12(sp)
	sw	s0, 8(sp)
	.cfi_offset ra, -4
	.cfi_offset s0, -8
	addi	s0, sp, 16
	.cfi_def_cfa s0, 0
	call	DMA0_2_6_10_14_DriverIRQHandler
	.loc	3 251 96 is_stmt 0              # C:/Vega/rv32m1_sdk_riscv/devices/RV32M1/system_RV32M1_ri5cy.c:251:96
	lw	s0, 8(sp)
	lw	ra, 12(sp)
	addi	sp, sp, 16
	ret
.Ltmp8:
.Lfunc_end3:
	.size	DMA0_2_6_10_14_IRQHandler, .Lfunc_end3-DMA0_2_6_10_14_IRQHandler
	.cfi_endproc
                                        # -- End function
	.section	.text.DMA0_3_7_11_15_IRQHandler,"ax",@progbits
	.weak	DMA0_3_7_11_15_IRQHandler       # -- Begin function DMA0_3_7_11_15_IRQHandler
	.p2align	2
	.type	DMA0_3_7_11_15_IRQHandler,@function
DMA0_3_7_11_15_IRQHandler:              # @DMA0_3_7_11_15_IRQHandler
.Lfunc_begin4:
	.loc	3 252 0 is_stmt 1               # C:/Vega/rv32m1_sdk_riscv/devices/RV32M1/system_RV32M1_ri5cy.c:252:0
	.cfi_startproc
# %bb.0:                                # %entry
	addi	sp, sp, -16
	.cfi_def_cfa_offset 16
.Ltmp9:
	.loc	3 252 62 prologue_end           # C:/Vega/rv32m1_sdk_riscv/devices/RV32M1/system_RV32M1_ri5cy.c:252:62
	sw	ra, 12(sp)
	sw	s0, 8(sp)
	.cfi_offset ra, -4
	.cfi_offset s0, -8
	addi	s0, sp, 16
	.cfi_def_cfa s0, 0
	call	DMA0_3_7_11_15_DriverIRQHandler
	.loc	3 252 96 is_stmt 0              # C:/Vega/rv32m1_sdk_riscv/devices/RV32M1/system_RV32M1_ri5cy.c:252:96
	lw	s0, 8(sp)
	lw	ra, 12(sp)
	addi	sp, sp, 16
	ret
.Ltmp10:
.Lfunc_end4:
	.size	DMA0_3_7_11_15_IRQHandler, .Lfunc_end4-DMA0_3_7_11_15_IRQHandler
	.cfi_endproc
                                        # -- End function
	.section	.text.FLEXIO0_IRQHandler,"ax",@progbits
	.weak	FLEXIO0_IRQHandler              # -- Begin function FLEXIO0_IRQHandler
	.p2align	2
	.type	FLEXIO0_IRQHandler,@function
FLEXIO0_IRQHandler:                     # @FLEXIO0_IRQHandler
.Lfunc_begin5:
	.loc	3 253 0 is_stmt 1               # C:/Vega/rv32m1_sdk_riscv/devices/RV32M1/system_RV32M1_ri5cy.c:253:0
	.cfi_startproc
# %bb.0:                                # %entry
	addi	sp, sp, -16
	.cfi_def_cfa_offset 16
.Ltmp11:
	.loc	3 253 55 prologue_end           # C:/Vega/rv32m1_sdk_riscv/devices/RV32M1/system_RV32M1_ri5cy.c:253:55
	sw	ra, 12(sp)
	sw	s0, 8(sp)
	.cfi_offset ra, -4
	.cfi_offset s0, -8
	addi	s0, sp, 16
	.cfi_def_cfa s0, 0
	call	FLEXIO0_DriverIRQHandler
	.loc	3 253 82 is_stmt 0              # C:/Vega/rv32m1_sdk_riscv/devices/RV32M1/system_RV32M1_ri5cy.c:253:82
	lw	s0, 8(sp)
	lw	ra, 12(sp)
	addi	sp, sp, 16
	ret
.Ltmp12:
.Lfunc_end5:
	.size	FLEXIO0_IRQHandler, .Lfunc_end5-FLEXIO0_IRQHandler
	.cfi_endproc
                                        # -- End function
	.section	.text.LPI2C0_IRQHandler,"ax",@progbits
	.weak	LPI2C0_IRQHandler               # -- Begin function LPI2C0_IRQHandler
	.p2align	2
	.type	LPI2C0_IRQHandler,@function
LPI2C0_IRQHandler:                      # @LPI2C0_IRQHandler
.Lfunc_begin6:
	.loc	3 254 0 is_stmt 1               # C:/Vega/rv32m1_sdk_riscv/devices/RV32M1/system_RV32M1_ri5cy.c:254:0
	.cfi_startproc
# %bb.0:                                # %entry
	addi	sp, sp, -16
	.cfi_def_cfa_offset 16
.Ltmp13:
	.loc	3 254 54 prologue_end           # C:/Vega/rv32m1_sdk_riscv/devices/RV32M1/system_RV32M1_ri5cy.c:254:54
	sw	ra, 12(sp)
	sw	s0, 8(sp)
	.cfi_offset ra, -4
	.cfi_offset s0, -8
	addi	s0, sp, 16
	.cfi_def_cfa s0, 0
	call	LPI2C0_DriverIRQHandler
	.loc	3 254 80 is_stmt 0              # C:/Vega/rv32m1_sdk_riscv/devices/RV32M1/system_RV32M1_ri5cy.c:254:80
	lw	s0, 8(sp)
	lw	ra, 12(sp)
	addi	sp, sp, 16
	ret
.Ltmp14:
.Lfunc_end6:
	.size	LPI2C0_IRQHandler, .Lfunc_end6-LPI2C0_IRQHandler
	.cfi_endproc
                                        # -- End function
	.section	.text.LPI2C1_IRQHandler,"ax",@progbits
	.weak	LPI2C1_IRQHandler               # -- Begin function LPI2C1_IRQHandler
	.p2align	2
	.type	LPI2C1_IRQHandler,@function
LPI2C1_IRQHandler:                      # @LPI2C1_IRQHandler
.Lfunc_begin7:
	.loc	3 255 0 is_stmt 1               # C:/Vega/rv32m1_sdk_riscv/devices/RV32M1/system_RV32M1_ri5cy.c:255:0
	.cfi_startproc
# %bb.0:                                # %entry
	addi	sp, sp, -16
	.cfi_def_cfa_offset 16
.Ltmp15:
	.loc	3 255 54 prologue_end           # C:/Vega/rv32m1_sdk_riscv/devices/RV32M1/system_RV32M1_ri5cy.c:255:54
	sw	ra, 12(sp)
	sw	s0, 8(sp)
	.cfi_offset ra, -4
	.cfi_offset s0, -8
	addi	s0, sp, 16
	.cfi_def_cfa s0, 0
	call	LPI2C1_DriverIRQHandler
	.loc	3 255 80 is_stmt 0              # C:/Vega/rv32m1_sdk_riscv/devices/RV32M1/system_RV32M1_ri5cy.c:255:80
	lw	s0, 8(sp)
	lw	ra, 12(sp)
	addi	sp, sp, 16
	ret
.Ltmp16:
.Lfunc_end7:
	.size	LPI2C1_IRQHandler, .Lfunc_end7-LPI2C1_IRQHandler
	.cfi_endproc
                                        # -- End function
	.section	.text.LPI2C2_IRQHandler,"ax",@progbits
	.weak	LPI2C2_IRQHandler               # -- Begin function LPI2C2_IRQHandler
	.p2align	2
	.type	LPI2C2_IRQHandler,@function
LPI2C2_IRQHandler:                      # @LPI2C2_IRQHandler
.Lfunc_begin8:
	.loc	3 256 0 is_stmt 1               # C:/Vega/rv32m1_sdk_riscv/devices/RV32M1/system_RV32M1_ri5cy.c:256:0
	.cfi_startproc
# %bb.0:                                # %entry
	addi	sp, sp, -16
	.cfi_def_cfa_offset 16
.Ltmp17:
	.loc	3 256 54 prologue_end           # C:/Vega/rv32m1_sdk_riscv/devices/RV32M1/system_RV32M1_ri5cy.c:256:54
	sw	ra, 12(sp)
	sw	s0, 8(sp)
	.cfi_offset ra, -4
	.cfi_offset s0, -8
	addi	s0, sp, 16
	.cfi_def_cfa s0, 0
	call	LPI2C2_DriverIRQHandler
	.loc	3 256 80 is_stmt 0              # C:/Vega/rv32m1_sdk_riscv/devices/RV32M1/system_RV32M1_ri5cy.c:256:80
	lw	s0, 8(sp)
	lw	ra, 12(sp)
	addi	sp, sp, 16
	ret
.Ltmp18:
.Lfunc_end8:
	.size	LPI2C2_IRQHandler, .Lfunc_end8-LPI2C2_IRQHandler
	.cfi_endproc
                                        # -- End function
	.section	.text.I2S0_IRQHandler,"ax",@progbits
	.weak	I2S0_IRQHandler                 # -- Begin function I2S0_IRQHandler
	.p2align	2
	.type	I2S0_IRQHandler,@function
I2S0_IRQHandler:                        # @I2S0_IRQHandler
.Lfunc_begin9:
	.loc	3 257 0 is_stmt 1               # C:/Vega/rv32m1_sdk_riscv/devices/RV32M1/system_RV32M1_ri5cy.c:257:0
	.cfi_startproc
# %bb.0:                                # %entry
	addi	sp, sp, -16
	.cfi_def_cfa_offset 16
.Ltmp19:
	.loc	3 257 52 prologue_end           # C:/Vega/rv32m1_sdk_riscv/devices/RV32M1/system_RV32M1_ri5cy.c:257:52
	sw	ra, 12(sp)
	sw	s0, 8(sp)
	.cfi_offset ra, -4
	.cfi_offset s0, -8
	addi	s0, sp, 16
	.cfi_def_cfa s0, 0
	call	I2S0_DriverIRQHandler
	.loc	3 257 76 is_stmt 0              # C:/Vega/rv32m1_sdk_riscv/devices/RV32M1/system_RV32M1_ri5cy.c:257:76
	lw	s0, 8(sp)
	lw	ra, 12(sp)
	addi	sp, sp, 16
	ret
.Ltmp20:
.Lfunc_end9:
	.size	I2S0_IRQHandler, .Lfunc_end9-I2S0_IRQHandler
	.cfi_endproc
                                        # -- End function
	.section	.text.USDHC0_IRQHandler,"ax",@progbits
	.weak	USDHC0_IRQHandler               # -- Begin function USDHC0_IRQHandler
	.p2align	2
	.type	USDHC0_IRQHandler,@function
USDHC0_IRQHandler:                      # @USDHC0_IRQHandler
.Lfunc_begin10:
	.loc	3 258 0 is_stmt 1               # C:/Vega/rv32m1_sdk_riscv/devices/RV32M1/system_RV32M1_ri5cy.c:258:0
	.cfi_startproc
# %bb.0:                                # %entry
	addi	sp, sp, -16
	.cfi_def_cfa_offset 16
.Ltmp21:
	.loc	3 258 54 prologue_end           # C:/Vega/rv32m1_sdk_riscv/devices/RV32M1/system_RV32M1_ri5cy.c:258:54
	sw	ra, 12(sp)
	sw	s0, 8(sp)
	.cfi_offset ra, -4
	.cfi_offset s0, -8
	addi	s0, sp, 16
	.cfi_def_cfa s0, 0
	call	USDHC0_DriverIRQHandler
	.loc	3 258 80 is_stmt 0              # C:/Vega/rv32m1_sdk_riscv/devices/RV32M1/system_RV32M1_ri5cy.c:258:80
	lw	s0, 8(sp)
	lw	ra, 12(sp)
	addi	sp, sp, 16
	ret
.Ltmp22:
.Lfunc_end10:
	.size	USDHC0_IRQHandler, .Lfunc_end10-USDHC0_IRQHandler
	.cfi_endproc
                                        # -- End function
	.section	.text.LPSPI0_IRQHandler,"ax",@progbits
	.weak	LPSPI0_IRQHandler               # -- Begin function LPSPI0_IRQHandler
	.p2align	2
	.type	LPSPI0_IRQHandler,@function
LPSPI0_IRQHandler:                      # @LPSPI0_IRQHandler
.Lfunc_begin11:
	.loc	3 259 0 is_stmt 1               # C:/Vega/rv32m1_sdk_riscv/devices/RV32M1/system_RV32M1_ri5cy.c:259:0
	.cfi_startproc
# %bb.0:                                # %entry
	addi	sp, sp, -16
	.cfi_def_cfa_offset 16
.Ltmp23:
	.loc	3 259 54 prologue_end           # C:/Vega/rv32m1_sdk_riscv/devices/RV32M1/system_RV32M1_ri5cy.c:259:54
	sw	ra, 12(sp)
	sw	s0, 8(sp)
	.cfi_offset ra, -4
	.cfi_offset s0, -8
	addi	s0, sp, 16
	.cfi_def_cfa s0, 0
	call	LPSPI0_DriverIRQHandler
	.loc	3 259 80 is_stmt 0              # C:/Vega/rv32m1_sdk_riscv/devices/RV32M1/system_RV32M1_ri5cy.c:259:80
	lw	s0, 8(sp)
	lw	ra, 12(sp)
	addi	sp, sp, 16
	ret
.Ltmp24:
.Lfunc_end11:
	.size	LPSPI0_IRQHandler, .Lfunc_end11-LPSPI0_IRQHandler
	.cfi_endproc
                                        # -- End function
	.section	.text.LPSPI1_IRQHandler,"ax",@progbits
	.weak	LPSPI1_IRQHandler               # -- Begin function LPSPI1_IRQHandler
	.p2align	2
	.type	LPSPI1_IRQHandler,@function
LPSPI1_IRQHandler:                      # @LPSPI1_IRQHandler
.Lfunc_begin12:
	.loc	3 260 0 is_stmt 1               # C:/Vega/rv32m1_sdk_riscv/devices/RV32M1/system_RV32M1_ri5cy.c:260:0
	.cfi_startproc
# %bb.0:                                # %entry
	addi	sp, sp, -16
	.cfi_def_cfa_offset 16
.Ltmp25:
	.loc	3 260 54 prologue_end           # C:/Vega/rv32m1_sdk_riscv/devices/RV32M1/system_RV32M1_ri5cy.c:260:54
	sw	ra, 12(sp)
	sw	s0, 8(sp)
	.cfi_offset ra, -4
	.cfi_offset s0, -8
	addi	s0, sp, 16
	.cfi_def_cfa s0, 0
	call	LPSPI1_DriverIRQHandler
	.loc	3 260 80 is_stmt 0              # C:/Vega/rv32m1_sdk_riscv/devices/RV32M1/system_RV32M1_ri5cy.c:260:80
	lw	s0, 8(sp)
	lw	ra, 12(sp)
	addi	sp, sp, 16
	ret
.Ltmp26:
.Lfunc_end12:
	.size	LPSPI1_IRQHandler, .Lfunc_end12-LPSPI1_IRQHandler
	.cfi_endproc
                                        # -- End function
	.section	.text.LPSPI2_IRQHandler,"ax",@progbits
	.weak	LPSPI2_IRQHandler               # -- Begin function LPSPI2_IRQHandler
	.p2align	2
	.type	LPSPI2_IRQHandler,@function
LPSPI2_IRQHandler:                      # @LPSPI2_IRQHandler
.Lfunc_begin13:
	.loc	3 261 0 is_stmt 1               # C:/Vega/rv32m1_sdk_riscv/devices/RV32M1/system_RV32M1_ri5cy.c:261:0
	.cfi_startproc
# %bb.0:                                # %entry
	addi	sp, sp, -16
	.cfi_def_cfa_offset 16
.Ltmp27:
	.loc	3 261 54 prologue_end           # C:/Vega/rv32m1_sdk_riscv/devices/RV32M1/system_RV32M1_ri5cy.c:261:54
	sw	ra, 12(sp)
	sw	s0, 8(sp)
	.cfi_offset ra, -4
	.cfi_offset s0, -8
	addi	s0, sp, 16
	.cfi_def_cfa s0, 0
	call	LPSPI2_DriverIRQHandler
	.loc	3 261 80 is_stmt 0              # C:/Vega/rv32m1_sdk_riscv/devices/RV32M1/system_RV32M1_ri5cy.c:261:80
	lw	s0, 8(sp)
	lw	ra, 12(sp)
	addi	sp, sp, 16
	ret
.Ltmp28:
.Lfunc_end13:
	.size	LPSPI2_IRQHandler, .Lfunc_end13-LPSPI2_IRQHandler
	.cfi_endproc
                                        # -- End function
	.section	.text.LPUART0_IRQHandler,"ax",@progbits
	.weak	LPUART0_IRQHandler              # -- Begin function LPUART0_IRQHandler
	.p2align	2
	.type	LPUART0_IRQHandler,@function
LPUART0_IRQHandler:                     # @LPUART0_IRQHandler
.Lfunc_begin14:
	.loc	3 262 0 is_stmt 1               # C:/Vega/rv32m1_sdk_riscv/devices/RV32M1/system_RV32M1_ri5cy.c:262:0
	.cfi_startproc
# %bb.0:                                # %entry
	addi	sp, sp, -16
	.cfi_def_cfa_offset 16
.Ltmp29:
	.loc	3 262 55 prologue_end           # C:/Vega/rv32m1_sdk_riscv/devices/RV32M1/system_RV32M1_ri5cy.c:262:55
	sw	ra, 12(sp)
	sw	s0, 8(sp)
	.cfi_offset ra, -4
	.cfi_offset s0, -8
	addi	s0, sp, 16
	.cfi_def_cfa s0, 0
	call	LPUART0_DriverIRQHandler
	.loc	3 262 82 is_stmt 0              # C:/Vega/rv32m1_sdk_riscv/devices/RV32M1/system_RV32M1_ri5cy.c:262:82
	lw	s0, 8(sp)
	lw	ra, 12(sp)
	addi	sp, sp, 16
	ret
.Ltmp30:
.Lfunc_end14:
	.size	LPUART0_IRQHandler, .Lfunc_end14-LPUART0_IRQHandler
	.cfi_endproc
                                        # -- End function
	.section	.text.LPUART1_IRQHandler,"ax",@progbits
	.weak	LPUART1_IRQHandler              # -- Begin function LPUART1_IRQHandler
	.p2align	2
	.type	LPUART1_IRQHandler,@function
LPUART1_IRQHandler:                     # @LPUART1_IRQHandler
.Lfunc_begin15:
	.loc	3 263 0 is_stmt 1               # C:/Vega/rv32m1_sdk_riscv/devices/RV32M1/system_RV32M1_ri5cy.c:263:0
	.cfi_startproc
# %bb.0:                                # %entry
	addi	sp, sp, -16
	.cfi_def_cfa_offset 16
.Ltmp31:
	.loc	3 263 55 prologue_end           # C:/Vega/rv32m1_sdk_riscv/devices/RV32M1/system_RV32M1_ri5cy.c:263:55
	sw	ra, 12(sp)
	sw	s0, 8(sp)
	.cfi_offset ra, -4
	.cfi_offset s0, -8
	addi	s0, sp, 16
	.cfi_def_cfa s0, 0
	call	LPUART1_DriverIRQHandler
	.loc	3 263 82 is_stmt 0              # C:/Vega/rv32m1_sdk_riscv/devices/RV32M1/system_RV32M1_ri5cy.c:263:82
	lw	s0, 8(sp)
	lw	ra, 12(sp)
	addi	sp, sp, 16
	ret
.Ltmp32:
.Lfunc_end15:
	.size	LPUART1_IRQHandler, .Lfunc_end15-LPUART1_IRQHandler
	.cfi_endproc
                                        # -- End function
	.section	.text.LPUART2_IRQHandler,"ax",@progbits
	.weak	LPUART2_IRQHandler              # -- Begin function LPUART2_IRQHandler
	.p2align	2
	.type	LPUART2_IRQHandler,@function
LPUART2_IRQHandler:                     # @LPUART2_IRQHandler
.Lfunc_begin16:
	.loc	3 264 0 is_stmt 1               # C:/Vega/rv32m1_sdk_riscv/devices/RV32M1/system_RV32M1_ri5cy.c:264:0
	.cfi_startproc
# %bb.0:                                # %entry
	addi	sp, sp, -16
	.cfi_def_cfa_offset 16
.Ltmp33:
	.loc	3 264 55 prologue_end           # C:/Vega/rv32m1_sdk_riscv/devices/RV32M1/system_RV32M1_ri5cy.c:264:55
	sw	ra, 12(sp)
	sw	s0, 8(sp)
	.cfi_offset ra, -4
	.cfi_offset s0, -8
	addi	s0, sp, 16
	.cfi_def_cfa s0, 0
	call	LPUART2_DriverIRQHandler
	.loc	3 264 82 is_stmt 0              # C:/Vega/rv32m1_sdk_riscv/devices/RV32M1/system_RV32M1_ri5cy.c:264:82
	lw	s0, 8(sp)
	lw	ra, 12(sp)
	addi	sp, sp, 16
	ret
.Ltmp34:
.Lfunc_end16:
	.size	LPUART2_IRQHandler, .Lfunc_end16-LPUART2_IRQHandler
	.cfi_endproc
                                        # -- End function
	.section	.text.LPI2C3_IRQHandler,"ax",@progbits
	.weak	LPI2C3_IRQHandler               # -- Begin function LPI2C3_IRQHandler
	.p2align	2
	.type	LPI2C3_IRQHandler,@function
LPI2C3_IRQHandler:                      # @LPI2C3_IRQHandler
.Lfunc_begin17:
	.loc	3 265 0 is_stmt 1               # C:/Vega/rv32m1_sdk_riscv/devices/RV32M1/system_RV32M1_ri5cy.c:265:0
	.cfi_startproc
# %bb.0:                                # %entry
	addi	sp, sp, -16
	.cfi_def_cfa_offset 16
.Ltmp35:
	.loc	3 265 54 prologue_end           # C:/Vega/rv32m1_sdk_riscv/devices/RV32M1/system_RV32M1_ri5cy.c:265:54
	sw	ra, 12(sp)
	sw	s0, 8(sp)
	.cfi_offset ra, -4
	.cfi_offset s0, -8
	addi	s0, sp, 16
	.cfi_def_cfa s0, 0
	call	LPI2C3_DriverIRQHandler
	.loc	3 265 80 is_stmt 0              # C:/Vega/rv32m1_sdk_riscv/devices/RV32M1/system_RV32M1_ri5cy.c:265:80
	lw	s0, 8(sp)
	lw	ra, 12(sp)
	addi	sp, sp, 16
	ret
.Ltmp36:
.Lfunc_end17:
	.size	LPI2C3_IRQHandler, .Lfunc_end17-LPI2C3_IRQHandler
	.cfi_endproc
                                        # -- End function
	.section	.text.LPSPI3_IRQHandler,"ax",@progbits
	.weak	LPSPI3_IRQHandler               # -- Begin function LPSPI3_IRQHandler
	.p2align	2
	.type	LPSPI3_IRQHandler,@function
LPSPI3_IRQHandler:                      # @LPSPI3_IRQHandler
.Lfunc_begin18:
	.loc	3 266 0 is_stmt 1               # C:/Vega/rv32m1_sdk_riscv/devices/RV32M1/system_RV32M1_ri5cy.c:266:0
	.cfi_startproc
# %bb.0:                                # %entry
	addi	sp, sp, -16
	.cfi_def_cfa_offset 16
.Ltmp37:
	.loc	3 266 54 prologue_end           # C:/Vega/rv32m1_sdk_riscv/devices/RV32M1/system_RV32M1_ri5cy.c:266:54
	sw	ra, 12(sp)
	sw	s0, 8(sp)
	.cfi_offset ra, -4
	.cfi_offset s0, -8
	addi	s0, sp, 16
	.cfi_def_cfa s0, 0
	call	LPSPI3_DriverIRQHandler
	.loc	3 266 80 is_stmt 0              # C:/Vega/rv32m1_sdk_riscv/devices/RV32M1/system_RV32M1_ri5cy.c:266:80
	lw	s0, 8(sp)
	lw	ra, 12(sp)
	addi	sp, sp, 16
	ret
.Ltmp38:
.Lfunc_end18:
	.size	LPSPI3_IRQHandler, .Lfunc_end18-LPSPI3_IRQHandler
	.cfi_endproc
                                        # -- End function
	.section	.text.LPUART3_IRQHandler,"ax",@progbits
	.weak	LPUART3_IRQHandler              # -- Begin function LPUART3_IRQHandler
	.p2align	2
	.type	LPUART3_IRQHandler,@function
LPUART3_IRQHandler:                     # @LPUART3_IRQHandler
.Lfunc_begin19:
	.loc	3 267 0 is_stmt 1               # C:/Vega/rv32m1_sdk_riscv/devices/RV32M1/system_RV32M1_ri5cy.c:267:0
	.cfi_startproc
# %bb.0:                                # %entry
	addi	sp, sp, -16
	.cfi_def_cfa_offset 16
.Ltmp39:
	.loc	3 267 55 prologue_end           # C:/Vega/rv32m1_sdk_riscv/devices/RV32M1/system_RV32M1_ri5cy.c:267:55
	sw	ra, 12(sp)
	sw	s0, 8(sp)
	.cfi_offset ra, -4
	.cfi_offset s0, -8
	addi	s0, sp, 16
	.cfi_def_cfa s0, 0
	call	LPUART3_DriverIRQHandler
	.loc	3 267 82 is_stmt 0              # C:/Vega/rv32m1_sdk_riscv/devices/RV32M1/system_RV32M1_ri5cy.c:267:82
	lw	s0, 8(sp)
	lw	ra, 12(sp)
	addi	sp, sp, 16
	ret
.Ltmp40:
.Lfunc_end19:
	.size	LPUART3_IRQHandler, .Lfunc_end19-LPUART3_IRQHandler
	.cfi_endproc
                                        # -- End function
	.section	.text.INTMUX0_0_IRQHandler,"ax",@progbits
	.weak	INTMUX0_0_IRQHandler            # -- Begin function INTMUX0_0_IRQHandler
	.p2align	2
	.type	INTMUX0_0_IRQHandler,@function
INTMUX0_0_IRQHandler:                   # @INTMUX0_0_IRQHandler
.Lfunc_begin20:
	.loc	3 268 0 is_stmt 1               # C:/Vega/rv32m1_sdk_riscv/devices/RV32M1/system_RV32M1_ri5cy.c:268:0
	.cfi_startproc
# %bb.0:                                # %entry
	addi	sp, sp, -16
	.cfi_def_cfa_offset 16
.Ltmp41:
	.loc	3 268 57 prologue_end           # C:/Vega/rv32m1_sdk_riscv/devices/RV32M1/system_RV32M1_ri5cy.c:268:57
	sw	ra, 12(sp)
	sw	s0, 8(sp)
	.cfi_offset ra, -4
	.cfi_offset s0, -8
	addi	s0, sp, 16
	.cfi_def_cfa s0, 0
	call	INTMUX0_0_DriverIRQHandler
	.loc	3 268 86 is_stmt 0              # C:/Vega/rv32m1_sdk_riscv/devices/RV32M1/system_RV32M1_ri5cy.c:268:86
	lw	s0, 8(sp)
	lw	ra, 12(sp)
	addi	sp, sp, 16
	ret
.Ltmp42:
.Lfunc_end20:
	.size	INTMUX0_0_IRQHandler, .Lfunc_end20-INTMUX0_0_IRQHandler
	.cfi_endproc
                                        # -- End function
	.section	.text.INTMUX0_1_IRQHandler,"ax",@progbits
	.weak	INTMUX0_1_IRQHandler            # -- Begin function INTMUX0_1_IRQHandler
	.p2align	2
	.type	INTMUX0_1_IRQHandler,@function
INTMUX0_1_IRQHandler:                   # @INTMUX0_1_IRQHandler
.Lfunc_begin21:
	.loc	3 269 0 is_stmt 1               # C:/Vega/rv32m1_sdk_riscv/devices/RV32M1/system_RV32M1_ri5cy.c:269:0
	.cfi_startproc
# %bb.0:                                # %entry
	addi	sp, sp, -16
	.cfi_def_cfa_offset 16
.Ltmp43:
	.loc	3 269 57 prologue_end           # C:/Vega/rv32m1_sdk_riscv/devices/RV32M1/system_RV32M1_ri5cy.c:269:57
	sw	ra, 12(sp)
	sw	s0, 8(sp)
	.cfi_offset ra, -4
	.cfi_offset s0, -8
	addi	s0, sp, 16
	.cfi_def_cfa s0, 0
	call	INTMUX0_1_DriverIRQHandler
	.loc	3 269 86 is_stmt 0              # C:/Vega/rv32m1_sdk_riscv/devices/RV32M1/system_RV32M1_ri5cy.c:269:86
	lw	s0, 8(sp)
	lw	ra, 12(sp)
	addi	sp, sp, 16
	ret
.Ltmp44:
.Lfunc_end21:
	.size	INTMUX0_1_IRQHandler, .Lfunc_end21-INTMUX0_1_IRQHandler
	.cfi_endproc
                                        # -- End function
	.section	.text.INTMUX0_2_IRQHandler,"ax",@progbits
	.weak	INTMUX0_2_IRQHandler            # -- Begin function INTMUX0_2_IRQHandler
	.p2align	2
	.type	INTMUX0_2_IRQHandler,@function
INTMUX0_2_IRQHandler:                   # @INTMUX0_2_IRQHandler
.Lfunc_begin22:
	.loc	3 270 0 is_stmt 1               # C:/Vega/rv32m1_sdk_riscv/devices/RV32M1/system_RV32M1_ri5cy.c:270:0
	.cfi_startproc
# %bb.0:                                # %entry
	addi	sp, sp, -16
	.cfi_def_cfa_offset 16
.Ltmp45:
	.loc	3 270 57 prologue_end           # C:/Vega/rv32m1_sdk_riscv/devices/RV32M1/system_RV32M1_ri5cy.c:270:57
	sw	ra, 12(sp)
	sw	s0, 8(sp)
	.cfi_offset ra, -4
	.cfi_offset s0, -8
	addi	s0, sp, 16
	.cfi_def_cfa s0, 0
	call	INTMUX0_2_DriverIRQHandler
	.loc	3 270 86 is_stmt 0              # C:/Vega/rv32m1_sdk_riscv/devices/RV32M1/system_RV32M1_ri5cy.c:270:86
	lw	s0, 8(sp)
	lw	ra, 12(sp)
	addi	sp, sp, 16
	ret
.Ltmp46:
.Lfunc_end22:
	.size	INTMUX0_2_IRQHandler, .Lfunc_end22-INTMUX0_2_IRQHandler
	.cfi_endproc
                                        # -- End function
	.section	.text.INTMUX0_3_IRQHandler,"ax",@progbits
	.weak	INTMUX0_3_IRQHandler            # -- Begin function INTMUX0_3_IRQHandler
	.p2align	2
	.type	INTMUX0_3_IRQHandler,@function
INTMUX0_3_IRQHandler:                   # @INTMUX0_3_IRQHandler
.Lfunc_begin23:
	.loc	3 271 0 is_stmt 1               # C:/Vega/rv32m1_sdk_riscv/devices/RV32M1/system_RV32M1_ri5cy.c:271:0
	.cfi_startproc
# %bb.0:                                # %entry
	addi	sp, sp, -16
	.cfi_def_cfa_offset 16
.Ltmp47:
	.loc	3 271 57 prologue_end           # C:/Vega/rv32m1_sdk_riscv/devices/RV32M1/system_RV32M1_ri5cy.c:271:57
	sw	ra, 12(sp)
	sw	s0, 8(sp)
	.cfi_offset ra, -4
	.cfi_offset s0, -8
	addi	s0, sp, 16
	.cfi_def_cfa s0, 0
	call	INTMUX0_3_DriverIRQHandler
	.loc	3 271 86 is_stmt 0              # C:/Vega/rv32m1_sdk_riscv/devices/RV32M1/system_RV32M1_ri5cy.c:271:86
	lw	s0, 8(sp)
	lw	ra, 12(sp)
	addi	sp, sp, 16
	ret
.Ltmp48:
.Lfunc_end23:
	.size	INTMUX0_3_IRQHandler, .Lfunc_end23-INTMUX0_3_IRQHandler
	.cfi_endproc
                                        # -- End function
	.section	.text.INTMUX0_4_IRQHandler,"ax",@progbits
	.weak	INTMUX0_4_IRQHandler            # -- Begin function INTMUX0_4_IRQHandler
	.p2align	2
	.type	INTMUX0_4_IRQHandler,@function
INTMUX0_4_IRQHandler:                   # @INTMUX0_4_IRQHandler
.Lfunc_begin24:
	.loc	3 272 0 is_stmt 1               # C:/Vega/rv32m1_sdk_riscv/devices/RV32M1/system_RV32M1_ri5cy.c:272:0
	.cfi_startproc
# %bb.0:                                # %entry
	addi	sp, sp, -16
	.cfi_def_cfa_offset 16
.Ltmp49:
	.loc	3 272 57 prologue_end           # C:/Vega/rv32m1_sdk_riscv/devices/RV32M1/system_RV32M1_ri5cy.c:272:57
	sw	ra, 12(sp)
	sw	s0, 8(sp)
	.cfi_offset ra, -4
	.cfi_offset s0, -8
	addi	s0, sp, 16
	.cfi_def_cfa s0, 0
	call	INTMUX0_4_DriverIRQHandler
	.loc	3 272 86 is_stmt 0              # C:/Vega/rv32m1_sdk_riscv/devices/RV32M1/system_RV32M1_ri5cy.c:272:86
	lw	s0, 8(sp)
	lw	ra, 12(sp)
	addi	sp, sp, 16
	ret
.Ltmp50:
.Lfunc_end24:
	.size	INTMUX0_4_IRQHandler, .Lfunc_end24-INTMUX0_4_IRQHandler
	.cfi_endproc
                                        # -- End function
	.section	.text.INTMUX0_5_IRQHandler,"ax",@progbits
	.weak	INTMUX0_5_IRQHandler            # -- Begin function INTMUX0_5_IRQHandler
	.p2align	2
	.type	INTMUX0_5_IRQHandler,@function
INTMUX0_5_IRQHandler:                   # @INTMUX0_5_IRQHandler
.Lfunc_begin25:
	.loc	3 273 0 is_stmt 1               # C:/Vega/rv32m1_sdk_riscv/devices/RV32M1/system_RV32M1_ri5cy.c:273:0
	.cfi_startproc
# %bb.0:                                # %entry
	addi	sp, sp, -16
	.cfi_def_cfa_offset 16
.Ltmp51:
	.loc	3 273 57 prologue_end           # C:/Vega/rv32m1_sdk_riscv/devices/RV32M1/system_RV32M1_ri5cy.c:273:57
	sw	ra, 12(sp)
	sw	s0, 8(sp)
	.cfi_offset ra, -4
	.cfi_offset s0, -8
	addi	s0, sp, 16
	.cfi_def_cfa s0, 0
	call	INTMUX0_5_DriverIRQHandler
	.loc	3 273 86 is_stmt 0              # C:/Vega/rv32m1_sdk_riscv/devices/RV32M1/system_RV32M1_ri5cy.c:273:86
	lw	s0, 8(sp)
	lw	ra, 12(sp)
	addi	sp, sp, 16
	ret
.Ltmp52:
.Lfunc_end25:
	.size	INTMUX0_5_IRQHandler, .Lfunc_end25-INTMUX0_5_IRQHandler
	.cfi_endproc
                                        # -- End function
	.section	.text.INTMUX0_6_IRQHandler,"ax",@progbits
	.weak	INTMUX0_6_IRQHandler            # -- Begin function INTMUX0_6_IRQHandler
	.p2align	2
	.type	INTMUX0_6_IRQHandler,@function
INTMUX0_6_IRQHandler:                   # @INTMUX0_6_IRQHandler
.Lfunc_begin26:
	.loc	3 274 0 is_stmt 1               # C:/Vega/rv32m1_sdk_riscv/devices/RV32M1/system_RV32M1_ri5cy.c:274:0
	.cfi_startproc
# %bb.0:                                # %entry
	addi	sp, sp, -16
	.cfi_def_cfa_offset 16
.Ltmp53:
	.loc	3 274 57 prologue_end           # C:/Vega/rv32m1_sdk_riscv/devices/RV32M1/system_RV32M1_ri5cy.c:274:57
	sw	ra, 12(sp)
	sw	s0, 8(sp)
	.cfi_offset ra, -4
	.cfi_offset s0, -8
	addi	s0, sp, 16
	.cfi_def_cfa s0, 0
	call	INTMUX0_6_DriverIRQHandler
	.loc	3 274 86 is_stmt 0              # C:/Vega/rv32m1_sdk_riscv/devices/RV32M1/system_RV32M1_ri5cy.c:274:86
	lw	s0, 8(sp)
	lw	ra, 12(sp)
	addi	sp, sp, 16
	ret
.Ltmp54:
.Lfunc_end26:
	.size	INTMUX0_6_IRQHandler, .Lfunc_end26-INTMUX0_6_IRQHandler
	.cfi_endproc
                                        # -- End function
	.section	.text.INTMUX0_7_IRQHandler,"ax",@progbits
	.weak	INTMUX0_7_IRQHandler            # -- Begin function INTMUX0_7_IRQHandler
	.p2align	2
	.type	INTMUX0_7_IRQHandler,@function
INTMUX0_7_IRQHandler:                   # @INTMUX0_7_IRQHandler
.Lfunc_begin27:
	.loc	3 275 0 is_stmt 1               # C:/Vega/rv32m1_sdk_riscv/devices/RV32M1/system_RV32M1_ri5cy.c:275:0
	.cfi_startproc
# %bb.0:                                # %entry
	addi	sp, sp, -16
	.cfi_def_cfa_offset 16
.Ltmp55:
	.loc	3 275 57 prologue_end           # C:/Vega/rv32m1_sdk_riscv/devices/RV32M1/system_RV32M1_ri5cy.c:275:57
	sw	ra, 12(sp)
	sw	s0, 8(sp)
	.cfi_offset ra, -4
	.cfi_offset s0, -8
	addi	s0, sp, 16
	.cfi_def_cfa s0, 0
	call	INTMUX0_7_DriverIRQHandler
	.loc	3 275 86 is_stmt 0              # C:/Vega/rv32m1_sdk_riscv/devices/RV32M1/system_RV32M1_ri5cy.c:275:86
	lw	s0, 8(sp)
	lw	ra, 12(sp)
	addi	sp, sp, 16
	ret
.Ltmp56:
.Lfunc_end27:
	.size	INTMUX0_7_IRQHandler, .Lfunc_end27-INTMUX0_7_IRQHandler
	.cfi_endproc
                                        # -- End function
	.section	.text.SystemInit,"ax",@progbits
	.globl	SystemInit                      # -- Begin function SystemInit
	.p2align	2
	.type	SystemInit,@function
SystemInit:                             # @SystemInit
.Lfunc_begin28:
	.loc	3 359 0 is_stmt 1               # C:/Vega/rv32m1_sdk_riscv/devices/RV32M1/system_RV32M1_ri5cy.c:359:0
	.cfi_startproc
# %bb.0:                                # %entry
	addi	sp, sp, -16
	.cfi_def_cfa_offset 16
	sw	ra, 12(sp)
	sw	s0, 8(sp)
	.cfi_offset ra, -4
	.cfi_offset s0, -8
	addi	s0, sp, 16
	.cfi_def_cfa s0, 0
	lui	a0, 889484
	addi	a0, a0, 1312
	lui	a1, 262186
.Ltmp57:
	.loc	3 361 37 prologue_end           # C:/Vega/rv32m1_sdk_riscv/devices/RV32M1/system_RV32M1_ri5cy.c:361:37
	sw	a0, 4(a1)
	lui	a0, 16
	addi	a0, a0, -1
	.loc	3 362 39                        # C:/Vega/rv32m1_sdk_riscv/devices/RV32M1/system_RV32M1_ri5cy.c:362:39
	sw	a0, 8(a1)
	.loc	3 363 81                        # C:/Vega/rv32m1_sdk_riscv/devices/RV32M1/system_RV32M1_ri5cy.c:363:81
	lw	a0, 0(a1)
	.loc	3 363 85 is_stmt 0              # C:/Vega/rv32m1_sdk_riscv/devices/RV32M1/system_RV32M1_ri5cy.c:363:85
	ori	a0, a0, 32
	.loc	3 363 97                        # C:/Vega/rv32m1_sdk_riscv/devices/RV32M1/system_RV32M1_ri5cy.c:363:97
	andi	a0, a0, -129
	.loc	3 363 36                        # C:/Vega/rv32m1_sdk_riscv/devices/RV32M1/system_RV32M1_ri5cy.c:363:36
	sw	a0, 0(a1)
	.loc	3 366 3 is_stmt 1               # C:/Vega/rv32m1_sdk_riscv/devices/RV32M1/system_RV32M1_ri5cy.c:366:3
	call	SystemInitHook
	.loc	3 368 3                         # C:/Vega/rv32m1_sdk_riscv/devices/RV32M1/system_RV32M1_ri5cy.c:368:3
	lui	a0, %hi(__etext)
	addi	a0, a0, %lo(__etext)
	lui	a1, %hi(__data_start__)
	addi	a1, a1, %lo(__data_start__)
	lui	a2, %hi(__data_end__)
	addi	a2, a2, %lo(__data_end__)
	call	copy_section
	.loc	3 369 3                         # C:/Vega/rv32m1_sdk_riscv/devices/RV32M1/system_RV32M1_ri5cy.c:369:3
	lui	a0, %hi(__bss_start__)
	addi	a0, a0, %lo(__bss_start__)
	lui	a1, %hi(__bss_end__)
	addi	a1, a1, %lo(__bss_end__)
	call	zero_section
	.loc	3 372 14                        # C:/Vega/rv32m1_sdk_riscv/devices/RV32M1/system_RV32M1_ri5cy.c:372:14
	lui	a0, %hi(irqNesting)
	mv	a1, zero
	sw	a1, %lo(irqNesting)(a0)
	.loc	3 374 3                         # C:/Vega/rv32m1_sdk_riscv/devices/RV32M1/system_RV32M1_ri5cy.c:374:3
	lui	a0, %hi(__VECTOR_TABLE)
	addi	a0, a0, %lo(__VECTOR_TABLE)
	#APP
	csrw	mtvec, a0
	#NO_APP
	.loc	3 375 3                         # C:/Vega/rv32m1_sdk_riscv/devices/RV32M1/system_RV32M1_ri5cy.c:375:3
	#APP
	csrw	utvec, a0
	#NO_APP
	lui	a0, 917569
	addi	a1, zero, -1
	.loc	3 378 49                        # C:/Vega/rv32m1_sdk_riscv/devices/RV32M1/system_RV32M1_ri5cy.c:378:49
	sw	a1, 12(a0)
	.loc	3 379 47                        # C:/Vega/rv32m1_sdk_riscv/devices/RV32M1/system_RV32M1_ri5cy.c:379:47
	sw	a1, 76(a0)
	.loc	3 381 46                        # C:/Vega/rv32m1_sdk_riscv/devices/RV32M1/system_RV32M1_ri5cy.c:381:46
	sw	a1, 16(a0)
	.loc	3 382 1                         # C:/Vega/rv32m1_sdk_riscv/devices/RV32M1/system_RV32M1_ri5cy.c:382:1
	lw	s0, 8(sp)
	lw	ra, 12(sp)
	addi	sp, sp, 16
	ret
.Ltmp58:
.Lfunc_end28:
	.size	SystemInit, .Lfunc_end28-SystemInit
	.cfi_endproc
                                        # -- End function
	.section	.text.SystemInitHook,"ax",@progbits
	.weak	SystemInitHook                  # -- Begin function SystemInitHook
	.p2align	2
	.type	SystemInitHook,@function
SystemInitHook:                         # @SystemInitHook
.Lfunc_begin29:
	.loc	3 421 0                         # C:/Vega/rv32m1_sdk_riscv/devices/RV32M1/system_RV32M1_ri5cy.c:421:0
	.cfi_startproc
# %bb.0:                                # %entry
	addi	sp, sp, -16
	.cfi_def_cfa_offset 16
.Ltmp59:
	.loc	3 423 1 prologue_end            # C:/Vega/rv32m1_sdk_riscv/devices/RV32M1/system_RV32M1_ri5cy.c:423:1
	sw	ra, 12(sp)
	sw	s0, 8(sp)
	.cfi_offset ra, -4
	.cfi_offset s0, -8
	addi	s0, sp, 16
	.cfi_def_cfa s0, 0
	lw	s0, 8(sp)
	lw	ra, 12(sp)
	addi	sp, sp, 16
	ret
.Ltmp60:
.Lfunc_end29:
	.size	SystemInitHook, .Lfunc_end29-SystemInitHook
	.cfi_endproc
                                        # -- End function
	.section	.text.copy_section,"ax",@progbits
	.p2align	2                               # -- Begin function copy_section
	.type	copy_section,@function
copy_section:                           # @copy_section
.Lfunc_begin30:
	.loc	3 159 0                         # C:/Vega/rv32m1_sdk_riscv/devices/RV32M1/system_RV32M1_ri5cy.c:159:0
	.cfi_startproc
# %bb.0:                                # %entry
	addi	sp, sp, -32
	.cfi_def_cfa_offset 32
	sw	ra, 28(sp)
	sw	s0, 24(sp)
	.cfi_offset ra, -4
	.cfi_offset s0, -8
	addi	s0, sp, 32
	.cfi_def_cfa s0, 0
	sw	a0, -12(s0)
	sw	a1, -16(s0)
	sw	a2, -20(s0)
.Ltmp61:
	.loc	3 160 5 prologue_end            # C:/Vega/rv32m1_sdk_riscv/devices/RV32M1/system_RV32M1_ri5cy.c:160:5
	j	.LBB30_1
.LBB30_1:                               # %while.cond
                                        # =>This Inner Loop Header: Depth=1
	.loc	3 160 11 is_stmt 0              # C:/Vega/rv32m1_sdk_riscv/devices/RV32M1/system_RV32M1_ri5cy.c:160:11
	lw	a0, -16(s0)
	.loc	3 160 20                        # C:/Vega/rv32m1_sdk_riscv/devices/RV32M1/system_RV32M1_ri5cy.c:160:20
	lw	a1, -20(s0)
	.loc	3 160 5                         # C:/Vega/rv32m1_sdk_riscv/devices/RV32M1/system_RV32M1_ri5cy.c:160:5
	bltu	a1, a0, .LBB30_3
	j	.LBB30_2
.LBB30_2:                               # %while.body
                                        #   in Loop: Header=BB30_1 Depth=1
.Ltmp62:
	.loc	3 162 19 is_stmt 1              # C:/Vega/rv32m1_sdk_riscv/devices/RV32M1/system_RV32M1_ri5cy.c:162:19
	lw	a0, -12(s0)
	.loc	3 162 18 is_stmt 0              # C:/Vega/rv32m1_sdk_riscv/devices/RV32M1/system_RV32M1_ri5cy.c:162:18
	lw	a0, 0(a0)
	.loc	3 162 10                        # C:/Vega/rv32m1_sdk_riscv/devices/RV32M1/system_RV32M1_ri5cy.c:162:10
	lw	a1, -16(s0)
	.loc	3 162 16                        # C:/Vega/rv32m1_sdk_riscv/devices/RV32M1/system_RV32M1_ri5cy.c:162:16
	sw	a0, 0(a1)
	.loc	3 163 9 is_stmt 1               # C:/Vega/rv32m1_sdk_riscv/devices/RV32M1/system_RV32M1_ri5cy.c:163:9
	lw	a0, -12(s0)
	addi	a0, a0, 4
	sw	a0, -12(s0)
	.loc	3 164 9                         # C:/Vega/rv32m1_sdk_riscv/devices/RV32M1/system_RV32M1_ri5cy.c:164:9
	lw	a0, -16(s0)
	addi	a0, a0, 4
	sw	a0, -16(s0)
.Ltmp63:
	.loc	3 160 5                         # C:/Vega/rv32m1_sdk_riscv/devices/RV32M1/system_RV32M1_ri5cy.c:160:5
	j	.LBB30_1
.LBB30_3:                               # %while.end
	.loc	3 166 1                         # C:/Vega/rv32m1_sdk_riscv/devices/RV32M1/system_RV32M1_ri5cy.c:166:1
	lw	s0, 24(sp)
	lw	ra, 28(sp)
	addi	sp, sp, 32
	ret
.Ltmp64:
.Lfunc_end30:
	.size	copy_section, .Lfunc_end30-copy_section
	.cfi_endproc
                                        # -- End function
	.section	.text.zero_section,"ax",@progbits
	.p2align	2                               # -- Begin function zero_section
	.type	zero_section,@function
zero_section:                           # @zero_section
.Lfunc_begin31:
	.loc	3 169 0                         # C:/Vega/rv32m1_sdk_riscv/devices/RV32M1/system_RV32M1_ri5cy.c:169:0
	.cfi_startproc
# %bb.0:                                # %entry
	addi	sp, sp, -32
	.cfi_def_cfa_offset 32
	sw	ra, 28(sp)
	sw	s0, 24(sp)
	.cfi_offset ra, -4
	.cfi_offset s0, -8
	addi	s0, sp, 32
	.cfi_def_cfa s0, 0
	sw	a0, -12(s0)
	sw	a1, -16(s0)
.Ltmp65:
	.loc	3 170 25 prologue_end           # C:/Vega/rv32m1_sdk_riscv/devices/RV32M1/system_RV32M1_ri5cy.c:170:25
	lw	a0, -12(s0)
	.loc	3 170 16 is_stmt 0              # C:/Vega/rv32m1_sdk_riscv/devices/RV32M1/system_RV32M1_ri5cy.c:170:16
	sw	a0, -20(s0)
	.loc	3 172 5 is_stmt 1               # C:/Vega/rv32m1_sdk_riscv/devices/RV32M1/system_RV32M1_ri5cy.c:172:5
	j	.LBB31_1
.LBB31_1:                               # %while.cond
                                        # =>This Inner Loop Header: Depth=1
	.loc	3 172 11 is_stmt 0              # C:/Vega/rv32m1_sdk_riscv/devices/RV32M1/system_RV32M1_ri5cy.c:172:11
	lw	a0, -20(s0)
	.loc	3 172 21                        # C:/Vega/rv32m1_sdk_riscv/devices/RV32M1/system_RV32M1_ri5cy.c:172:21
	lw	a1, -16(s0)
	.loc	3 172 5                         # C:/Vega/rv32m1_sdk_riscv/devices/RV32M1/system_RV32M1_ri5cy.c:172:5
	bltu	a1, a0, .LBB31_3
	j	.LBB31_2
.LBB31_2:                               # %while.body
                                        #   in Loop: Header=BB31_1 Depth=1
.Ltmp66:
	.loc	3 174 10 is_stmt 1              # C:/Vega/rv32m1_sdk_riscv/devices/RV32M1/system_RV32M1_ri5cy.c:174:10
	lw	a0, -20(s0)
	mv	a1, zero
	.loc	3 174 17 is_stmt 0              # C:/Vega/rv32m1_sdk_riscv/devices/RV32M1/system_RV32M1_ri5cy.c:174:17
	sw	a1, 0(a0)
	.loc	3 175 9 is_stmt 1               # C:/Vega/rv32m1_sdk_riscv/devices/RV32M1/system_RV32M1_ri5cy.c:175:9
	lw	a0, -20(s0)
	addi	a0, a0, 4
	sw	a0, -20(s0)
.Ltmp67:
	.loc	3 172 5                         # C:/Vega/rv32m1_sdk_riscv/devices/RV32M1/system_RV32M1_ri5cy.c:172:5
	j	.LBB31_1
.LBB31_3:                               # %while.end
	.loc	3 177 1                         # C:/Vega/rv32m1_sdk_riscv/devices/RV32M1/system_RV32M1_ri5cy.c:177:1
	lw	s0, 24(sp)
	lw	ra, 28(sp)
	addi	sp, sp, 32
	ret
.Ltmp68:
.Lfunc_end31:
	.size	zero_section, .Lfunc_end31-zero_section
	.cfi_endproc
                                        # -- End function
	.section	.text.SystemCoreClockUpdate,"ax",@progbits
	.globl	SystemCoreClockUpdate           # -- Begin function SystemCoreClockUpdate
	.p2align	2
	.type	SystemCoreClockUpdate,@function
SystemCoreClockUpdate:                  # @SystemCoreClockUpdate
.Lfunc_begin32:
	.loc	3 388 0                         # C:/Vega/rv32m1_sdk_riscv/devices/RV32M1/system_RV32M1_ri5cy.c:388:0
	.cfi_startproc
# %bb.0:                                # %entry
	addi	sp, sp, -32
	.cfi_def_cfa_offset 32
	sw	ra, 28(sp)
	sw	s0, 24(sp)
	.cfi_offset ra, -4
	.cfi_offset s0, -8
	addi	s0, sp, 32
	.cfi_def_cfa s0, 0
	lui	a0, 262188
.Ltmp69:
	.loc	3 392 44 prologue_end           # C:/Vega/rv32m1_sdk_riscv/devices/RV32M1/system_RV32M1_ri5cy.c:392:44
	lw	a1, 16(a0)
	lui	a2, 240
	.loc	3 392 48 is_stmt 0              # C:/Vega/rv32m1_sdk_riscv/devices/RV32M1/system_RV32M1_ri5cy.c:392:48
	and	a1, a1, a2
	.loc	3 392 62                        # C:/Vega/rv32m1_sdk_riscv/devices/RV32M1/system_RV32M1_ri5cy.c:392:62
	srli	a1, a1, 16
	.loc	3 392 72                        # C:/Vega/rv32m1_sdk_riscv/devices/RV32M1/system_RV32M1_ri5cy.c:392:72
	addi	a1, a1, 1
	.loc	3 392 11                        # C:/Vega/rv32m1_sdk_riscv/devices/RV32M1/system_RV32M1_ri5cy.c:392:11
	sh	a1, -14(s0)
	.loc	3 394 41 is_stmt 1              # C:/Vega/rv32m1_sdk_riscv/devices/RV32M1/system_RV32M1_ri5cy.c:394:41
	lw	a0, 16(a0)
	lui	a1, 61440
	.loc	3 394 45 is_stmt 0              # C:/Vega/rv32m1_sdk_riscv/devices/RV32M1/system_RV32M1_ri5cy.c:394:45
	and	a0, a0, a1
	.loc	3 394 61                        # C:/Vega/rv32m1_sdk_riscv/devices/RV32M1/system_RV32M1_ri5cy.c:394:61
	srli	a0, a0, 24
	addi	a1, zero, 1
	.loc	3 394 3                         # C:/Vega/rv32m1_sdk_riscv/devices/RV32M1/system_RV32M1_ri5cy.c:394:3
	sw	a0, -20(s0)
	beq	a0, a1, .LBB32_4
	j	.LBB32_1
.LBB32_1:                               # %entry
	.loc	3 0 3                           # C:/Vega/rv32m1_sdk_riscv/devices/RV32M1/system_RV32M1_ri5cy.c:0:3
	addi	a0, zero, 2
	.loc	3 394 3                         # C:/Vega/rv32m1_sdk_riscv/devices/RV32M1/system_RV32M1_ri5cy.c:394:3
	lw	a1, -20(s0)
	beq	a1, a0, .LBB32_5
	j	.LBB32_2
.LBB32_2:                               # %entry
	.loc	3 0 3                           # C:/Vega/rv32m1_sdk_riscv/devices/RV32M1/system_RV32M1_ri5cy.c:0:3
	addi	a0, zero, 3
	.loc	3 394 3                         # C:/Vega/rv32m1_sdk_riscv/devices/RV32M1/system_RV32M1_ri5cy.c:394:3
	lw	a1, -20(s0)
	beq	a1, a0, .LBB32_8
	j	.LBB32_3
.LBB32_3:                               # %entry
	.loc	3 0 3                           # C:/Vega/rv32m1_sdk_riscv/devices/RV32M1/system_RV32M1_ri5cy.c:0:3
	addi	a0, zero, 5
	.loc	3 394 3                         # C:/Vega/rv32m1_sdk_riscv/devices/RV32M1/system_RV32M1_ri5cy.c:394:3
	lw	a1, -20(s0)
	beq	a1, a0, .LBB32_9
	j	.LBB32_10
.LBB32_4:                               # %sw.bb
	.loc	3 0 3                           # C:/Vega/rv32m1_sdk_riscv/devices/RV32M1/system_RV32M1_ri5cy.c:0:3
	lui	a0, 1953
	addi	a0, a0, 512
.Ltmp70:
	.loc	3 397 19 is_stmt 1              # C:/Vega/rv32m1_sdk_riscv/devices/RV32M1/system_RV32M1_ri5cy.c:397:19
	sw	a0, -12(s0)
	.loc	3 398 7                         # C:/Vega/rv32m1_sdk_riscv/devices/RV32M1/system_RV32M1_ri5cy.c:398:7
	j	.LBB32_11
.LBB32_5:                               # %sw.bb3
	.loc	3 0 7 is_stmt 0                 # C:/Vega/rv32m1_sdk_riscv/devices/RV32M1/system_RV32M1_ri5cy.c:0:7
	lui	a0, 262188
	.loc	3 401 53 is_stmt 1              # C:/Vega/rv32m1_sdk_riscv/devices/RV32M1/system_RV32M1_ri5cy.c:401:53
	lw	a0, 520(a0)
	.loc	3 401 61 is_stmt 0              # C:/Vega/rv32m1_sdk_riscv/devices/RV32M1/system_RV32M1_ri5cy.c:401:61
	andi	a0, a0, 1
	lui	a1, 488
	addi	a1, a1, 1152
	lui	a2, 1953
	addi	a2, a2, 512
	mv	a3, zero
	.loc	3 401 22                        # C:/Vega/rv32m1_sdk_riscv/devices/RV32M1/system_RV32M1_ri5cy.c:401:22
	sw	a1, -24(s0)
	sw	a2, -28(s0)
	bne	a0, a3, .LBB32_7
# %bb.6:                                # %sw.bb3
	lw	a0, -24(s0)
	sw	a0, -28(s0)
.LBB32_7:                               # %sw.bb3
	lw	a0, -28(s0)
	.loc	3 401 19                        # C:/Vega/rv32m1_sdk_riscv/devices/RV32M1/system_RV32M1_ri5cy.c:401:19
	sw	a0, -12(s0)
	.loc	3 402 7 is_stmt 1               # C:/Vega/rv32m1_sdk_riscv/devices/RV32M1/system_RV32M1_ri5cy.c:402:7
	j	.LBB32_11
.LBB32_8:                               # %sw.bb6
	.loc	3 0 7 is_stmt 0                 # C:/Vega/rv32m1_sdk_riscv/devices/RV32M1/system_RV32M1_ri5cy.c:0:7
	lui	a0, 262188
	.loc	3 405 63 is_stmt 1              # C:/Vega/rv32m1_sdk_riscv/devices/RV32M1/system_RV32M1_ri5cy.c:405:63
	lw	a0, 776(a0)
	.loc	3 405 71 is_stmt 0              # C:/Vega/rv32m1_sdk_riscv/devices/RV32M1/system_RV32M1_ri5cy.c:405:71
	andi	a0, a0, 3
	lui	a1, 977
	addi	a1, a1, -1792
	.loc	3 405 90                        # C:/Vega/rv32m1_sdk_riscv/devices/RV32M1/system_RV32M1_ri5cy.c:405:90
	call	__mulsi3
	lui	a1, 11719
	addi	a1, a1, -1024
	.loc	3 405 30                        # C:/Vega/rv32m1_sdk_riscv/devices/RV32M1/system_RV32M1_ri5cy.c:405:30
	add	a0, a0, a1
	.loc	3 405 19                        # C:/Vega/rv32m1_sdk_riscv/devices/RV32M1/system_RV32M1_ri5cy.c:405:19
	sw	a0, -12(s0)
	.loc	3 406 7 is_stmt 1               # C:/Vega/rv32m1_sdk_riscv/devices/RV32M1/system_RV32M1_ri5cy.c:406:7
	j	.LBB32_11
.LBB32_9:                               # %sw.bb10
	.loc	3 0 7 is_stmt 0                 # C:/Vega/rv32m1_sdk_riscv/devices/RV32M1/system_RV32M1_ri5cy.c:0:7
	lui	a0, 262188
	.loc	3 409 63 is_stmt 1              # C:/Vega/rv32m1_sdk_riscv/devices/RV32M1/system_RV32M1_ri5cy.c:409:63
	lw	a0, 1288(a0)
	.loc	3 409 72 is_stmt 0              # C:/Vega/rv32m1_sdk_riscv/devices/RV32M1/system_RV32M1_ri5cy.c:409:72
	andi	a0, a0, 3
	lui	a1, 5859
	addi	a1, a1, 1536
	.loc	3 409 91                        # C:/Vega/rv32m1_sdk_riscv/devices/RV32M1/system_RV32M1_ri5cy.c:409:91
	call	__mulsi3
	lui	a1, 11719
	addi	a1, a1, -1024
	.loc	3 409 30                        # C:/Vega/rv32m1_sdk_riscv/devices/RV32M1/system_RV32M1_ri5cy.c:409:30
	add	a0, a0, a1
	.loc	3 409 19                        # C:/Vega/rv32m1_sdk_riscv/devices/RV32M1/system_RV32M1_ri5cy.c:409:19
	sw	a0, -12(s0)
	.loc	3 410 7 is_stmt 1               # C:/Vega/rv32m1_sdk_riscv/devices/RV32M1/system_RV32M1_ri5cy.c:410:7
	j	.LBB32_11
.LBB32_10:                              # %sw.default
	.loc	3 412 7                         # C:/Vega/rv32m1_sdk_riscv/devices/RV32M1/system_RV32M1_ri5cy.c:412:7
	j	.LBB32_12
.Ltmp71:
.LBB32_11:                              # %sw.epilog
	.loc	3 414 22                        # C:/Vega/rv32m1_sdk_riscv/devices/RV32M1/system_RV32M1_ri5cy.c:414:22
	lw	a0, -12(s0)
	.loc	3 414 36 is_stmt 0              # C:/Vega/rv32m1_sdk_riscv/devices/RV32M1/system_RV32M1_ri5cy.c:414:36
	lhu	a1, -14(s0)
	.loc	3 414 34                        # C:/Vega/rv32m1_sdk_riscv/devices/RV32M1/system_RV32M1_ri5cy.c:414:34
	call	__udivsi3
	.loc	3 414 19                        # C:/Vega/rv32m1_sdk_riscv/devices/RV32M1/system_RV32M1_ri5cy.c:414:19
	lui	a1, %hi(SystemCoreClock)
	sw	a0, %lo(SystemCoreClock)(a1)
	.loc	3 415 1 is_stmt 1               # C:/Vega/rv32m1_sdk_riscv/devices/RV32M1/system_RV32M1_ri5cy.c:415:1
	j	.LBB32_12
.LBB32_12:                              # %return
	lw	s0, 24(sp)
	lw	ra, 28(sp)
	addi	sp, sp, 32
	ret
.Ltmp72:
.Lfunc_end32:
	.size	SystemCoreClockUpdate, .Lfunc_end32-SystemCoreClockUpdate
	.cfi_endproc
                                        # -- End function
	.section	.text.SystemIrqHandler,"ax",@progbits
	.weak	SystemIrqHandler                # -- Begin function SystemIrqHandler
	.p2align	2
	.type	SystemIrqHandler,@function
SystemIrqHandler:                       # @SystemIrqHandler
.Lfunc_begin33:
	.loc	3 429 0                         # C:/Vega/rv32m1_sdk_riscv/devices/RV32M1/system_RV32M1_ri5cy.c:429:0
	.cfi_startproc
# %bb.0:                                # %entry
	addi	sp, sp, -32
	.cfi_def_cfa_offset 32
	sw	ra, 28(sp)
	sw	s0, 24(sp)
	.cfi_offset ra, -4
	.cfi_offset s0, -8
	addi	s0, sp, 32
	.cfi_def_cfa s0, 0
	sw	a0, -12(s0)
.Ltmp73:
	.loc	3 435 16 prologue_end           # C:/Vega/rv32m1_sdk_riscv/devices/RV32M1/system_RV32M1_ri5cy.c:435:16
	lbu	a0, -9(s0)
	andi	a0, a0, 128
	mv	a1, zero
.Ltmp74:
	.loc	3 435 9 is_stmt 0               # C:/Vega/rv32m1_sdk_riscv/devices/RV32M1/system_RV32M1_ri5cy.c:435:9
	beq	a0, a1, .LBB33_2
	j	.LBB33_1
.LBB33_1:                               # %if.then
.Ltmp75:
	.loc	3 437 18 is_stmt 1              # C:/Vega/rv32m1_sdk_riscv/devices/RV32M1/system_RV32M1_ri5cy.c:437:18
	lw	a0, -12(s0)
	.loc	3 437 25 is_stmt 0              # C:/Vega/rv32m1_sdk_riscv/devices/RV32M1/system_RV32M1_ri5cy.c:437:25
	andi	a0, a0, 31
	.loc	3 437 16                        # C:/Vega/rv32m1_sdk_riscv/devices/RV32M1/system_RV32M1_ri5cy.c:437:16
	sw	a0, -16(s0)
	.loc	3 439 19 is_stmt 1              # C:/Vega/rv32m1_sdk_riscv/devices/RV32M1/system_RV32M1_ri5cy.c:439:19
	lui	a0, %hi(irqNesting)
	lw	a1, %lo(irqNesting)(a0)
	addi	a1, a1, 1
	sw	a1, %lo(irqNesting)(a0)
	.loc	3 442 64                        # C:/Vega/rv32m1_sdk_riscv/devices/RV32M1/system_RV32M1_ri5cy.c:442:64
	lw	a1, -16(s0)
	addi	a2, zero, 1
	.loc	3 442 61 is_stmt 0              # C:/Vega/rv32m1_sdk_riscv/devices/RV32M1/system_RV32M1_ri5cy.c:442:61
	sll	a1, a2, a1
	lui	a2, 917569
	.loc	3 442 55                        # C:/Vega/rv32m1_sdk_riscv/devices/RV32M1/system_RV32M1_ri5cy.c:442:55
	sw	a1, 12(a2)
	.loc	3 445 47 is_stmt 1              # C:/Vega/rv32m1_sdk_riscv/devices/RV32M1/system_RV32M1_ri5cy.c:445:47
	lw	a1, 12(a2)
.Ltmp76:
	.file	7 "C:/Vega/rv32m1_sdk_riscv/boards/rv32m1_vega/rtos_examples/freertos_hello/ri5cy/riscvgcc/../../../../../../RISCV" "core_riscv32.h"
	.loc	7 84 3                          # C:/Vega/rv32m1_sdk_riscv/boards/rv32m1_vega/rtos_examples/freertos_hello/ri5cy/riscvgcc/../../../../../../RISCV\core_riscv32.h:84:3
	#APP
	csrsi	mstatus, 8
	#NO_APP
.Ltmp77:
	.loc	3 450 18                        # C:/Vega/rv32m1_sdk_riscv/devices/RV32M1/system_RV32M1_ri5cy.c:450:18
	lw	a2, -16(s0)
	.loc	3 450 9 is_stmt 0               # C:/Vega/rv32m1_sdk_riscv/devices/RV32M1/system_RV32M1_ri5cy.c:450:9
	lui	a3, %hi(isrTable)
	addi	a3, a3, %lo(isrTable)
	slli	a2, a2, 2
	add	a2, a2, a3
	lw	a2, 0(a2)
	sw	a0, -20(s0)
	sw	a1, -24(s0)
	jalr	a2
.Ltmp78:
	.loc	7 89 3 is_stmt 1                # C:/Vega/rv32m1_sdk_riscv/boards/rv32m1_vega/rtos_examples/freertos_hello/ri5cy/riscvgcc/../../../../../../RISCV\core_riscv32.h:89:3
	#APP
	csrci	mstatus, 8
	#NO_APP
.Ltmp79:
	.loc	3 454 19                        # C:/Vega/rv32m1_sdk_riscv/devices/RV32M1/system_RV32M1_ri5cy.c:454:19
	lw	a0, -20(s0)
	lw	a1, %lo(irqNesting)(a0)
	addi	a1, a1, -1
	sw	a1, %lo(irqNesting)(a0)
	.loc	3 455 5                         # C:/Vega/rv32m1_sdk_riscv/devices/RV32M1/system_RV32M1_ri5cy.c:455:5
	j	.LBB33_2
.Ltmp80:
.LBB33_2:                               # %if.end
	.loc	3 456 1                         # C:/Vega/rv32m1_sdk_riscv/devices/RV32M1/system_RV32M1_ri5cy.c:456:1
	lw	s0, 24(sp)
	lw	ra, 28(sp)
	addi	sp, sp, 32
	ret
.Ltmp81:
.Lfunc_end33:
	.size	SystemIrqHandler, .Lfunc_end33-SystemIrqHandler
	.cfi_endproc
                                        # -- End function
	.section	.text.SystemSetupSystick,"ax",@progbits
	.globl	SystemSetupSystick              # -- Begin function SystemSetupSystick
	.p2align	2
	.type	SystemSetupSystick,@function
SystemSetupSystick:                     # @SystemSetupSystick
.Lfunc_begin34:
	.loc	3 465 0                         # C:/Vega/rv32m1_sdk_riscv/devices/RV32M1/system_RV32M1_ri5cy.c:465:0
	.cfi_startproc
# %bb.0:                                # %entry
	addi	sp, sp, -32
	.cfi_def_cfa_offset 32
	sw	ra, 28(sp)
	sw	s0, 24(sp)
	.cfi_offset ra, -4
	.cfi_offset s0, -8
	addi	s0, sp, 32
	.cfi_def_cfa s0, 0
	sw	a0, -12(s0)
	sw	a1, -16(s0)
	lui	a0, 262187
	addi	a0, a0, 192
.Ltmp82:
	.loc	3 467 5 prologue_end            # C:/Vega/rv32m1_sdk_riscv/devices/RV32M1/system_RV32M1_ri5cy.c:467:5
	sw	a0, -20(s0)
	call	CLOCK_EnableClock
	lui	a0, 262192
	.loc	3 470 39                        # C:/Vega/rv32m1_sdk_riscv/devices/RV32M1/system_RV32M1_ri5cy.c:470:39
	lw	a1, 8(a0)
	ori	a1, a1, 2
	sw	a1, 8(a0)
	.loc	3 471 39                        # C:/Vega/rv32m1_sdk_riscv/devices/RV32M1/system_RV32M1_ri5cy.c:471:39
	lw	a1, 8(a0)
	andi	a1, a1, -3
	sw	a1, 8(a0)
	addi	a1, zero, 13
	.loc	3 474 39                        # C:/Vega/rv32m1_sdk_riscv/devices/RV32M1/system_RV32M1_ri5cy.c:474:39
	sw	a1, 8(a0)
	.loc	3 477 54                        # C:/Vega/rv32m1_sdk_riscv/devices/RV32M1/system_RV32M1_ri5cy.c:477:54
	lw	a1, -20(s0)
	sw	a0, -24(s0)
	mv	a0, a1
	call	CLOCK_GetIpFreq
	.loc	3 477 86 is_stmt 0              # C:/Vega/rv32m1_sdk_riscv/devices/RV32M1/system_RV32M1_ri5cy.c:477:86
	lw	a1, -12(s0)
	.loc	3 477 84                        # C:/Vega/rv32m1_sdk_riscv/devices/RV32M1/system_RV32M1_ri5cy.c:477:84
	call	__udivsi3
	.loc	3 477 98                        # C:/Vega/rv32m1_sdk_riscv/devices/RV32M1/system_RV32M1_ri5cy.c:477:98
	addi	a0, a0, -1
	.loc	3 477 51                        # C:/Vega/rv32m1_sdk_riscv/devices/RV32M1/system_RV32M1_ri5cy.c:477:51
	lw	a1, -24(s0)
	sw	a0, 32(a1)
	.loc	3 480 40 is_stmt 1              # C:/Vega/rv32m1_sdk_riscv/devices/RV32M1/system_RV32M1_ri5cy.c:480:40
	lw	a0, 16(a1)
	ori	a0, a0, 1
	sw	a0, 16(a1)
	.loc	3 483 38                        # C:/Vega/rv32m1_sdk_riscv/devices/RV32M1/system_RV32M1_ri5cy.c:483:38
	lbu	a1, -16(s0)
	addi	a0, zero, 12
	.loc	3 483 5 is_stmt 0               # C:/Vega/rv32m1_sdk_riscv/devices/RV32M1/system_RV32M1_ri5cy.c:483:5
	sw	a0, -28(s0)
	call	EVENT_SetIRQPriority
	.loc	3 486 5 is_stmt 1               # C:/Vega/rv32m1_sdk_riscv/devices/RV32M1/system_RV32M1_ri5cy.c:486:5
	lw	a0, -28(s0)
	call	EnableIRQ
	.loc	3 489 42                        # C:/Vega/rv32m1_sdk_riscv/devices/RV32M1/system_RV32M1_ri5cy.c:489:42
	lw	a1, -24(s0)
	lw	a2, 20(a1)
	ori	a2, a2, 1
	sw	a2, 20(a1)
	.loc	3 490 1                         # C:/Vega/rv32m1_sdk_riscv/devices/RV32M1/system_RV32M1_ri5cy.c:490:1
	lw	s0, 24(sp)
	lw	ra, 28(sp)
	addi	sp, sp, 32
	ret
.Ltmp83:
.Lfunc_end34:
	.size	SystemSetupSystick, .Lfunc_end34-SystemSetupSystick
	.cfi_endproc
                                        # -- End function
	.section	.text.CLOCK_EnableClock,"ax",@progbits
	.p2align	2                               # -- Begin function CLOCK_EnableClock
	.type	CLOCK_EnableClock,@function
CLOCK_EnableClock:                      # @CLOCK_EnableClock
.Lfunc_begin35:
	.loc	4 778 0                         # C:/Vega/rv32m1_sdk_riscv/boards/rv32m1_vega/rtos_examples/freertos_hello/ri5cy/riscvgcc/../../../../../../devices/RV32M1/drivers/fsl_clock.h:778:0
	.cfi_startproc
# %bb.0:                                # %entry
	addi	sp, sp, -16
	.cfi_def_cfa_offset 16
	sw	ra, 12(sp)
	sw	s0, 8(sp)
	.cfi_offset ra, -4
	.cfi_offset s0, -8
	addi	s0, sp, 16
	.cfi_def_cfa s0, 0
	sw	a0, -12(s0)
.Ltmp84:
	.loc	4 779 30 prologue_end           # C:/Vega/rv32m1_sdk_riscv/boards/rv32m1_vega/rtos_examples/freertos_hello/ri5cy/riscvgcc/../../../../../../devices/RV32M1/drivers/fsl_clock.h:779:30
	lw	a0, -12(s0)
	.loc	4 779 8 is_stmt 0               # C:/Vega/rv32m1_sdk_riscv/boards/rv32m1_vega/rtos_examples/freertos_hello/ri5cy/riscvgcc/../../../../../../devices/RV32M1/drivers/fsl_clock.h:779:8
	lw	a0, 0(a0)
	lui	a1, 524288
	.loc	4 779 36                        # C:/Vega/rv32m1_sdk_riscv/boards/rv32m1_vega/rtos_examples/freertos_hello/ri5cy/riscvgcc/../../../../../../devices/RV32M1/drivers/fsl_clock.h:779:36
	and	a0, a0, a1
	mv	a1, zero
	.loc	4 779 6                         # C:/Vega/rv32m1_sdk_riscv/boards/rv32m1_vega/rtos_examples/freertos_hello/ri5cy/riscvgcc/../../../../../../devices/RV32M1/drivers/fsl_clock.h:779:6
	beq	a0, a1, .LBB35_2
	j	.LBB35_1
.LBB35_1:                               # %cond.true
	j	.LBB35_3
.LBB35_2:                               # %cond.false
	.loc	4 779 65                        # C:/Vega/rv32m1_sdk_riscv/boards/rv32m1_vega/rtos_examples/freertos_hello/ri5cy/riscvgcc/../../../../../../devices/RV32M1/drivers/fsl_clock.h:779:65
	lui	a0, %hi(.L.str)
	addi	a0, a0, %lo(.L.str)
	lui	a1, %hi(.L__func__.CLOCK_EnableClock)
	addi	a2, a1, %lo(.L__func__.CLOCK_EnableClock)
	lui	a1, %hi(.L.str.1)
	addi	a3, a1, %lo(.L.str.1)
	addi	a1, zero, 779
	call	__assert_func
.LBB35_3:                               # %cond.end
	.loc	4 781 28 is_stmt 1              # C:/Vega/rv32m1_sdk_riscv/boards/rv32m1_vega/rtos_examples/freertos_hello/ri5cy/riscvgcc/../../../../../../devices/RV32M1/drivers/fsl_clock.h:781:28
	lw	a0, -12(s0)
	.loc	4 781 34 is_stmt 0              # C:/Vega/rv32m1_sdk_riscv/boards/rv32m1_vega/rtos_examples/freertos_hello/ri5cy/riscvgcc/../../../../../../devices/RV32M1/drivers/fsl_clock.h:781:34
	lw	a1, 0(a0)
	lui	a2, 262144
	or	a1, a1, a2
	sw	a1, 0(a0)
	.loc	4 782 1 is_stmt 1               # C:/Vega/rv32m1_sdk_riscv/boards/rv32m1_vega/rtos_examples/freertos_hello/ri5cy/riscvgcc/../../../../../../devices/RV32M1/drivers/fsl_clock.h:782:1
	lw	s0, 8(sp)
	lw	ra, 12(sp)
	addi	sp, sp, 16
	ret
.Ltmp85:
.Lfunc_end35:
	.size	CLOCK_EnableClock, .Lfunc_end35-CLOCK_EnableClock
	.cfi_endproc
                                        # -- End function
	.section	.text.EVENT_SetIRQPriority,"ax",@progbits
	.globl	EVENT_SetIRQPriority            # -- Begin function EVENT_SetIRQPriority
	.p2align	2
	.type	EVENT_SetIRQPriority,@function
EVENT_SetIRQPriority:                   # @EVENT_SetIRQPriority
.Lfunc_begin36:
	.loc	3 504 0                         # C:/Vega/rv32m1_sdk_riscv/devices/RV32M1/system_RV32M1_ri5cy.c:504:0
	.cfi_startproc
# %bb.0:                                # %entry
	addi	sp, sp, -16
	.cfi_def_cfa_offset 16
	sw	ra, 12(sp)
	sw	s0, 8(sp)
	.cfi_offset ra, -4
	.cfi_offset s0, -8
	addi	s0, sp, 16
	.cfi_def_cfa s0, 0
	mv	a2, a1
	sw	a0, -12(s0)
	sb	a1, -13(s0)
.Ltmp86:
	.loc	3 508 10 prologue_end           # C:/Vega/rv32m1_sdk_riscv/devices/RV32M1/system_RV32M1_ri5cy.c:508:10
	lw	a0, -12(s0)
	addi	a1, zero, 31
	.loc	3 508 21 is_stmt 0              # C:/Vega/rv32m1_sdk_riscv/devices/RV32M1/system_RV32M1_ri5cy.c:508:21
	blt	a1, a0, .LBB36_3
	j	.LBB36_1
.LBB36_1:                               # %land.lhs.true
	.loc	3 508 25                        # C:/Vega/rv32m1_sdk_riscv/devices/RV32M1/system_RV32M1_ri5cy.c:508:25
	lbu	a0, -13(s0)
	addi	a1, zero, 7
.Ltmp87:
	.loc	3 508 9                         # C:/Vega/rv32m1_sdk_riscv/devices/RV32M1/system_RV32M1_ri5cy.c:508:9
	blt	a1, a0, .LBB36_3
	j	.LBB36_2
.LBB36_2:                               # %if.then
.Ltmp88:
	.loc	3 517 18 is_stmt 1              # C:/Vega/rv32m1_sdk_riscv/devices/RV32M1/system_RV32M1_ri5cy.c:517:18
	lw	a0, -12(s0)
	.loc	3 517 23 is_stmt 0              # C:/Vega/rv32m1_sdk_riscv/devices/RV32M1/system_RV32M1_ri5cy.c:517:23
	srli	a0, a0, 3
	.loc	3 517 16                        # C:/Vega/rv32m1_sdk_riscv/devices/RV32M1/system_RV32M1_ri5cy.c:517:16
	sb	a0, -14(s0)
	.loc	3 518 22 is_stmt 1              # C:/Vega/rv32m1_sdk_riscv/devices/RV32M1/system_RV32M1_ri5cy.c:518:22
	lw	a0, -12(s0)
	.loc	3 518 27 is_stmt 0              # C:/Vega/rv32m1_sdk_riscv/devices/RV32M1/system_RV32M1_ri5cy.c:518:27
	andi	a0, a0, 7
	.loc	3 518 36                        # C:/Vega/rv32m1_sdk_riscv/devices/RV32M1/system_RV32M1_ri5cy.c:518:36
	slli	a0, a0, 2
	.loc	3 518 19                        # C:/Vega/rv32m1_sdk_riscv/devices/RV32M1/system_RV32M1_ri5cy.c:518:19
	sb	a0, -15(s0)
	.loc	3 520 100 is_stmt 1             # C:/Vega/rv32m1_sdk_riscv/devices/RV32M1/system_RV32M1_ri5cy.c:520:100
	lbu	a0, -14(s0)
	.loc	3 520 60 is_stmt 0              # C:/Vega/rv32m1_sdk_riscv/devices/RV32M1/system_RV32M1_ri5cy.c:520:60
	slli	a0, a0, 2
	lui	a1, 917569
	addi	a1, a1, 20
	add	a0, a0, a1
	lw	a0, 0(a0)
	.loc	3 520 120                       # C:/Vega/rv32m1_sdk_riscv/devices/RV32M1/system_RV32M1_ri5cy.c:520:120
	lbu	a2, -15(s0)
	addi	a3, zero, 15
	.loc	3 520 117                       # C:/Vega/rv32m1_sdk_riscv/devices/RV32M1/system_RV32M1_ri5cy.c:520:117
	sll	a3, a3, a2
	.loc	3 520 110                       # C:/Vega/rv32m1_sdk_riscv/devices/RV32M1/system_RV32M1_ri5cy.c:520:110
	not	a3, a3
	.loc	3 520 108                       # C:/Vega/rv32m1_sdk_riscv/devices/RV32M1/system_RV32M1_ri5cy.c:520:108
	and	a0, a0, a3
	.loc	3 520 135                       # C:/Vega/rv32m1_sdk_riscv/devices/RV32M1/system_RV32M1_ri5cy.c:520:135
	lbu	a3, -13(s0)
	.loc	3 520 147                       # C:/Vega/rv32m1_sdk_riscv/devices/RV32M1/system_RV32M1_ri5cy.c:520:147
	sll	a2, a3, a2
	.loc	3 520 132                       # C:/Vega/rv32m1_sdk_riscv/devices/RV32M1/system_RV32M1_ri5cy.c:520:132
	or	a0, a0, a2
	.loc	3 520 49                        # C:/Vega/rv32m1_sdk_riscv/devices/RV32M1/system_RV32M1_ri5cy.c:520:49
	lbu	a2, -14(s0)
	.loc	3 520 9                         # C:/Vega/rv32m1_sdk_riscv/devices/RV32M1/system_RV32M1_ri5cy.c:520:9
	slli	a2, a2, 2
	add	a1, a2, a1
	.loc	3 520 57                        # C:/Vega/rv32m1_sdk_riscv/devices/RV32M1/system_RV32M1_ri5cy.c:520:57
	sw	a0, 0(a1)
	.loc	3 521 5 is_stmt 1               # C:/Vega/rv32m1_sdk_riscv/devices/RV32M1/system_RV32M1_ri5cy.c:521:5
	j	.LBB36_3
.Ltmp89:
.LBB36_3:                               # %if.end
	.loc	3 522 1                         # C:/Vega/rv32m1_sdk_riscv/devices/RV32M1/system_RV32M1_ri5cy.c:522:1
	lw	s0, 8(sp)
	lw	ra, 12(sp)
	addi	sp, sp, 16
	ret
.Ltmp90:
.Lfunc_end36:
	.size	EVENT_SetIRQPriority, .Lfunc_end36-EVENT_SetIRQPriority
	.cfi_endproc
                                        # -- End function
	.section	.text.EnableIRQ,"ax",@progbits
	.p2align	2                               # -- Begin function EnableIRQ
	.type	EnableIRQ,@function
EnableIRQ:                              # @EnableIRQ
.Lfunc_begin37:
	.file	8 "C:/Vega/rv32m1_sdk_riscv/boards/rv32m1_vega/rtos_examples/freertos_hello/ri5cy/riscvgcc/../../../../../../devices/RV32M1/drivers" "fsl_common.h"
	.loc	8 311 0                         # C:/Vega/rv32m1_sdk_riscv/boards/rv32m1_vega/rtos_examples/freertos_hello/ri5cy/riscvgcc/../../../../../../devices/RV32M1/drivers/fsl_common.h:311:0
	.cfi_startproc
# %bb.0:                                # %entry
	addi	sp, sp, -16
	.cfi_def_cfa_offset 16
	sw	ra, 12(sp)
	sw	s0, 8(sp)
	.cfi_offset ra, -4
	.cfi_offset s0, -8
	addi	s0, sp, 16
	.cfi_def_cfa s0, 0
	sw	a0, -16(s0)
.Ltmp91:
	.loc	8 312 26 prologue_end           # C:/Vega/rv32m1_sdk_riscv/boards/rv32m1_vega/rtos_examples/freertos_hello/ri5cy/riscvgcc/../../../../../../devices/RV32M1/drivers/fsl_common.h:312:26
	lw	a0, -16(s0)
	addi	a1, zero, -128
.Ltmp92:
	.loc	8 312 9 is_stmt 0               # C:/Vega/rv32m1_sdk_riscv/boards/rv32m1_vega/rtos_examples/freertos_hello/ri5cy/riscvgcc/../../../../../../devices/RV32M1/drivers/fsl_common.h:312:9
	bne	a0, a1, .LBB37_2
	j	.LBB37_1
.LBB37_1:                               # %if.then
	.loc	8 0 9                           # C:/Vega/rv32m1_sdk_riscv/boards/rv32m1_vega/rtos_examples/freertos_hello/ri5cy/riscvgcc/../../../../../../devices/RV32M1/drivers/fsl_common.h:0:9
	addi	a0, zero, 1
.Ltmp93:
	.loc	8 314 9 is_stmt 1               # C:/Vega/rv32m1_sdk_riscv/boards/rv32m1_vega/rtos_examples/freertos_hello/ri5cy/riscvgcc/../../../../../../devices/RV32M1/drivers/fsl_common.h:314:9
	sw	a0, -12(s0)
	j	.LBB37_5
.Ltmp94:
.LBB37_2:                               # %if.end
	.loc	8 318 9                         # C:/Vega/rv32m1_sdk_riscv/boards/rv32m1_vega/rtos_examples/freertos_hello/ri5cy/riscvgcc/../../../../../../devices/RV32M1/drivers/fsl_common.h:318:9
	lw	a0, -16(s0)
	addi	a1, zero, 32
.Ltmp95:
	.loc	8 318 9 is_stmt 0               # C:/Vega/rv32m1_sdk_riscv/boards/rv32m1_vega/rtos_examples/freertos_hello/ri5cy/riscvgcc/../../../../../../devices/RV32M1/drivers/fsl_common.h:318:9
	blt	a0, a1, .LBB37_4
	j	.LBB37_3
.LBB37_3:                               # %if.then2
	.loc	8 0 9                           # C:/Vega/rv32m1_sdk_riscv/boards/rv32m1_vega/rtos_examples/freertos_hello/ri5cy/riscvgcc/../../../../../../devices/RV32M1/drivers/fsl_common.h:0:9
	addi	a0, zero, 1
.Ltmp96:
	.loc	8 320 9 is_stmt 1               # C:/Vega/rv32m1_sdk_riscv/boards/rv32m1_vega/rtos_examples/freertos_hello/ri5cy/riscvgcc/../../../../../../devices/RV32M1/drivers/fsl_common.h:320:9
	sw	a0, -12(s0)
	j	.LBB37_5
.Ltmp97:
.LBB37_4:                               # %if.end3
	.loc	8 325 63                        # C:/Vega/rv32m1_sdk_riscv/boards/rv32m1_vega/rtos_examples/freertos_hello/ri5cy/riscvgcc/../../../../../../devices/RV32M1/drivers/fsl_common.h:325:63
	lw	a0, -16(s0)
	addi	a1, zero, 1
	.loc	8 325 60 is_stmt 0              # C:/Vega/rv32m1_sdk_riscv/boards/rv32m1_vega/rtos_examples/freertos_hello/ri5cy/riscvgcc/../../../../../../devices/RV32M1/drivers/fsl_common.h:325:60
	sll	a0, a1, a0
	lui	a1, 917569
	.loc	8 325 44                        # C:/Vega/rv32m1_sdk_riscv/boards/rv32m1_vega/rtos_examples/freertos_hello/ri5cy/riscvgcc/../../../../../../devices/RV32M1/drivers/fsl_common.h:325:44
	lw	a2, 0(a1)
	or	a0, a2, a0
	sw	a0, 0(a1)
	.loc	8 327 42 is_stmt 1              # C:/Vega/rv32m1_sdk_riscv/boards/rv32m1_vega/rtos_examples/freertos_hello/ri5cy/riscvgcc/../../../../../../devices/RV32M1/drivers/fsl_common.h:327:42
	lw	a0, 0(a1)
	mv	a1, zero
	.loc	8 335 5                         # C:/Vega/rv32m1_sdk_riscv/boards/rv32m1_vega/rtos_examples/freertos_hello/ri5cy/riscvgcc/../../../../../../devices/RV32M1/drivers/fsl_common.h:335:5
	sw	a1, -12(s0)
	j	.LBB37_5
.LBB37_5:                               # %return
	.loc	8 336 1                         # C:/Vega/rv32m1_sdk_riscv/boards/rv32m1_vega/rtos_examples/freertos_hello/ri5cy/riscvgcc/../../../../../../devices/RV32M1/drivers/fsl_common.h:336:1
	lw	a0, -12(s0)
	lw	s0, 8(sp)
	lw	ra, 12(sp)
	addi	sp, sp, 16
	ret
.Ltmp98:
.Lfunc_end37:
	.size	EnableIRQ, .Lfunc_end37-EnableIRQ
	.cfi_endproc
                                        # -- End function
	.section	.text.SystemGetIRQNestingLevel,"ax",@progbits
	.globl	SystemGetIRQNestingLevel        # -- Begin function SystemGetIRQNestingLevel
	.p2align	2
	.type	SystemGetIRQNestingLevel,@function
SystemGetIRQNestingLevel:               # @SystemGetIRQNestingLevel
.Lfunc_begin38:
	.loc	3 493 0                         # C:/Vega/rv32m1_sdk_riscv/devices/RV32M1/system_RV32M1_ri5cy.c:493:0
	.cfi_startproc
# %bb.0:                                # %entry
	addi	sp, sp, -16
	.cfi_def_cfa_offset 16
.Ltmp99:
	.loc	3 494 12 prologue_end           # C:/Vega/rv32m1_sdk_riscv/devices/RV32M1/system_RV32M1_ri5cy.c:494:12
	sw	ra, 12(sp)
	sw	s0, 8(sp)
	.cfi_offset ra, -4
	.cfi_offset s0, -8
	addi	s0, sp, 16
	.cfi_def_cfa s0, 0
	lui	a0, %hi(irqNesting)
	lw	a0, %lo(irqNesting)(a0)
	.loc	3 494 5 is_stmt 0               # C:/Vega/rv32m1_sdk_riscv/devices/RV32M1/system_RV32M1_ri5cy.c:494:5
	lw	s0, 8(sp)
	lw	ra, 12(sp)
	addi	sp, sp, 16
	ret
.Ltmp100:
.Lfunc_end38:
	.size	SystemGetIRQNestingLevel, .Lfunc_end38-SystemGetIRQNestingLevel
	.cfi_endproc
                                        # -- End function
	.section	.text.SystemClearSystickFlag,"ax",@progbits
	.globl	SystemClearSystickFlag          # -- Begin function SystemClearSystickFlag
	.p2align	2
	.type	SystemClearSystickFlag,@function
SystemClearSystickFlag:                 # @SystemClearSystickFlag
.Lfunc_begin39:
	.loc	3 498 0 is_stmt 1               # C:/Vega/rv32m1_sdk_riscv/devices/RV32M1/system_RV32M1_ri5cy.c:498:0
	.cfi_startproc
# %bb.0:                                # %entry
	addi	sp, sp, -16
	.cfi_def_cfa_offset 16
	sw	ra, 12(sp)
	sw	s0, 8(sp)
	.cfi_offset ra, -4
	.cfi_offset s0, -8
	addi	s0, sp, 16
	.cfi_def_cfa s0, 0
	lui	a0, 262192
	addi	a1, zero, 1
.Ltmp101:
	.loc	3 500 39 prologue_end           # C:/Vega/rv32m1_sdk_riscv/devices/RV32M1/system_RV32M1_ri5cy.c:500:39
	sw	a1, 12(a0)
	.loc	3 501 1                         # C:/Vega/rv32m1_sdk_riscv/devices/RV32M1/system_RV32M1_ri5cy.c:501:1
	lw	s0, 8(sp)
	lw	ra, 12(sp)
	addi	sp, sp, 16
	ret
.Ltmp102:
.Lfunc_end39:
	.size	SystemClearSystickFlag, .Lfunc_end39-SystemClearSystickFlag
	.cfi_endproc
                                        # -- End function
	.section	.text.EVENT_GetIRQPriority,"ax",@progbits
	.globl	EVENT_GetIRQPriority            # -- Begin function EVENT_GetIRQPriority
	.p2align	2
	.type	EVENT_GetIRQPriority,@function
EVENT_GetIRQPriority:                   # @EVENT_GetIRQPriority
.Lfunc_begin40:
	.loc	3 525 0                         # C:/Vega/rv32m1_sdk_riscv/devices/RV32M1/system_RV32M1_ri5cy.c:525:0
	.cfi_startproc
# %bb.0:                                # %entry
	addi	sp, sp, -32
	.cfi_def_cfa_offset 32
	sw	ra, 28(sp)
	sw	s0, 24(sp)
	.cfi_offset ra, -4
	.cfi_offset s0, -8
	addi	s0, sp, 32
	.cfi_def_cfa s0, 0
	sw	a0, -16(s0)
.Ltmp103:
	.loc	3 530 10 prologue_end           # C:/Vega/rv32m1_sdk_riscv/devices/RV32M1/system_RV32M1_ri5cy.c:530:10
	lw	a0, -16(s0)
	addi	a1, zero, 31
.Ltmp104:
	.loc	3 530 9 is_stmt 0               # C:/Vega/rv32m1_sdk_riscv/devices/RV32M1/system_RV32M1_ri5cy.c:530:9
	blt	a1, a0, .LBB40_2
	j	.LBB40_1
.LBB40_1:                               # %if.then
.Ltmp105:
	.loc	3 539 18 is_stmt 1              # C:/Vega/rv32m1_sdk_riscv/devices/RV32M1/system_RV32M1_ri5cy.c:539:18
	lw	a0, -16(s0)
	.loc	3 539 23 is_stmt 0              # C:/Vega/rv32m1_sdk_riscv/devices/RV32M1/system_RV32M1_ri5cy.c:539:23
	srli	a0, a0, 3
	.loc	3 539 16                        # C:/Vega/rv32m1_sdk_riscv/devices/RV32M1/system_RV32M1_ri5cy.c:539:16
	sb	a0, -17(s0)
	.loc	3 540 22 is_stmt 1              # C:/Vega/rv32m1_sdk_riscv/devices/RV32M1/system_RV32M1_ri5cy.c:540:22
	lw	a0, -16(s0)
	.loc	3 540 27 is_stmt 0              # C:/Vega/rv32m1_sdk_riscv/devices/RV32M1/system_RV32M1_ri5cy.c:540:27
	andi	a0, a0, 7
	.loc	3 540 36                        # C:/Vega/rv32m1_sdk_riscv/devices/RV32M1/system_RV32M1_ri5cy.c:540:36
	slli	a0, a0, 2
	.loc	3 540 19                        # C:/Vega/rv32m1_sdk_riscv/devices/RV32M1/system_RV32M1_ri5cy.c:540:19
	sb	a0, -18(s0)
	.loc	3 542 64 is_stmt 1              # C:/Vega/rv32m1_sdk_riscv/devices/RV32M1/system_RV32M1_ri5cy.c:542:64
	lbu	a0, -17(s0)
	.loc	3 542 24 is_stmt 0              # C:/Vega/rv32m1_sdk_riscv/devices/RV32M1/system_RV32M1_ri5cy.c:542:24
	slli	a0, a0, 2
	lui	a1, 917569
	addi	a1, a1, 20
	add	a0, a0, a1
	lw	a0, 0(a0)
	.loc	3 542 75                        # C:/Vega/rv32m1_sdk_riscv/devices/RV32M1/system_RV32M1_ri5cy.c:542:75
	lbu	a1, -18(s0)
	.loc	3 542 72                        # C:/Vega/rv32m1_sdk_riscv/devices/RV32M1/system_RV32M1_ri5cy.c:542:72
	srl	a0, a0, a1
	.loc	3 542 86                        # C:/Vega/rv32m1_sdk_riscv/devices/RV32M1/system_RV32M1_ri5cy.c:542:86
	andi	a0, a0, 15
	.loc	3 542 21                        # C:/Vega/rv32m1_sdk_riscv/devices/RV32M1/system_RV32M1_ri5cy.c:542:21
	sw	a0, -24(s0)
	.loc	3 543 25 is_stmt 1              # C:/Vega/rv32m1_sdk_riscv/devices/RV32M1/system_RV32M1_ri5cy.c:543:25
	lw	a0, -24(s0)
	.loc	3 543 9 is_stmt 0               # C:/Vega/rv32m1_sdk_riscv/devices/RV32M1/system_RV32M1_ri5cy.c:543:9
	sb	a0, -9(s0)
	j	.LBB40_3
.Ltmp106:
.LBB40_2:                               # %if.end
	.loc	3 0 9                           # C:/Vega/rv32m1_sdk_riscv/devices/RV32M1/system_RV32M1_ri5cy.c:0:9
	mv	a0, zero
	.loc	3 545 5 is_stmt 1               # C:/Vega/rv32m1_sdk_riscv/devices/RV32M1/system_RV32M1_ri5cy.c:545:5
	sb	a0, -9(s0)
	j	.LBB40_3
.LBB40_3:                               # %return
	.loc	3 546 1                         # C:/Vega/rv32m1_sdk_riscv/devices/RV32M1/system_RV32M1_ri5cy.c:546:1
	lbu	a0, -9(s0)
	lw	s0, 24(sp)
	lw	ra, 28(sp)
	addi	sp, sp, 32
	ret
.Ltmp107:
.Lfunc_end40:
	.size	EVENT_GetIRQPriority, .Lfunc_end40-EVENT_GetIRQPriority
	.cfi_endproc
                                        # -- End function
	.section	.text.SystemInISR,"ax",@progbits
	.globl	SystemInISR                     # -- Begin function SystemInISR
	.p2align	2
	.type	SystemInISR,@function
SystemInISR:                            # @SystemInISR
.Lfunc_begin41:
	.loc	3 549 0                         # C:/Vega/rv32m1_sdk_riscv/devices/RV32M1/system_RV32M1_ri5cy.c:549:0
	.cfi_startproc
# %bb.0:                                # %entry
	addi	sp, sp, -16
	.cfi_def_cfa_offset 16
	sw	ra, 12(sp)
	sw	s0, 8(sp)
	.cfi_offset ra, -4
	.cfi_offset s0, -8
	addi	s0, sp, 16
	.cfi_def_cfa s0, 0
	lui	a0, 917569
.Ltmp108:
	.loc	3 550 45 prologue_end           # C:/Vega/rv32m1_sdk_riscv/devices/RV32M1/system_RV32M1_ri5cy.c:550:45
	lw	a0, 40(a0)
	.loc	3 550 60 is_stmt 0              # C:/Vega/rv32m1_sdk_riscv/devices/RV32M1/system_RV32M1_ri5cy.c:550:60
	snez	a0, a0
	.loc	3 550 5                         # C:/Vega/rv32m1_sdk_riscv/devices/RV32M1/system_RV32M1_ri5cy.c:550:5
	lw	s0, 8(sp)
	lw	ra, 12(sp)
	addi	sp, sp, 16
	ret
.Ltmp109:
.Lfunc_end41:
	.size	SystemInISR, .Lfunc_end41-SystemInISR
	.cfi_endproc
                                        # -- End function
	.section	.text.EVENT_SystemReset,"ax",@progbits
	.globl	EVENT_SystemReset               # -- Begin function EVENT_SystemReset
	.p2align	2
	.type	EVENT_SystemReset,@function
EVENT_SystemReset:                      # @EVENT_SystemReset
.Lfunc_begin42:
	.loc	3 554 0 is_stmt 1               # C:/Vega/rv32m1_sdk_riscv/devices/RV32M1/system_RV32M1_ri5cy.c:554:0
	.cfi_startproc
# %bb.0:                                # %entry
	addi	sp, sp, -16
	.cfi_def_cfa_offset 16
	sw	ra, 12(sp)
	sw	s0, 8(sp)
	.cfi_offset ra, -4
	.cfi_offset s0, -8
	addi	s0, sp, 16
	.cfi_def_cfa s0, 0
	lui	a0, 917569
.Ltmp110:
	.loc	3 555 44 prologue_end           # C:/Vega/rv32m1_sdk_riscv/devices/RV32M1/system_RV32M1_ri5cy.c:555:44
	lw	a1, 128(a0)
	lui	a2, 524288
	or	a1, a1, a2
	sw	a1, 128(a0)
	.loc	3 556 1                         # C:/Vega/rv32m1_sdk_riscv/devices/RV32M1/system_RV32M1_ri5cy.c:556:1
	lw	s0, 8(sp)
	lw	ra, 12(sp)
	addi	sp, sp, 16
	ret
.Ltmp111:
.Lfunc_end42:
	.size	EVENT_SystemReset, .Lfunc_end42-EVENT_SystemReset
	.cfi_endproc
                                        # -- End function
	.type	SystemCoreClock,@object         # @SystemCoreClock
	.section	.sdata,"aw",@progbits
	.globl	SystemCoreClock
	.p2align	2
SystemCoreClock:
	.word	48000000                        # 0x2dc6c00
	.size	SystemCoreClock, 4

	.type	isrTable,@object                # @isrTable
	.section	user_vectors,"a",@progbits
	.globl	isrTable
	.p2align	2
isrTable:
	.word	DMA0_0_4_8_12_IRQHandler
	.word	DMA0_1_5_9_13_IRQHandler
	.word	DMA0_2_6_10_14_IRQHandler
	.word	DMA0_3_7_11_15_IRQHandler
	.word	DMA0_Error_IRQHandler
	.word	CMC0_IRQHandler
	.word	MUA_IRQHandler
	.word	USB0_IRQHandler
	.word	USDHC0_IRQHandler
	.word	I2S0_IRQHandler
	.word	FLEXIO0_IRQHandler
	.word	EMVSIM0_IRQHandler
	.word	LPIT0_IRQHandler
	.word	LPSPI0_IRQHandler
	.word	LPSPI1_IRQHandler
	.word	LPI2C0_IRQHandler
	.word	LPI2C1_IRQHandler
	.word	LPUART0_IRQHandler
	.word	PORTA_IRQHandler
	.word	TPM0_IRQHandler
	.word	LPDAC0_IRQHandler
	.word	ADC0_IRQHandler
	.word	LPCMP0_IRQHandler
	.word	RTC_IRQHandler
	.word	INTMUX0_0_IRQHandler
	.word	INTMUX0_1_IRQHandler
	.word	INTMUX0_2_IRQHandler
	.word	INTMUX0_3_IRQHandler
	.word	INTMUX0_4_IRQHandler
	.word	INTMUX0_5_IRQHandler
	.word	INTMUX0_6_IRQHandler
	.word	INTMUX0_7_IRQHandler
	.word	EWM_IRQHandler
	.word	FTFE_Command_Complete_IRQHandler
	.word	FTFE_Read_Collision_IRQHandler
	.word	LLWU0_IRQHandler
	.word	SPM_IRQHandler
	.word	WDOG0_IRQHandler
	.word	SCG_IRQHandler
	.word	LPTMR0_IRQHandler
	.word	LPTMR1_IRQHandler
	.word	TPM1_IRQHandler
	.word	TPM2_IRQHandler
	.word	LPI2C2_IRQHandler
	.word	LPSPI2_IRQHandler
	.word	LPUART1_IRQHandler
	.word	LPUART2_IRQHandler
	.word	PORTB_IRQHandler
	.word	PORTC_IRQHandler
	.word	PORTD_IRQHandler
	.word	CAU3_Task_Complete_IRQHandler
	.word	CAU3_Security_Violation_IRQHandler
	.word	TRNG_IRQHandler
	.word	LPIT1_IRQHandler
	.word	LPTMR2_IRQHandler
	.word	TPM3_IRQHandler
	.word	LPI2C3_IRQHandler
	.word	LPSPI3_IRQHandler
	.word	LPUART3_IRQHandler
	.word	PORTE_IRQHandler
	.word	LPCMP1_IRQHandler
	.word	RF0_0_IRQHandler
	.word	RF0_1_IRQHandler
	.size	isrTable, 252

	.type	irqNesting,@object              # @irqNesting
	.section	.sbss,"aw",@nobits
	.p2align	2
irqNesting:
	.word	0                               # 0x0
	.size	irqNesting, 4

	.type	.L.str,@object                  # @.str
	.section	.rodata.str1.1,"aMS",@progbits,1
.L.str:
	.asciz	"C:/Vega/rv32m1_sdk_riscv/boards/rv32m1_vega/rtos_examples/freertos_hello/ri5cy/riscvgcc/../../../../../../devices/RV32M1/drivers/fsl_clock.h"
	.size	.L.str, 141

	.type	.L__func__.CLOCK_EnableClock,@object # @__func__.CLOCK_EnableClock
.L__func__.CLOCK_EnableClock:
	.asciz	"CLOCK_EnableClock"
	.size	.L__func__.CLOCK_EnableClock, 18

	.type	.L.str.1,@object                # @.str.1
.L.str.1:
	.asciz	"(*(volatile uint32_t *)name) & PCC_CLKCFG_PR_MASK"
	.size	.L.str.1, 50

	.section	".note.GNU-stack","",@progbits
	.addrsig
	.addrsig_sym DefaultIRQHandler
	.addrsig_sym DMA0_0_4_8_12_IRQHandler
	.addrsig_sym DMA0_1_5_9_13_IRQHandler
	.addrsig_sym DMA0_2_6_10_14_IRQHandler
	.addrsig_sym DMA0_3_7_11_15_IRQHandler
	.addrsig_sym FLEXIO0_IRQHandler
	.addrsig_sym LPI2C0_IRQHandler
	.addrsig_sym LPI2C1_IRQHandler
	.addrsig_sym LPI2C2_IRQHandler
	.addrsig_sym I2S0_IRQHandler
	.addrsig_sym USDHC0_IRQHandler
	.addrsig_sym LPSPI0_IRQHandler
	.addrsig_sym LPSPI1_IRQHandler
	.addrsig_sym LPSPI2_IRQHandler
	.addrsig_sym LPUART0_IRQHandler
	.addrsig_sym LPUART1_IRQHandler
	.addrsig_sym LPUART2_IRQHandler
	.addrsig_sym LPI2C3_IRQHandler
	.addrsig_sym LPSPI3_IRQHandler
	.addrsig_sym LPUART3_IRQHandler
	.addrsig_sym INTMUX0_0_IRQHandler
	.addrsig_sym INTMUX0_1_IRQHandler
	.addrsig_sym INTMUX0_2_IRQHandler
	.addrsig_sym INTMUX0_3_IRQHandler
	.addrsig_sym INTMUX0_4_IRQHandler
	.addrsig_sym INTMUX0_5_IRQHandler
	.addrsig_sym INTMUX0_6_IRQHandler
	.addrsig_sym INTMUX0_7_IRQHandler
	.addrsig_sym SystemInitHook
	.addrsig_sym copy_section
	.addrsig_sym zero_section
	.addrsig_sym CLOCK_EnableClock
	.addrsig_sym CLOCK_GetIpFreq
	.addrsig_sym EVENT_SetIRQPriority
	.addrsig_sym EnableIRQ
	.addrsig_sym __assert_func
	.addrsig_sym SystemCoreClock
	.addrsig_sym isrTable
	.addrsig_sym __etext
	.addrsig_sym __data_start__
	.addrsig_sym __data_end__
	.addrsig_sym __bss_start__
	.addrsig_sym __bss_end__
	.addrsig_sym irqNesting
	.addrsig_sym __VECTOR_TABLE
	.addrsig_sym DMA0_0_4_8_12_DriverIRQHandler
	.addrsig_sym DMA0_1_5_9_13_DriverIRQHandler
	.addrsig_sym DMA0_2_6_10_14_DriverIRQHandler
	.addrsig_sym DMA0_3_7_11_15_DriverIRQHandler
	.addrsig_sym DMA0_Error_IRQHandler
	.addrsig_sym CMC0_IRQHandler
	.addrsig_sym EWM_IRQHandler
	.addrsig_sym FTFE_Command_Complete_IRQHandler
	.addrsig_sym FTFE_Read_Collision_IRQHandler
	.addrsig_sym LLWU0_IRQHandler
	.addrsig_sym MUA_IRQHandler
	.addrsig_sym SPM_IRQHandler
	.addrsig_sym WDOG0_IRQHandler
	.addrsig_sym SCG_IRQHandler
	.addrsig_sym LPIT0_IRQHandler
	.addrsig_sym RTC_IRQHandler
	.addrsig_sym LPTMR0_IRQHandler
	.addrsig_sym LPTMR1_IRQHandler
	.addrsig_sym TPM0_IRQHandler
	.addrsig_sym TPM1_IRQHandler
	.addrsig_sym TPM2_IRQHandler
	.addrsig_sym EMVSIM0_IRQHandler
	.addrsig_sym FLEXIO0_DriverIRQHandler
	.addrsig_sym LPI2C0_DriverIRQHandler
	.addrsig_sym LPI2C1_DriverIRQHandler
	.addrsig_sym LPI2C2_DriverIRQHandler
	.addrsig_sym I2S0_DriverIRQHandler
	.addrsig_sym USDHC0_DriverIRQHandler
	.addrsig_sym LPSPI0_DriverIRQHandler
	.addrsig_sym LPSPI1_DriverIRQHandler
	.addrsig_sym LPSPI2_DriverIRQHandler
	.addrsig_sym LPUART0_DriverIRQHandler
	.addrsig_sym LPUART1_DriverIRQHandler
	.addrsig_sym LPUART2_DriverIRQHandler
	.addrsig_sym USB0_IRQHandler
	.addrsig_sym PORTA_IRQHandler
	.addrsig_sym PORTB_IRQHandler
	.addrsig_sym PORTC_IRQHandler
	.addrsig_sym PORTD_IRQHandler
	.addrsig_sym ADC0_IRQHandler
	.addrsig_sym LPCMP0_IRQHandler
	.addrsig_sym LPDAC0_IRQHandler
	.addrsig_sym CAU3_Task_Complete_IRQHandler
	.addrsig_sym CAU3_Security_Violation_IRQHandler
	.addrsig_sym TRNG_IRQHandler
	.addrsig_sym LPIT1_IRQHandler
	.addrsig_sym LPTMR2_IRQHandler
	.addrsig_sym TPM3_IRQHandler
	.addrsig_sym LPI2C3_DriverIRQHandler
	.addrsig_sym LPSPI3_DriverIRQHandler
	.addrsig_sym LPUART3_DriverIRQHandler
	.addrsig_sym PORTE_IRQHandler
	.addrsig_sym LPCMP1_IRQHandler
	.addrsig_sym RF0_0_IRQHandler
	.addrsig_sym RF0_1_IRQHandler
	.addrsig_sym INTMUX0_0_DriverIRQHandler
	.addrsig_sym INTMUX0_1_DriverIRQHandler
	.addrsig_sym INTMUX0_2_DriverIRQHandler
	.addrsig_sym INTMUX0_3_DriverIRQHandler
	.addrsig_sym INTMUX0_4_DriverIRQHandler
	.addrsig_sym INTMUX0_5_DriverIRQHandler
	.addrsig_sym INTMUX0_6_DriverIRQHandler
	.addrsig_sym INTMUX0_7_DriverIRQHandler