	.text
	.attribute	4, 16
	.attribute	5, "rv32i2p0"
	.file	"tasks.c"
	.file	1 "C:/Vega/rv32m1_sdk_riscv/boards/rv32m1_vega/rtos_examples/freertos_hello/ri5cy/riscvgcc/../../../../../../rtos/freertos_9.0.0/Source/portable/GCC/RISCY" "portmacro.h"
	.file	2 "C:/Vega/rv32m1_sdk_riscv/rtos/freertos_9.0.0/Source" "tasks.c"
	.file	3 "C:\\Vega" "riscv32-unknown-elf-gcc\\riscv32-unknown-elf\\include\\machine\\_default_types.h"
	.file	4 "C:\\Vega" "riscv32-unknown-elf-gcc\\riscv32-unknown-elf\\include\\sys\\_stdint.h"
	.file	5 "C:/Vega/rv32m1_sdk_riscv/boards/rv32m1_vega/rtos_examples/freertos_hello/ri5cy/riscvgcc/../../../../../../rtos/freertos_9.0.0/Source/include" "list.h"
	.file	6 "C:/Vega/rv32m1_sdk_riscv/boards/rv32m1_vega/rtos_examples/freertos_hello/ri5cy/riscvgcc/../../../../../../rtos/freertos_9.0.0/Source/include" "freertos_tasks_c_additions.h"
	.file	7 "C:/Vega/rv32m1_sdk_riscv/boards/rv32m1_vega/rtos_examples/freertos_hello/ri5cy/riscvgcc/../../../../../../rtos/freertos_9.0.0/Source/include" "task.h"
	.file	8 "C:\\" "Program Files\\LLVM\\lib\\clang\\11.0.0\\include\\stddef.h"
	.section	.text.xTaskCreate,"ax",@progbits
	.globl	xTaskCreate                     # -- Begin function xTaskCreate
	.p2align	2
	.type	xTaskCreate,@function
xTaskCreate:                            # @xTaskCreate
.Lfunc_begin0:
	.loc	2 682 0                         # C:/Vega/rv32m1_sdk_riscv/rtos/freertos_9.0.0/Source/tasks.c:682:0
	.cfi_sections .debug_frame
	.cfi_startproc
# %bb.0:                                # %entry
	addi	sp, sp, -48
	.cfi_def_cfa_offset 48
	sw	ra, 44(sp)
	sw	s0, 40(sp)
	.cfi_offset ra, -4
	.cfi_offset s0, -8
	addi	s0, sp, 48
	.cfi_def_cfa s0, 0
	mv	a6, a2
	sw	a0, -12(s0)
	sw	a1, -16(s0)
	sh	a2, -18(s0)
	sw	a3, -24(s0)
	sw	a4, -28(s0)
	sw	a5, -32(s0)
.Ltmp0:
	.loc	2 716 61 prologue_end           # C:/Vega/rv32m1_sdk_riscv/rtos/freertos_9.0.0/Source/tasks.c:716:61
	lhu	a0, -18(s0)
	.loc	2 716 76 is_stmt 0              # C:/Vega/rv32m1_sdk_riscv/rtos/freertos_9.0.0/Source/tasks.c:716:76
	slli	a0, a0, 2
	.loc	2 716 32                        # C:/Vega/rv32m1_sdk_riscv/rtos/freertos_9.0.0/Source/tasks.c:716:32
	sw	a6, -48(s0)
	call	pvPortMalloc
	.loc	2 716 12                        # C:/Vega/rv32m1_sdk_riscv/rtos/freertos_9.0.0/Source/tasks.c:716:12
	sw	a0, -44(s0)
.Ltmp1:
	.loc	2 718 8 is_stmt 1               # C:/Vega/rv32m1_sdk_riscv/rtos/freertos_9.0.0/Source/tasks.c:718:8
	lw	a0, -44(s0)
	mv	a1, zero
.Ltmp2:
	.loc	2 718 8 is_stmt 0               # C:/Vega/rv32m1_sdk_riscv/rtos/freertos_9.0.0/Source/tasks.c:718:8
	beq	a0, a1, .LBB0_5
	j	.LBB0_1
.LBB0_1:                                # %if.then
	.loc	2 0 8                           # C:/Vega/rv32m1_sdk_riscv/rtos/freertos_9.0.0/Source/tasks.c:0:8
	addi	a0, zero, 120
.Ltmp3:
	.loc	2 721 28 is_stmt 1              # C:/Vega/rv32m1_sdk_riscv/rtos/freertos_9.0.0/Source/tasks.c:721:28
	call	pvPortMalloc
	.loc	2 721 14 is_stmt 0              # C:/Vega/rv32m1_sdk_riscv/rtos/freertos_9.0.0/Source/tasks.c:721:14
	sw	a0, -36(s0)
.Ltmp4:
	.loc	2 723 9 is_stmt 1               # C:/Vega/rv32m1_sdk_riscv/rtos/freertos_9.0.0/Source/tasks.c:723:9
	lw	a0, -36(s0)
	mv	a1, zero
.Ltmp5:
	.loc	2 723 9 is_stmt 0               # C:/Vega/rv32m1_sdk_riscv/rtos/freertos_9.0.0/Source/tasks.c:723:9
	beq	a0, a1, .LBB0_3
	j	.LBB0_2
.LBB0_2:                                # %if.then5
.Ltmp6:
	.loc	2 726 26 is_stmt 1              # C:/Vega/rv32m1_sdk_riscv/rtos/freertos_9.0.0/Source/tasks.c:726:26
	lw	a0, -44(s0)
	.loc	2 726 6 is_stmt 0               # C:/Vega/rv32m1_sdk_riscv/rtos/freertos_9.0.0/Source/tasks.c:726:6
	lw	a1, -36(s0)
	.loc	2 726 24                        # C:/Vega/rv32m1_sdk_riscv/rtos/freertos_9.0.0/Source/tasks.c:726:24
	sw	a0, 48(a1)
	.loc	2 727 5 is_stmt 1               # C:/Vega/rv32m1_sdk_riscv/rtos/freertos_9.0.0/Source/tasks.c:727:5
	j	.LBB0_4
.Ltmp7:
.LBB0_3:                                # %if.else
	.loc	2 732 17                        # C:/Vega/rv32m1_sdk_riscv/rtos/freertos_9.0.0/Source/tasks.c:732:17
	lw	a0, -44(s0)
	.loc	2 732 6 is_stmt 0               # C:/Vega/rv32m1_sdk_riscv/rtos/freertos_9.0.0/Source/tasks.c:732:6
	call	vPortFree
	j	.LBB0_4
.Ltmp8:
.LBB0_4:                                # %if.end
	.loc	2 734 4 is_stmt 1               # C:/Vega/rv32m1_sdk_riscv/rtos/freertos_9.0.0/Source/tasks.c:734:4
	j	.LBB0_6
.Ltmp9:
.LBB0_5:                                # %if.else7
	.loc	2 0 4 is_stmt 0                 # C:/Vega/rv32m1_sdk_riscv/rtos/freertos_9.0.0/Source/tasks.c:0:4
	mv	a0, zero
.Ltmp10:
	.loc	2 737 14 is_stmt 1              # C:/Vega/rv32m1_sdk_riscv/rtos/freertos_9.0.0/Source/tasks.c:737:14
	sw	a0, -36(s0)
	j	.LBB0_6
.Ltmp11:
.LBB0_6:                                # %if.end8
	.loc	2 742 7                         # C:/Vega/rv32m1_sdk_riscv/rtos/freertos_9.0.0/Source/tasks.c:742:7
	lw	a0, -36(s0)
	mv	a1, zero
.Ltmp12:
	.loc	2 742 7 is_stmt 0               # C:/Vega/rv32m1_sdk_riscv/rtos/freertos_9.0.0/Source/tasks.c:742:7
	beq	a0, a1, .LBB0_8
	j	.LBB0_7
.LBB0_7:                                # %if.then11
.Ltmp13:
	.loc	2 752 26 is_stmt 1              # C:/Vega/rv32m1_sdk_riscv/rtos/freertos_9.0.0/Source/tasks.c:752:26
	lw	a0, -12(s0)
	.loc	2 752 38 is_stmt 0              # C:/Vega/rv32m1_sdk_riscv/rtos/freertos_9.0.0/Source/tasks.c:752:38
	lw	a1, -16(s0)
	.loc	2 752 59                        # C:/Vega/rv32m1_sdk_riscv/rtos/freertos_9.0.0/Source/tasks.c:752:59
	lhu	a2, -18(s0)
	.loc	2 752 73                        # C:/Vega/rv32m1_sdk_riscv/rtos/freertos_9.0.0/Source/tasks.c:752:73
	lw	a3, -24(s0)
	.loc	2 752 87                        # C:/Vega/rv32m1_sdk_riscv/rtos/freertos_9.0.0/Source/tasks.c:752:87
	lw	a4, -28(s0)
	.loc	2 752 99                        # C:/Vega/rv32m1_sdk_riscv/rtos/freertos_9.0.0/Source/tasks.c:752:99
	lw	a5, -32(s0)
	.loc	2 752 114                       # C:/Vega/rv32m1_sdk_riscv/rtos/freertos_9.0.0/Source/tasks.c:752:114
	lw	a6, -36(s0)
	mv	a7, zero
	.loc	2 752 4                         # C:/Vega/rv32m1_sdk_riscv/rtos/freertos_9.0.0/Source/tasks.c:752:4
	call	prvInitialiseNewTask
	.loc	2 753 30 is_stmt 1              # C:/Vega/rv32m1_sdk_riscv/rtos/freertos_9.0.0/Source/tasks.c:753:30
	lw	a0, -36(s0)
	.loc	2 753 4 is_stmt 0               # C:/Vega/rv32m1_sdk_riscv/rtos/freertos_9.0.0/Source/tasks.c:753:4
	call	prvAddNewTaskToReadyList
	addi	a0, zero, 1
	.loc	2 754 12 is_stmt 1              # C:/Vega/rv32m1_sdk_riscv/rtos/freertos_9.0.0/Source/tasks.c:754:12
	sw	a0, -40(s0)
	.loc	2 755 3                         # C:/Vega/rv32m1_sdk_riscv/rtos/freertos_9.0.0/Source/tasks.c:755:3
	j	.LBB0_9
.Ltmp14:
.LBB0_8:                                # %if.else13
	.loc	2 0 3 is_stmt 0                 # C:/Vega/rv32m1_sdk_riscv/rtos/freertos_9.0.0/Source/tasks.c:0:3
	addi	a0, zero, -1
.Ltmp15:
	.loc	2 758 12 is_stmt 1              # C:/Vega/rv32m1_sdk_riscv/rtos/freertos_9.0.0/Source/tasks.c:758:12
	sw	a0, -40(s0)
	j	.LBB0_9
.Ltmp16:
.LBB0_9:                                # %if.end14
	.loc	2 761 10                        # C:/Vega/rv32m1_sdk_riscv/rtos/freertos_9.0.0/Source/tasks.c:761:10
	lw	a0, -40(s0)
	.loc	2 761 3 is_stmt 0               # C:/Vega/rv32m1_sdk_riscv/rtos/freertos_9.0.0/Source/tasks.c:761:3
	lw	s0, 40(sp)
	lw	ra, 44(sp)
	addi	sp, sp, 48
	ret
.Ltmp17:
.Lfunc_end0:
	.size	xTaskCreate, .Lfunc_end0-xTaskCreate
	.cfi_endproc
                                        # -- End function
	.section	.text.prvInitialiseNewTask,"ax",@progbits
	.p2align	2                               # -- Begin function prvInitialiseNewTask
	.type	prvInitialiseNewTask,@function
prvInitialiseNewTask:                   # @prvInitialiseNewTask
.Lfunc_begin1:
	.loc	2 775 0 is_stmt 1               # C:/Vega/rv32m1_sdk_riscv/rtos/freertos_9.0.0/Source/tasks.c:775:0
	.cfi_startproc
# %bb.0:                                # %entry
	addi	sp, sp, -64
	.cfi_def_cfa_offset 64
	sw	ra, 60(sp)
	sw	s0, 56(sp)
	.cfi_offset ra, -4
	.cfi_offset s0, -8
	addi	s0, sp, 64
	.cfi_def_cfa s0, 0
	sw	a0, -12(s0)
	sw	a1, -16(s0)
	sw	a2, -20(s0)
	sw	a3, -24(s0)
	sw	a4, -28(s0)
	sw	a5, -32(s0)
	sw	a6, -36(s0)
	sw	a7, -40(s0)
.Ltmp18:
	.loc	2 797 20 prologue_end           # C:/Vega/rv32m1_sdk_riscv/rtos/freertos_9.0.0/Source/tasks.c:797:20
	lw	a0, -36(s0)
	.loc	2 797 30 is_stmt 0              # C:/Vega/rv32m1_sdk_riscv/rtos/freertos_9.0.0/Source/tasks.c:797:30
	lw	a0, 48(a0)
	.loc	2 797 69                        # C:/Vega/rv32m1_sdk_riscv/rtos/freertos_9.0.0/Source/tasks.c:797:69
	lw	a1, -20(s0)
	.loc	2 797 82                        # C:/Vega/rv32m1_sdk_riscv/rtos/freertos_9.0.0/Source/tasks.c:797:82
	slli	a2, a1, 2
	addi	a1, zero, 165
	.loc	2 797 12                        # C:/Vega/rv32m1_sdk_riscv/rtos/freertos_9.0.0/Source/tasks.c:797:12
	call	memset
.Ltmp19:
	.loc	2 807 18 is_stmt 1              # C:/Vega/rv32m1_sdk_riscv/rtos/freertos_9.0.0/Source/tasks.c:807:18
	lw	a1, -36(s0)
	.loc	2 807 28 is_stmt 0              # C:/Vega/rv32m1_sdk_riscv/rtos/freertos_9.0.0/Source/tasks.c:807:28
	lw	a1, 48(a1)
	.loc	2 807 40                        # C:/Vega/rv32m1_sdk_riscv/rtos/freertos_9.0.0/Source/tasks.c:807:40
	lw	a2, -20(s0)
	.loc	2 807 53                        # C:/Vega/rv32m1_sdk_riscv/rtos/freertos_9.0.0/Source/tasks.c:807:53
	slli	a2, a2, 2
	.loc	2 807 36                        # C:/Vega/rv32m1_sdk_riscv/rtos/freertos_9.0.0/Source/tasks.c:807:36
	add	a1, a2, a1
	addi	a1, a1, -4
	.loc	2 807 16                        # C:/Vega/rv32m1_sdk_riscv/rtos/freertos_9.0.0/Source/tasks.c:807:16
	sw	a1, -44(s0)
	addi	a1, zero, 1
	.loc	2 811 6 is_stmt 1               # C:/Vega/rv32m1_sdk_riscv/rtos/freertos_9.0.0/Source/tasks.c:811:6
	bnez	a1, .LBB1_3
	j	.LBB1_1
.LBB1_1:                                # %if.then
.Ltmp20:
	.loc	2 811 83 is_stmt 0              # C:/Vega/rv32m1_sdk_riscv/rtos/freertos_9.0.0/Source/tasks.c:811:83
	call	vPortSetInterruptMask
	.loc	2 811 108                       # C:/Vega/rv32m1_sdk_riscv/rtos/freertos_9.0.0/Source/tasks.c:811:108
	j	.LBB1_2
.LBB1_2:                                # %for.cond
                                        # =>This Inner Loop Header: Depth=1
.Ltmp21:
	.loc	2 811 108                       # C:/Vega/rv32m1_sdk_riscv/rtos/freertos_9.0.0/Source/tasks.c:811:108
	j	.LBB1_2
.Ltmp22:
.LBB1_3:                                # %if.end
	.loc	2 816 29 is_stmt 1              # C:/Vega/rv32m1_sdk_riscv/rtos/freertos_9.0.0/Source/tasks.c:816:29
	lw	a0, -44(s0)
	.loc	2 816 4 is_stmt 0               # C:/Vega/rv32m1_sdk_riscv/rtos/freertos_9.0.0/Source/tasks.c:816:4
	lw	a1, -36(s0)
	.loc	2 816 27                        # C:/Vega/rv32m1_sdk_riscv/rtos/freertos_9.0.0/Source/tasks.c:816:27
	sw	a0, 72(a1)
	mv	a0, zero
.Ltmp23:
	.loc	2 834 9 is_stmt 1               # C:/Vega/rv32m1_sdk_riscv/rtos/freertos_9.0.0/Source/tasks.c:834:9
	sw	a0, -48(s0)
	.loc	2 834 7 is_stmt 0               # C:/Vega/rv32m1_sdk_riscv/rtos/freertos_9.0.0/Source/tasks.c:834:7
	j	.LBB1_4
.LBB1_4:                                # %for.cond5
                                        # =>This Inner Loop Header: Depth=1
.Ltmp24:
	.loc	2 834 30                        # C:/Vega/rv32m1_sdk_riscv/rtos/freertos_9.0.0/Source/tasks.c:834:30
	lw	a0, -48(s0)
	addi	a1, zero, 19
.Ltmp25:
	.loc	2 834 2                         # C:/Vega/rv32m1_sdk_riscv/rtos/freertos_9.0.0/Source/tasks.c:834:2
	bltu	a1, a0, .LBB1_10
	j	.LBB1_5
.LBB1_5:                                # %for.body
                                        #   in Loop: Header=BB1_4 Depth=1
.Ltmp26:
	.loc	2 836 31 is_stmt 1              # C:/Vega/rv32m1_sdk_riscv/rtos/freertos_9.0.0/Source/tasks.c:836:31
	lw	a0, -16(s0)
	.loc	2 836 39 is_stmt 0              # C:/Vega/rv32m1_sdk_riscv/rtos/freertos_9.0.0/Source/tasks.c:836:39
	lw	a1, -48(s0)
	.loc	2 836 31                        # C:/Vega/rv32m1_sdk_riscv/rtos/freertos_9.0.0/Source/tasks.c:836:31
	add	a0, a0, a1
	lb	a0, 0(a0)
	.loc	2 836 3                         # C:/Vega/rv32m1_sdk_riscv/rtos/freertos_9.0.0/Source/tasks.c:836:3
	lw	a2, -36(s0)
	.loc	2 836 13                        # C:/Vega/rv32m1_sdk_riscv/rtos/freertos_9.0.0/Source/tasks.c:836:13
	add	a1, a2, a1
	.loc	2 836 29                        # C:/Vega/rv32m1_sdk_riscv/rtos/freertos_9.0.0/Source/tasks.c:836:29
	sb	a0, 52(a1)
.Ltmp27:
	.loc	2 841 7 is_stmt 1               # C:/Vega/rv32m1_sdk_riscv/rtos/freertos_9.0.0/Source/tasks.c:841:7
	lw	a0, -16(s0)
	.loc	2 841 15 is_stmt 0              # C:/Vega/rv32m1_sdk_riscv/rtos/freertos_9.0.0/Source/tasks.c:841:15
	lw	a1, -48(s0)
	.loc	2 841 7                         # C:/Vega/rv32m1_sdk_riscv/rtos/freertos_9.0.0/Source/tasks.c:841:7
	add	a0, a0, a1
	lbu	a0, 0(a0)
	mv	a1, zero
.Ltmp28:
	.loc	2 841 7                         # C:/Vega/rv32m1_sdk_riscv/rtos/freertos_9.0.0/Source/tasks.c:841:7
	bne	a0, a1, .LBB1_7
	j	.LBB1_6
.LBB1_6:                                # %if.then13
.Ltmp29:
	.loc	2 843 4 is_stmt 1               # C:/Vega/rv32m1_sdk_riscv/rtos/freertos_9.0.0/Source/tasks.c:843:4
	j	.LBB1_10
.Ltmp30:
.LBB1_7:                                # %if.else
                                        #   in Loop: Header=BB1_4 Depth=1
	.loc	2 0 4 is_stmt 0                 # C:/Vega/rv32m1_sdk_riscv/rtos/freertos_9.0.0/Source/tasks.c:0:4
	j	.LBB1_8
.LBB1_8:                                # %if.end14
                                        #   in Loop: Header=BB1_4 Depth=1
	.loc	2 849 2 is_stmt 1               # C:/Vega/rv32m1_sdk_riscv/rtos/freertos_9.0.0/Source/tasks.c:849:2
	j	.LBB1_9
.Ltmp31:
.LBB1_9:                                # %for.inc
                                        #   in Loop: Header=BB1_4 Depth=1
	.loc	2 834 55                        # C:/Vega/rv32m1_sdk_riscv/rtos/freertos_9.0.0/Source/tasks.c:834:55
	lw	a0, -48(s0)
	addi	a0, a0, 1
	sw	a0, -48(s0)
	.loc	2 834 2 is_stmt 0               # C:/Vega/rv32m1_sdk_riscv/rtos/freertos_9.0.0/Source/tasks.c:834:2
	j	.LBB1_4
.Ltmp32:
.LBB1_10:                               # %for.end
	.loc	2 853 2 is_stmt 1               # C:/Vega/rv32m1_sdk_riscv/rtos/freertos_9.0.0/Source/tasks.c:853:2
	lw	a0, -36(s0)
	mv	a1, zero
	.loc	2 853 33 is_stmt 0              # C:/Vega/rv32m1_sdk_riscv/rtos/freertos_9.0.0/Source/tasks.c:853:33
	sb	a1, 71(a0)
.Ltmp33:
	.loc	2 857 6 is_stmt 1               # C:/Vega/rv32m1_sdk_riscv/rtos/freertos_9.0.0/Source/tasks.c:857:6
	lw	a0, -28(s0)
	addi	a1, zero, 5
.Ltmp34:
	.loc	2 857 6 is_stmt 0               # C:/Vega/rv32m1_sdk_riscv/rtos/freertos_9.0.0/Source/tasks.c:857:6
	bltu	a0, a1, .LBB1_12
	j	.LBB1_11
.LBB1_11:                               # %if.then19
	.loc	2 0 6                           # C:/Vega/rv32m1_sdk_riscv/rtos/freertos_9.0.0/Source/tasks.c:0:6
	addi	a0, zero, 4
.Ltmp35:
	.loc	2 859 14 is_stmt 1              # C:/Vega/rv32m1_sdk_riscv/rtos/freertos_9.0.0/Source/tasks.c:859:14
	sw	a0, -28(s0)
	.loc	2 860 2                         # C:/Vega/rv32m1_sdk_riscv/rtos/freertos_9.0.0/Source/tasks.c:860:2
	j	.LBB1_13
.Ltmp36:
.LBB1_12:                               # %if.else20
	.loc	2 0 2 is_stmt 0                 # C:/Vega/rv32m1_sdk_riscv/rtos/freertos_9.0.0/Source/tasks.c:0:2
	j	.LBB1_13
.LBB1_13:                               # %if.end21
	.loc	2 866 25 is_stmt 1              # C:/Vega/rv32m1_sdk_riscv/rtos/freertos_9.0.0/Source/tasks.c:866:25
	lw	a0, -28(s0)
	.loc	2 866 2 is_stmt 0               # C:/Vega/rv32m1_sdk_riscv/rtos/freertos_9.0.0/Source/tasks.c:866:2
	lw	a1, -36(s0)
	.loc	2 866 23                        # C:/Vega/rv32m1_sdk_riscv/rtos/freertos_9.0.0/Source/tasks.c:866:23
	sw	a0, 44(a1)
.Ltmp37:
	.loc	2 869 30 is_stmt 1              # C:/Vega/rv32m1_sdk_riscv/rtos/freertos_9.0.0/Source/tasks.c:869:30
	lw	a0, -28(s0)
	.loc	2 869 3 is_stmt 0               # C:/Vega/rv32m1_sdk_riscv/rtos/freertos_9.0.0/Source/tasks.c:869:3
	lw	a1, -36(s0)
	.loc	2 869 28                        # C:/Vega/rv32m1_sdk_riscv/rtos/freertos_9.0.0/Source/tasks.c:869:28
	sw	a0, 84(a1)
	.loc	2 870 3 is_stmt 1               # C:/Vega/rv32m1_sdk_riscv/rtos/freertos_9.0.0/Source/tasks.c:870:3
	lw	a0, -36(s0)
	mv	a1, zero
	.loc	2 870 27 is_stmt 0              # C:/Vega/rv32m1_sdk_riscv/rtos/freertos_9.0.0/Source/tasks.c:870:27
	sw	a1, 88(a0)
.Ltmp38:
	.loc	2 874 26 is_stmt 1              # C:/Vega/rv32m1_sdk_riscv/rtos/freertos_9.0.0/Source/tasks.c:874:26
	lw	a0, -36(s0)
	.loc	2 874 36 is_stmt 0              # C:/Vega/rv32m1_sdk_riscv/rtos/freertos_9.0.0/Source/tasks.c:874:36
	addi	a0, a0, 4
	.loc	2 874 2                         # C:/Vega/rv32m1_sdk_riscv/rtos/freertos_9.0.0/Source/tasks.c:874:2
	sw	a1, -52(s0)
	call	vListInitialiseItem
	.loc	2 875 26 is_stmt 1              # C:/Vega/rv32m1_sdk_riscv/rtos/freertos_9.0.0/Source/tasks.c:875:26
	lw	a0, -36(s0)
	.loc	2 875 36 is_stmt 0              # C:/Vega/rv32m1_sdk_riscv/rtos/freertos_9.0.0/Source/tasks.c:875:36
	addi	a0, a0, 24
	.loc	2 875 2                         # C:/Vega/rv32m1_sdk_riscv/rtos/freertos_9.0.0/Source/tasks.c:875:2
	call	vListInitialiseItem
	.loc	2 879 62 is_stmt 1              # C:/Vega/rv32m1_sdk_riscv/rtos/freertos_9.0.0/Source/tasks.c:879:62
	lw	a0, -36(s0)
	.loc	2 879 47 is_stmt 0              # C:/Vega/rv32m1_sdk_riscv/rtos/freertos_9.0.0/Source/tasks.c:879:47
	sw	a0, 16(a0)
	.loc	2 882 88 is_stmt 1              # C:/Vega/rv32m1_sdk_riscv/rtos/freertos_9.0.0/Source/tasks.c:882:88
	lw	a0, -28(s0)
	addi	a1, zero, 5
	.loc	2 882 71 is_stmt 0              # C:/Vega/rv32m1_sdk_riscv/rtos/freertos_9.0.0/Source/tasks.c:882:71
	sub	a0, a1, a0
	.loc	2 882 9                         # C:/Vega/rv32m1_sdk_riscv/rtos/freertos_9.0.0/Source/tasks.c:882:9
	lw	a1, -36(s0)
	.loc	2 882 50                        # C:/Vega/rv32m1_sdk_riscv/rtos/freertos_9.0.0/Source/tasks.c:882:50
	sw	a0, 24(a1)
	.loc	2 883 62 is_stmt 1              # C:/Vega/rv32m1_sdk_riscv/rtos/freertos_9.0.0/Source/tasks.c:883:62
	lw	a0, -36(s0)
	.loc	2 883 47 is_stmt 0              # C:/Vega/rv32m1_sdk_riscv/rtos/freertos_9.0.0/Source/tasks.c:883:47
	sw	a0, 36(a0)
.Ltmp39:
	.loc	2 916 10 is_stmt 1              # C:/Vega/rv32m1_sdk_riscv/rtos/freertos_9.0.0/Source/tasks.c:916:10
	lw	a0, -52(s0)
	sw	a0, -48(s0)
	.loc	2 916 8 is_stmt 0               # C:/Vega/rv32m1_sdk_riscv/rtos/freertos_9.0.0/Source/tasks.c:916:8
	j	.LBB1_14
.LBB1_14:                               # %for.cond28
                                        # =>This Inner Loop Header: Depth=1
.Ltmp40:
	.loc	2 916 15                        # C:/Vega/rv32m1_sdk_riscv/rtos/freertos_9.0.0/Source/tasks.c:916:15
	lw	a0, -48(s0)
	addi	a1, zero, 4
.Ltmp41:
	.loc	2 916 3                         # C:/Vega/rv32m1_sdk_riscv/rtos/freertos_9.0.0/Source/tasks.c:916:3
	bltu	a1, a0, .LBB1_17
	j	.LBB1_15
.LBB1_15:                               # %for.body31
                                        #   in Loop: Header=BB1_14 Depth=1
.Ltmp42:
	.loc	2 918 4 is_stmt 1               # C:/Vega/rv32m1_sdk_riscv/rtos/freertos_9.0.0/Source/tasks.c:918:4
	lw	a0, -36(s0)
	.loc	2 918 44 is_stmt 0              # C:/Vega/rv32m1_sdk_riscv/rtos/freertos_9.0.0/Source/tasks.c:918:44
	lw	a1, -48(s0)
	.loc	2 918 4                         # C:/Vega/rv32m1_sdk_riscv/rtos/freertos_9.0.0/Source/tasks.c:918:4
	slli	a1, a1, 2
	.loc	2 918 14                        # C:/Vega/rv32m1_sdk_riscv/rtos/freertos_9.0.0/Source/tasks.c:918:14
	add	a0, a0, a1
	mv	a1, zero
	.loc	2 918 48                        # C:/Vega/rv32m1_sdk_riscv/rtos/freertos_9.0.0/Source/tasks.c:918:48
	sw	a1, 92(a0)
	.loc	2 919 3 is_stmt 1               # C:/Vega/rv32m1_sdk_riscv/rtos/freertos_9.0.0/Source/tasks.c:919:3
	j	.LBB1_16
.Ltmp43:
.LBB1_16:                               # %for.inc33
                                        #   in Loop: Header=BB1_14 Depth=1
	.loc	2 916 39                        # C:/Vega/rv32m1_sdk_riscv/rtos/freertos_9.0.0/Source/tasks.c:916:39
	lw	a0, -48(s0)
	addi	a0, a0, 1
	sw	a0, -48(s0)
	.loc	2 916 3 is_stmt 0               # C:/Vega/rv32m1_sdk_riscv/rtos/freertos_9.0.0/Source/tasks.c:916:3
	j	.LBB1_14
.Ltmp44:
.LBB1_17:                               # %for.end35
	.loc	2 925 3 is_stmt 1               # C:/Vega/rv32m1_sdk_riscv/rtos/freertos_9.0.0/Source/tasks.c:925:3
	lw	a0, -36(s0)
	mv	a1, zero
	.loc	2 925 29 is_stmt 0              # C:/Vega/rv32m1_sdk_riscv/rtos/freertos_9.0.0/Source/tasks.c:925:29
	sw	a1, 112(a0)
	.loc	2 926 3 is_stmt 1               # C:/Vega/rv32m1_sdk_riscv/rtos/freertos_9.0.0/Source/tasks.c:926:3
	lw	a0, -36(s0)
	.loc	2 926 27 is_stmt 0              # C:/Vega/rv32m1_sdk_riscv/rtos/freertos_9.0.0/Source/tasks.c:926:27
	sb	a1, 116(a0)
.Ltmp45:
	.loc	2 953 51 is_stmt 1              # C:/Vega/rv32m1_sdk_riscv/rtos/freertos_9.0.0/Source/tasks.c:953:51
	lw	a0, -44(s0)
	.loc	2 953 65 is_stmt 0              # C:/Vega/rv32m1_sdk_riscv/rtos/freertos_9.0.0/Source/tasks.c:953:65
	lw	a2, -12(s0)
	.loc	2 953 77                        # C:/Vega/rv32m1_sdk_riscv/rtos/freertos_9.0.0/Source/tasks.c:953:77
	lw	a3, -24(s0)
	.loc	2 953 28                        # C:/Vega/rv32m1_sdk_riscv/rtos/freertos_9.0.0/Source/tasks.c:953:28
	sw	a1, -56(s0)
	mv	a1, a2
	mv	a2, a3
	call	pxPortInitialiseStack
	.loc	2 953 3                         # C:/Vega/rv32m1_sdk_riscv/rtos/freertos_9.0.0/Source/tasks.c:953:3
	lw	a1, -36(s0)
	.loc	2 953 26                        # C:/Vega/rv32m1_sdk_riscv/rtos/freertos_9.0.0/Source/tasks.c:953:26
	sw	a0, 0(a1)
.Ltmp46:
	.loc	2 957 17 is_stmt 1              # C:/Vega/rv32m1_sdk_riscv/rtos/freertos_9.0.0/Source/tasks.c:957:17
	lw	a0, -32(s0)
.Ltmp47:
	.loc	2 957 6 is_stmt 0               # C:/Vega/rv32m1_sdk_riscv/rtos/freertos_9.0.0/Source/tasks.c:957:6
	lw	a1, -56(s0)
	beq	a0, a1, .LBB1_19
	j	.LBB1_18
.LBB1_18:                               # %if.then40
.Ltmp48:
	.loc	2 961 37 is_stmt 1              # C:/Vega/rv32m1_sdk_riscv/rtos/freertos_9.0.0/Source/tasks.c:961:37
	lw	a0, -36(s0)
	.loc	2 961 4 is_stmt 0               # C:/Vega/rv32m1_sdk_riscv/rtos/freertos_9.0.0/Source/tasks.c:961:4
	lw	a1, -32(s0)
	.loc	2 961 18                        # C:/Vega/rv32m1_sdk_riscv/rtos/freertos_9.0.0/Source/tasks.c:961:18
	sw	a0, 0(a1)
	.loc	2 962 2 is_stmt 1               # C:/Vega/rv32m1_sdk_riscv/rtos/freertos_9.0.0/Source/tasks.c:962:2
	j	.LBB1_20
.Ltmp49:
.LBB1_19:                               # %if.else41
	.loc	2 0 2 is_stmt 0                 # C:/Vega/rv32m1_sdk_riscv/rtos/freertos_9.0.0/Source/tasks.c:0:2
	j	.LBB1_20
.LBB1_20:                               # %if.end42
	.loc	2 967 1 is_stmt 1               # C:/Vega/rv32m1_sdk_riscv/rtos/freertos_9.0.0/Source/tasks.c:967:1
	lw	s0, 56(sp)
	lw	ra, 60(sp)
	addi	sp, sp, 64
	ret
.Ltmp50:
.Lfunc_end1:
	.size	prvInitialiseNewTask, .Lfunc_end1-prvInitialiseNewTask
	.cfi_endproc
                                        # -- End function
	.section	.text.prvAddNewTaskToReadyList,"ax",@progbits
	.p2align	2                               # -- Begin function prvAddNewTaskToReadyList
	.type	prvAddNewTaskToReadyList,@function
prvAddNewTaskToReadyList:               # @prvAddNewTaskToReadyList
.Lfunc_begin2:
	.loc	2 971 0                         # C:/Vega/rv32m1_sdk_riscv/rtos/freertos_9.0.0/Source/tasks.c:971:0
	.cfi_startproc
# %bb.0:                                # %entry
	addi	sp, sp, -16
	.cfi_def_cfa_offset 16
	sw	ra, 12(sp)
	sw	s0, 8(sp)
	.cfi_offset ra, -4
	.cfi_offset s0, -8
	addi	s0, sp, 16
	.cfi_def_cfa s0, 0
	sw	a0, -12(s0)
.Ltmp51:
	.loc	2 974 2 prologue_end            # C:/Vega/rv32m1_sdk_riscv/rtos/freertos_9.0.0/Source/tasks.c:974:2
	call	vPortEnterCritical
.Ltmp52:
	.loc	2 976 25                        # C:/Vega/rv32m1_sdk_riscv/rtos/freertos_9.0.0/Source/tasks.c:976:25
	lui	a0, %hi(uxCurrentNumberOfTasks)
	lw	a1, %lo(uxCurrentNumberOfTasks)(a0)
	addi	a1, a1, 1
	sw	a1, %lo(uxCurrentNumberOfTasks)(a0)
.Ltmp53:
	.loc	2 977 7                         # C:/Vega/rv32m1_sdk_riscv/rtos/freertos_9.0.0/Source/tasks.c:977:7
	lui	a0, %hi(pxCurrentTCB)
	lw	a0, %lo(pxCurrentTCB)(a0)
	mv	a1, zero
.Ltmp54:
	.loc	2 977 7 is_stmt 0               # C:/Vega/rv32m1_sdk_riscv/rtos/freertos_9.0.0/Source/tasks.c:977:7
	bne	a0, a1, .LBB2_5
	j	.LBB2_1
.LBB2_1:                                # %if.then
.Ltmp55:
	.loc	2 981 19 is_stmt 1              # C:/Vega/rv32m1_sdk_riscv/rtos/freertos_9.0.0/Source/tasks.c:981:19
	lw	a0, -12(s0)
	.loc	2 981 17 is_stmt 0              # C:/Vega/rv32m1_sdk_riscv/rtos/freertos_9.0.0/Source/tasks.c:981:17
	lui	a1, %hi(pxCurrentTCB)
	sw	a0, %lo(pxCurrentTCB)(a1)
.Ltmp56:
	.loc	2 983 8 is_stmt 1               # C:/Vega/rv32m1_sdk_riscv/rtos/freertos_9.0.0/Source/tasks.c:983:8
	lui	a0, %hi(uxCurrentNumberOfTasks)
	lw	a0, %lo(uxCurrentNumberOfTasks)(a0)
	addi	a1, zero, 1
.Ltmp57:
	.loc	2 983 8 is_stmt 0               # C:/Vega/rv32m1_sdk_riscv/rtos/freertos_9.0.0/Source/tasks.c:983:8
	bne	a0, a1, .LBB2_3
	j	.LBB2_2
.LBB2_2:                                # %if.then2
.Ltmp58:
	.loc	2 988 5 is_stmt 1               # C:/Vega/rv32m1_sdk_riscv/rtos/freertos_9.0.0/Source/tasks.c:988:5
	call	prvInitialiseTaskLists
	.loc	2 989 4                         # C:/Vega/rv32m1_sdk_riscv/rtos/freertos_9.0.0/Source/tasks.c:989:4
	j	.LBB2_4
.Ltmp59:
.LBB2_3:                                # %if.else
	.loc	2 0 4 is_stmt 0                 # C:/Vega/rv32m1_sdk_riscv/rtos/freertos_9.0.0/Source/tasks.c:0:4
	j	.LBB2_4
.LBB2_4:                                # %if.end
	.loc	2 994 3 is_stmt 1               # C:/Vega/rv32m1_sdk_riscv/rtos/freertos_9.0.0/Source/tasks.c:994:3
	j	.LBB2_12
.Ltmp60:
.LBB2_5:                                # %if.else3
	.loc	2 1000 8                        # C:/Vega/rv32m1_sdk_riscv/rtos/freertos_9.0.0/Source/tasks.c:1000:8
	lui	a0, %hi(xSchedulerRunning)
	lw	a0, %lo(xSchedulerRunning)(a0)
	mv	a1, zero
.Ltmp61:
	.loc	2 1000 8 is_stmt 0              # C:/Vega/rv32m1_sdk_riscv/rtos/freertos_9.0.0/Source/tasks.c:1000:8
	bne	a0, a1, .LBB2_10
	j	.LBB2_6
.LBB2_6:                                # %if.then5
.Ltmp62:
	.loc	2 1002 9 is_stmt 1              # C:/Vega/rv32m1_sdk_riscv/rtos/freertos_9.0.0/Source/tasks.c:1002:9
	lui	a0, %hi(pxCurrentTCB)
	lw	a0, %lo(pxCurrentTCB)(a0)
	.loc	2 1002 23 is_stmt 0             # C:/Vega/rv32m1_sdk_riscv/rtos/freertos_9.0.0/Source/tasks.c:1002:23
	lw	a0, 44(a0)
	.loc	2 1002 37                       # C:/Vega/rv32m1_sdk_riscv/rtos/freertos_9.0.0/Source/tasks.c:1002:37
	lw	a1, -12(s0)
	.loc	2 1002 47                       # C:/Vega/rv32m1_sdk_riscv/rtos/freertos_9.0.0/Source/tasks.c:1002:47
	lw	a1, 44(a1)
.Ltmp63:
	.loc	2 1002 9                        # C:/Vega/rv32m1_sdk_riscv/rtos/freertos_9.0.0/Source/tasks.c:1002:9
	bltu	a1, a0, .LBB2_8
	j	.LBB2_7
.LBB2_7:                                # %if.then8
.Ltmp64:
	.loc	2 1004 21 is_stmt 1             # C:/Vega/rv32m1_sdk_riscv/rtos/freertos_9.0.0/Source/tasks.c:1004:21
	lw	a0, -12(s0)
	.loc	2 1004 19 is_stmt 0             # C:/Vega/rv32m1_sdk_riscv/rtos/freertos_9.0.0/Source/tasks.c:1004:19
	lui	a1, %hi(pxCurrentTCB)
	sw	a0, %lo(pxCurrentTCB)(a1)
	.loc	2 1005 5 is_stmt 1              # C:/Vega/rv32m1_sdk_riscv/rtos/freertos_9.0.0/Source/tasks.c:1005:5
	j	.LBB2_9
.Ltmp65:
.LBB2_8:                                # %if.else9
	.loc	2 0 5 is_stmt 0                 # C:/Vega/rv32m1_sdk_riscv/rtos/freertos_9.0.0/Source/tasks.c:0:5
	j	.LBB2_9
.LBB2_9:                                # %if.end10
	.loc	2 1010 4 is_stmt 1              # C:/Vega/rv32m1_sdk_riscv/rtos/freertos_9.0.0/Source/tasks.c:1010:4
	j	.LBB2_11
.Ltmp66:
.LBB2_10:                               # %if.else11
	.loc	2 0 4 is_stmt 0                 # C:/Vega/rv32m1_sdk_riscv/rtos/freertos_9.0.0/Source/tasks.c:0:4
	j	.LBB2_11
.LBB2_11:                               # %if.end12
	j	.LBB2_12
.LBB2_12:                               # %if.end13
	.loc	2 1017 15 is_stmt 1             # C:/Vega/rv32m1_sdk_riscv/rtos/freertos_9.0.0/Source/tasks.c:1017:15
	lui	a0, %hi(uxTaskNumber)
	lw	a1, %lo(uxTaskNumber)(a0)
	addi	a1, a1, 1
	sw	a1, %lo(uxTaskNumber)(a0)
.Ltmp67:
	.loc	2 1022 28                       # C:/Vega/rv32m1_sdk_riscv/rtos/freertos_9.0.0/Source/tasks.c:1022:28
	lw	a0, %lo(uxTaskNumber)(a0)
	.loc	2 1022 4 is_stmt 0              # C:/Vega/rv32m1_sdk_riscv/rtos/freertos_9.0.0/Source/tasks.c:1022:4
	lw	a1, -12(s0)
	.loc	2 1022 26                       # C:/Vega/rv32m1_sdk_riscv/rtos/freertos_9.0.0/Source/tasks.c:1022:26
	sw	a0, 76(a1)
.Ltmp68:
	.loc	2 1027 15 is_stmt 1             # C:/Vega/rv32m1_sdk_riscv/rtos/freertos_9.0.0/Source/tasks.c:1027:15
	lw	a0, -12(s0)
	.loc	2 1027 27 is_stmt 0             # C:/Vega/rv32m1_sdk_riscv/rtos/freertos_9.0.0/Source/tasks.c:1027:27
	lw	a0, 44(a0)
	.loc	2 1027 42                       # C:/Vega/rv32m1_sdk_riscv/rtos/freertos_9.0.0/Source/tasks.c:1027:42
	lui	a1, %hi(uxTopReadyPriority)
	lw	a1, %lo(uxTopReadyPriority)(a1)
.Ltmp69:
	.loc	2 1027 11                       # C:/Vega/rv32m1_sdk_riscv/rtos/freertos_9.0.0/Source/tasks.c:1027:11
	bgeu	a1, a0, .LBB2_14
	j	.LBB2_13
.LBB2_13:                               # %if.then17
.Ltmp70:
	.loc	2 1027 90                       # C:/Vega/rv32m1_sdk_riscv/rtos/freertos_9.0.0/Source/tasks.c:1027:90
	lw	a0, -12(s0)
	.loc	2 1027 102                      # C:/Vega/rv32m1_sdk_riscv/rtos/freertos_9.0.0/Source/tasks.c:1027:102
	lw	a0, 44(a0)
	.loc	2 1027 84                       # C:/Vega/rv32m1_sdk_riscv/rtos/freertos_9.0.0/Source/tasks.c:1027:84
	lui	a1, %hi(uxTopReadyPriority)
	sw	a0, %lo(uxTopReadyPriority)(a1)
	.loc	2 1027 116                      # C:/Vega/rv32m1_sdk_riscv/rtos/freertos_9.0.0/Source/tasks.c:1027:116
	j	.LBB2_14
.Ltmp71:
.LBB2_14:                               # %if.end19
	.loc	2 1027 161                      # C:/Vega/rv32m1_sdk_riscv/rtos/freertos_9.0.0/Source/tasks.c:1027:161
	lw	a0, -12(s0)
	.loc	2 1027 173                      # C:/Vega/rv32m1_sdk_riscv/rtos/freertos_9.0.0/Source/tasks.c:1027:173
	lw	a1, 44(a0)
	addi	a2, zero, 20
	.loc	2 1027 140                      # C:/Vega/rv32m1_sdk_riscv/rtos/freertos_9.0.0/Source/tasks.c:1027:140
	sw	a0, -16(s0)
	mv	a0, a1
	mv	a1, a2
	call	__mulsi3
	lui	a1, %hi(pxReadyTasksLists)
	addi	a1, a1, %lo(pxReadyTasksLists)
	add	a0, a0, a1
	.loc	2 1027 206                      # C:/Vega/rv32m1_sdk_riscv/rtos/freertos_9.0.0/Source/tasks.c:1027:206
	lw	a1, -16(s0)
	addi	a1, a1, 4
	.loc	2 1027 121                      # C:/Vega/rv32m1_sdk_riscv/rtos/freertos_9.0.0/Source/tasks.c:1027:121
	call	vListInsertEnd
.Ltmp72:
	.loc	2 1031 2 is_stmt 1              # C:/Vega/rv32m1_sdk_riscv/rtos/freertos_9.0.0/Source/tasks.c:1031:2
	call	vPortExitCritical
.Ltmp73:
	.loc	2 1033 6                        # C:/Vega/rv32m1_sdk_riscv/rtos/freertos_9.0.0/Source/tasks.c:1033:6
	lui	a0, %hi(xSchedulerRunning)
	lw	a0, %lo(xSchedulerRunning)(a0)
	mv	a1, zero
.Ltmp74:
	.loc	2 1033 6 is_stmt 0              # C:/Vega/rv32m1_sdk_riscv/rtos/freertos_9.0.0/Source/tasks.c:1033:6
	beq	a0, a1, .LBB2_19
	j	.LBB2_15
.LBB2_15:                               # %if.then22
.Ltmp75:
	.loc	2 1037 7 is_stmt 1              # C:/Vega/rv32m1_sdk_riscv/rtos/freertos_9.0.0/Source/tasks.c:1037:7
	lui	a0, %hi(pxCurrentTCB)
	lw	a0, %lo(pxCurrentTCB)(a0)
	.loc	2 1037 21 is_stmt 0             # C:/Vega/rv32m1_sdk_riscv/rtos/freertos_9.0.0/Source/tasks.c:1037:21
	lw	a0, 44(a0)
	.loc	2 1037 34                       # C:/Vega/rv32m1_sdk_riscv/rtos/freertos_9.0.0/Source/tasks.c:1037:34
	lw	a1, -12(s0)
	.loc	2 1037 44                       # C:/Vega/rv32m1_sdk_riscv/rtos/freertos_9.0.0/Source/tasks.c:1037:44
	lw	a1, 44(a1)
.Ltmp76:
	.loc	2 1037 7                        # C:/Vega/rv32m1_sdk_riscv/rtos/freertos_9.0.0/Source/tasks.c:1037:7
	bgeu	a0, a1, .LBB2_17
	j	.LBB2_16
.LBB2_16:                               # %if.then26
.Ltmp77:
	.loc	2 1039 4 is_stmt 1              # C:/Vega/rv32m1_sdk_riscv/rtos/freertos_9.0.0/Source/tasks.c:1039:4
	call	portYIELD
	.loc	2 1040 3                        # C:/Vega/rv32m1_sdk_riscv/rtos/freertos_9.0.0/Source/tasks.c:1040:3
	j	.LBB2_18
.Ltmp78:
.LBB2_17:                               # %if.else27
	.loc	2 0 3 is_stmt 0                 # C:/Vega/rv32m1_sdk_riscv/rtos/freertos_9.0.0/Source/tasks.c:0:3
	j	.LBB2_18
.LBB2_18:                               # %if.end28
	.loc	2 1045 2 is_stmt 1              # C:/Vega/rv32m1_sdk_riscv/rtos/freertos_9.0.0/Source/tasks.c:1045:2
	j	.LBB2_20
.Ltmp79:
.LBB2_19:                               # %if.else29
	.loc	2 0 2 is_stmt 0                 # C:/Vega/rv32m1_sdk_riscv/rtos/freertos_9.0.0/Source/tasks.c:0:2
	j	.LBB2_20
.LBB2_20:                               # %if.end30
	.loc	2 1050 1 is_stmt 1              # C:/Vega/rv32m1_sdk_riscv/rtos/freertos_9.0.0/Source/tasks.c:1050:1
	lw	s0, 8(sp)
	lw	ra, 12(sp)
	addi	sp, sp, 16
	ret
.Ltmp80:
.Lfunc_end2:
	.size	prvAddNewTaskToReadyList, .Lfunc_end2-prvAddNewTaskToReadyList
	.cfi_endproc
                                        # -- End function
	.section	.text.vTaskDelete,"ax",@progbits
	.globl	vTaskDelete                     # -- Begin function vTaskDelete
	.p2align	2
	.type	vTaskDelete,@function
vTaskDelete:                            # @vTaskDelete
.Lfunc_begin3:
	.loc	2 1056 0                        # C:/Vega/rv32m1_sdk_riscv/rtos/freertos_9.0.0/Source/tasks.c:1056:0
	.cfi_startproc
# %bb.0:                                # %entry
	addi	sp, sp, -32
	.cfi_def_cfa_offset 32
	sw	ra, 28(sp)
	sw	s0, 24(sp)
	.cfi_offset ra, -4
	.cfi_offset s0, -8
	addi	s0, sp, 32
	.cfi_def_cfa s0, 0
	sw	a0, -12(s0)
.Ltmp81:
	.loc	2 1059 3 prologue_end           # C:/Vega/rv32m1_sdk_riscv/rtos/freertos_9.0.0/Source/tasks.c:1059:3
	call	vPortEnterCritical
.Ltmp82:
	.loc	2 1063 18                       # C:/Vega/rv32m1_sdk_riscv/rtos/freertos_9.0.0/Source/tasks.c:1063:18
	lw	a0, -12(s0)
	mv	a1, zero
	.loc	2 1063 14 is_stmt 0             # C:/Vega/rv32m1_sdk_riscv/rtos/freertos_9.0.0/Source/tasks.c:1063:14
	bne	a0, a1, .LBB3_2
	j	.LBB3_1
.LBB3_1:                                # %cond.true
	.loc	2 1063 64                       # C:/Vega/rv32m1_sdk_riscv/rtos/freertos_9.0.0/Source/tasks.c:1063:64
	lui	a0, %hi(pxCurrentTCB)
	lw	a0, %lo(pxCurrentTCB)(a0)
	.loc	2 1063 14                       # C:/Vega/rv32m1_sdk_riscv/rtos/freertos_9.0.0/Source/tasks.c:1063:14
	sw	a0, -20(s0)
	j	.LBB3_3
.LBB3_2:                                # %cond.false
	.loc	2 1063 93                       # C:/Vega/rv32m1_sdk_riscv/rtos/freertos_9.0.0/Source/tasks.c:1063:93
	lw	a0, -12(s0)
	.loc	2 1063 14                       # C:/Vega/rv32m1_sdk_riscv/rtos/freertos_9.0.0/Source/tasks.c:1063:14
	sw	a0, -20(s0)
	j	.LBB3_3
.LBB3_3:                                # %cond.end
	lw	a0, -20(s0)
	.loc	2 1063 10                       # C:/Vega/rv32m1_sdk_riscv/rtos/freertos_9.0.0/Source/tasks.c:1063:10
	sw	a0, -16(s0)
.Ltmp83:
	.loc	2 1066 25 is_stmt 1             # C:/Vega/rv32m1_sdk_riscv/rtos/freertos_9.0.0/Source/tasks.c:1066:25
	lw	a0, -16(s0)
	.loc	2 1066 32 is_stmt 0             # C:/Vega/rv32m1_sdk_riscv/rtos/freertos_9.0.0/Source/tasks.c:1066:32
	addi	a0, a0, 4
	.loc	2 1066 8                        # C:/Vega/rv32m1_sdk_riscv/rtos/freertos_9.0.0/Source/tasks.c:1066:8
	call	uxListRemove
	mv	a1, zero
.Ltmp84:
	.loc	2 1066 8                        # C:/Vega/rv32m1_sdk_riscv/rtos/freertos_9.0.0/Source/tasks.c:1066:8
	bne	a0, a1, .LBB3_5
	j	.LBB3_4
.LBB3_4:                                # %if.then
.Ltmp85:
	.loc	2 1069 4 is_stmt 1              # C:/Vega/rv32m1_sdk_riscv/rtos/freertos_9.0.0/Source/tasks.c:1069:4
	j	.LBB3_6
.Ltmp86:
.LBB3_5:                                # %if.else
	.loc	2 0 4 is_stmt 0                 # C:/Vega/rv32m1_sdk_riscv/rtos/freertos_9.0.0/Source/tasks.c:0:4
	j	.LBB3_6
.LBB3_6:                                # %if.end
.Ltmp87:
	.loc	2 1076 15 is_stmt 1             # C:/Vega/rv32m1_sdk_riscv/rtos/freertos_9.0.0/Source/tasks.c:1076:15
	lw	a0, -16(s0)
	.loc	2 1076 42 is_stmt 0             # C:/Vega/rv32m1_sdk_riscv/rtos/freertos_9.0.0/Source/tasks.c:1076:42
	lw	a0, 40(a0)
	mv	a1, zero
.Ltmp88:
	.loc	2 1076 8                        # C:/Vega/rv32m1_sdk_riscv/rtos/freertos_9.0.0/Source/tasks.c:1076:8
	beq	a0, a1, .LBB3_8
	j	.LBB3_7
.LBB3_7:                                # %if.then3
.Ltmp89:
	.loc	2 1078 31 is_stmt 1             # C:/Vega/rv32m1_sdk_riscv/rtos/freertos_9.0.0/Source/tasks.c:1078:31
	lw	a0, -16(s0)
	.loc	2 1078 38 is_stmt 0             # C:/Vega/rv32m1_sdk_riscv/rtos/freertos_9.0.0/Source/tasks.c:1078:38
	addi	a0, a0, 24
	.loc	2 1078 14                       # C:/Vega/rv32m1_sdk_riscv/rtos/freertos_9.0.0/Source/tasks.c:1078:14
	call	uxListRemove
	.loc	2 1079 4 is_stmt 1              # C:/Vega/rv32m1_sdk_riscv/rtos/freertos_9.0.0/Source/tasks.c:1079:4
	j	.LBB3_9
.Ltmp90:
.LBB3_8:                                # %if.else6
	.loc	2 0 4 is_stmt 0                 # C:/Vega/rv32m1_sdk_riscv/rtos/freertos_9.0.0/Source/tasks.c:0:4
	j	.LBB3_9
.LBB3_9:                                # %if.end7
	.loc	2 1089 16 is_stmt 1             # C:/Vega/rv32m1_sdk_riscv/rtos/freertos_9.0.0/Source/tasks.c:1089:16
	lui	a0, %hi(uxTaskNumber)
	lw	a1, %lo(uxTaskNumber)(a0)
	addi	a1, a1, 1
	sw	a1, %lo(uxTaskNumber)(a0)
.Ltmp91:
	.loc	2 1091 8                        # C:/Vega/rv32m1_sdk_riscv/rtos/freertos_9.0.0/Source/tasks.c:1091:8
	lw	a0, -16(s0)
	.loc	2 1091 17 is_stmt 0             # C:/Vega/rv32m1_sdk_riscv/rtos/freertos_9.0.0/Source/tasks.c:1091:17
	lui	a1, %hi(pxCurrentTCB)
	lw	a1, %lo(pxCurrentTCB)(a1)
.Ltmp92:
	.loc	2 1091 8                        # C:/Vega/rv32m1_sdk_riscv/rtos/freertos_9.0.0/Source/tasks.c:1091:8
	bne	a0, a1, .LBB3_11
	j	.LBB3_10
.LBB3_10:                               # %if.then9
.Ltmp93:
	.loc	2 1098 51 is_stmt 1             # C:/Vega/rv32m1_sdk_riscv/rtos/freertos_9.0.0/Source/tasks.c:1098:51
	lw	a0, -16(s0)
	.loc	2 1098 58 is_stmt 0             # C:/Vega/rv32m1_sdk_riscv/rtos/freertos_9.0.0/Source/tasks.c:1098:58
	addi	a1, a0, 4
	.loc	2 1098 5                        # C:/Vega/rv32m1_sdk_riscv/rtos/freertos_9.0.0/Source/tasks.c:1098:5
	lui	a0, %hi(xTasksWaitingTermination)
	addi	a0, a0, %lo(xTasksWaitingTermination)
	call	vListInsertEnd
	.loc	2 1103 5 is_stmt 1              # C:/Vega/rv32m1_sdk_riscv/rtos/freertos_9.0.0/Source/tasks.c:1103:5
	lui	a0, %hi(uxDeletedTasksWaitingCleanUp)
	lw	a1, %lo(uxDeletedTasksWaitingCleanUp)(a0)
	addi	a1, a1, 1
	sw	a1, %lo(uxDeletedTasksWaitingCleanUp)(a0)
	.loc	2 1111 4                        # C:/Vega/rv32m1_sdk_riscv/rtos/freertos_9.0.0/Source/tasks.c:1111:4
	j	.LBB3_12
.Ltmp94:
.LBB3_11:                               # %if.else12
	.loc	2 1114 5                        # C:/Vega/rv32m1_sdk_riscv/rtos/freertos_9.0.0/Source/tasks.c:1114:5
	lui	a0, %hi(uxCurrentNumberOfTasks)
	lw	a1, %lo(uxCurrentNumberOfTasks)(a0)
	addi	a1, a1, -1
	sw	a1, %lo(uxCurrentNumberOfTasks)(a0)
	.loc	2 1115 19                       # C:/Vega/rv32m1_sdk_riscv/rtos/freertos_9.0.0/Source/tasks.c:1115:19
	lw	a0, -16(s0)
	.loc	2 1115 5 is_stmt 0              # C:/Vega/rv32m1_sdk_riscv/rtos/freertos_9.0.0/Source/tasks.c:1115:5
	call	prvDeleteTCB
	.loc	2 1119 5 is_stmt 1              # C:/Vega/rv32m1_sdk_riscv/rtos/freertos_9.0.0/Source/tasks.c:1119:5
	call	prvResetNextTaskUnblockTime
	j	.LBB3_12
.Ltmp95:
.LBB3_12:                               # %if.end13
	.loc	2 1124 3                        # C:/Vega/rv32m1_sdk_riscv/rtos/freertos_9.0.0/Source/tasks.c:1124:3
	call	vPortExitCritical
.Ltmp96:
	.loc	2 1128 7                        # C:/Vega/rv32m1_sdk_riscv/rtos/freertos_9.0.0/Source/tasks.c:1128:7
	lui	a0, %hi(xSchedulerRunning)
	lw	a0, %lo(xSchedulerRunning)(a0)
	mv	a1, zero
.Ltmp97:
	.loc	2 1128 7 is_stmt 0              # C:/Vega/rv32m1_sdk_riscv/rtos/freertos_9.0.0/Source/tasks.c:1128:7
	beq	a0, a1, .LBB3_20
	j	.LBB3_13
.LBB3_13:                               # %if.then15
.Ltmp98:
	.loc	2 1130 8 is_stmt 1              # C:/Vega/rv32m1_sdk_riscv/rtos/freertos_9.0.0/Source/tasks.c:1130:8
	lw	a0, -16(s0)
	.loc	2 1130 17 is_stmt 0             # C:/Vega/rv32m1_sdk_riscv/rtos/freertos_9.0.0/Source/tasks.c:1130:17
	lui	a1, %hi(pxCurrentTCB)
	lw	a1, %lo(pxCurrentTCB)(a1)
.Ltmp99:
	.loc	2 1130 8                        # C:/Vega/rv32m1_sdk_riscv/rtos/freertos_9.0.0/Source/tasks.c:1130:8
	bne	a0, a1, .LBB3_18
	j	.LBB3_14
.LBB3_14:                               # %if.then17
.Ltmp100:
	.loc	2 1132 10 is_stmt 1             # C:/Vega/rv32m1_sdk_riscv/rtos/freertos_9.0.0/Source/tasks.c:1132:10
	lui	a0, %hi(uxSchedulerSuspended)
	lw	a0, %lo(uxSchedulerSuspended)(a0)
	mv	a1, zero
.Ltmp101:
	.loc	2 1132 8 is_stmt 0              # C:/Vega/rv32m1_sdk_riscv/rtos/freertos_9.0.0/Source/tasks.c:1132:8
	beq	a0, a1, .LBB3_17
	j	.LBB3_15
.LBB3_15:                               # %if.then21
.Ltmp102:
	.loc	2 1132 44                       # C:/Vega/rv32m1_sdk_riscv/rtos/freertos_9.0.0/Source/tasks.c:1132:44
	call	vPortSetInterruptMask
	.loc	2 1132 69                       # C:/Vega/rv32m1_sdk_riscv/rtos/freertos_9.0.0/Source/tasks.c:1132:69
	j	.LBB3_16
.LBB3_16:                               # %for.cond
                                        # =>This Inner Loop Header: Depth=1
.Ltmp103:
	.loc	2 1132 69                       # C:/Vega/rv32m1_sdk_riscv/rtos/freertos_9.0.0/Source/tasks.c:1132:69
	j	.LBB3_16
.Ltmp104:
.LBB3_17:                               # %if.end23
	.loc	2 1133 5 is_stmt 1              # C:/Vega/rv32m1_sdk_riscv/rtos/freertos_9.0.0/Source/tasks.c:1133:5
	call	portYIELD
	.loc	2 1134 4                        # C:/Vega/rv32m1_sdk_riscv/rtos/freertos_9.0.0/Source/tasks.c:1134:4
	j	.LBB3_19
.Ltmp105:
.LBB3_18:                               # %if.else24
	.loc	2 0 4 is_stmt 0                 # C:/Vega/rv32m1_sdk_riscv/rtos/freertos_9.0.0/Source/tasks.c:0:4
	j	.LBB3_19
.LBB3_19:                               # %if.end25
	.loc	2 1139 3 is_stmt 1              # C:/Vega/rv32m1_sdk_riscv/rtos/freertos_9.0.0/Source/tasks.c:1139:3
	j	.LBB3_20
.Ltmp106:
.LBB3_20:                               # %if.end26
	.loc	2 1140 2                        # C:/Vega/rv32m1_sdk_riscv/rtos/freertos_9.0.0/Source/tasks.c:1140:2
	lw	s0, 24(sp)
	lw	ra, 28(sp)
	addi	sp, sp, 32
	ret
.Ltmp107:
.Lfunc_end3:
	.size	vTaskDelete, .Lfunc_end3-vTaskDelete
	.cfi_endproc
                                        # -- End function
	.section	.text.prvDeleteTCB,"ax",@progbits
	.p2align	2                               # -- Begin function prvDeleteTCB
	.type	prvDeleteTCB,@function
prvDeleteTCB:                           # @prvDeleteTCB
.Lfunc_begin4:
	.loc	2 3589 0                        # C:/Vega/rv32m1_sdk_riscv/rtos/freertos_9.0.0/Source/tasks.c:3589:0
	.cfi_startproc
# %bb.0:                                # %entry
	addi	sp, sp, -16
	.cfi_def_cfa_offset 16
	sw	ra, 12(sp)
	sw	s0, 8(sp)
	.cfi_offset ra, -4
	.cfi_offset s0, -8
	addi	s0, sp, 16
	.cfi_def_cfa s0, 0
	sw	a0, -12(s0)
.Ltmp108:
	.loc	2 3593 12 prologue_end          # C:/Vega/rv32m1_sdk_riscv/rtos/freertos_9.0.0/Source/tasks.c:3593:12
	lw	a0, -12(s0)
.Ltmp109:
	.loc	2 3607 22                       # C:/Vega/rv32m1_sdk_riscv/rtos/freertos_9.0.0/Source/tasks.c:3607:22
	lw	a0, 48(a0)
	.loc	2 3607 4 is_stmt 0              # C:/Vega/rv32m1_sdk_riscv/rtos/freertos_9.0.0/Source/tasks.c:3607:4
	call	vPortFree
	.loc	2 3608 15 is_stmt 1             # C:/Vega/rv32m1_sdk_riscv/rtos/freertos_9.0.0/Source/tasks.c:3608:15
	lw	a0, -12(s0)
	.loc	2 3608 4 is_stmt 0              # C:/Vega/rv32m1_sdk_riscv/rtos/freertos_9.0.0/Source/tasks.c:3608:4
	call	vPortFree
.Ltmp110:
	.loc	2 3637 2 is_stmt 1              # C:/Vega/rv32m1_sdk_riscv/rtos/freertos_9.0.0/Source/tasks.c:3637:2
	lw	s0, 8(sp)
	lw	ra, 12(sp)
	addi	sp, sp, 16
	ret
.Ltmp111:
.Lfunc_end4:
	.size	prvDeleteTCB, .Lfunc_end4-prvDeleteTCB
	.cfi_endproc
                                        # -- End function
	.section	.text.prvResetNextTaskUnblockTime,"ax",@progbits
	.p2align	2                               # -- Begin function prvResetNextTaskUnblockTime
	.type	prvResetNextTaskUnblockTime,@function
prvResetNextTaskUnblockTime:            # @prvResetNextTaskUnblockTime
.Lfunc_begin5:
	.loc	2 3643 0                        # C:/Vega/rv32m1_sdk_riscv/rtos/freertos_9.0.0/Source/tasks.c:3643:0
	.cfi_startproc
# %bb.0:                                # %entry
	addi	sp, sp, -16
	.cfi_def_cfa_offset 16
.Ltmp112:
	.loc	2 3646 27 prologue_end          # C:/Vega/rv32m1_sdk_riscv/rtos/freertos_9.0.0/Source/tasks.c:3646:27
	sw	ra, 12(sp)
	sw	s0, 8(sp)
	.cfi_offset ra, -4
	.cfi_offset s0, -8
	addi	s0, sp, 16
	.cfi_def_cfa s0, 0
	lui	a0, %hi(pxDelayedTaskList)
	lw	a0, %lo(pxDelayedTaskList)(a0)
	.loc	2 3646 48 is_stmt 0             # C:/Vega/rv32m1_sdk_riscv/rtos/freertos_9.0.0/Source/tasks.c:3646:48
	lw	a0, 0(a0)
	mv	a1, zero
.Ltmp113:
	.loc	2 3646 6                        # C:/Vega/rv32m1_sdk_riscv/rtos/freertos_9.0.0/Source/tasks.c:3646:6
	bne	a0, a1, .LBB5_2
	j	.LBB5_1
.LBB5_1:                                # %if.then
.Ltmp114:
	.loc	2 3652 24 is_stmt 1             # C:/Vega/rv32m1_sdk_riscv/rtos/freertos_9.0.0/Source/tasks.c:3652:24
	lui	a0, %hi(xNextTaskUnblockTime)
	addi	a1, zero, -1
	sw	a1, %lo(xNextTaskUnblockTime)(a0)
	.loc	2 3653 2                        # C:/Vega/rv32m1_sdk_riscv/rtos/freertos_9.0.0/Source/tasks.c:3653:2
	j	.LBB5_3
.Ltmp115:
.LBB5_2:                                # %if.else
	.loc	2 3660 35                       # C:/Vega/rv32m1_sdk_riscv/rtos/freertos_9.0.0/Source/tasks.c:3660:35
	lui	a0, %hi(pxDelayedTaskList)
	lw	a0, %lo(pxDelayedTaskList)(a0)
	.loc	2 3660 69 is_stmt 0             # C:/Vega/rv32m1_sdk_riscv/rtos/freertos_9.0.0/Source/tasks.c:3660:69
	lw	a0, 12(a0)
	.loc	2 3660 77                       # C:/Vega/rv32m1_sdk_riscv/rtos/freertos_9.0.0/Source/tasks.c:3660:77
	lw	a0, 12(a0)
	.loc	2 3660 13                       # C:/Vega/rv32m1_sdk_riscv/rtos/freertos_9.0.0/Source/tasks.c:3660:13
	sw	a0, -12(s0)
	.loc	2 3661 35 is_stmt 1             # C:/Vega/rv32m1_sdk_riscv/rtos/freertos_9.0.0/Source/tasks.c:3661:35
	lw	a0, -12(s0)
	.loc	2 3661 64 is_stmt 0             # C:/Vega/rv32m1_sdk_riscv/rtos/freertos_9.0.0/Source/tasks.c:3661:64
	lw	a0, 4(a0)
	.loc	2 3661 24                       # C:/Vega/rv32m1_sdk_riscv/rtos/freertos_9.0.0/Source/tasks.c:3661:24
	lui	a1, %hi(xNextTaskUnblockTime)
	sw	a0, %lo(xNextTaskUnblockTime)(a1)
	j	.LBB5_3
.Ltmp116:
.LBB5_3:                                # %if.end
	.loc	2 3663 1 is_stmt 1              # C:/Vega/rv32m1_sdk_riscv/rtos/freertos_9.0.0/Source/tasks.c:3663:1
	lw	s0, 8(sp)
	lw	ra, 12(sp)
	addi	sp, sp, 16
	ret
.Ltmp117:
.Lfunc_end5:
	.size	prvResetNextTaskUnblockTime, .Lfunc_end5-prvResetNextTaskUnblockTime
	.cfi_endproc
                                        # -- End function
	.section	.text.vTaskDelayUntil,"ax",@progbits
	.globl	vTaskDelayUntil                 # -- Begin function vTaskDelayUntil
	.p2align	2
	.type	vTaskDelayUntil,@function
vTaskDelayUntil:                        # @vTaskDelayUntil
.Lfunc_begin6:
	.loc	2 1148 0                        # C:/Vega/rv32m1_sdk_riscv/rtos/freertos_9.0.0/Source/tasks.c:1148:0
	.cfi_startproc
# %bb.0:                                # %entry
	addi	sp, sp, -32
	.cfi_def_cfa_offset 32
	sw	ra, 28(sp)
	sw	s0, 24(sp)
	.cfi_offset ra, -4
	.cfi_offset s0, -8
	addi	s0, sp, 32
	.cfi_def_cfa s0, 0
	sw	a0, -12(s0)
	sw	a1, -16(s0)
	mv	a0, zero
.Ltmp118:
	.loc	2 1150 30 prologue_end          # C:/Vega/rv32m1_sdk_riscv/rtos/freertos_9.0.0/Source/tasks.c:1150:30
	sw	a0, -28(s0)
.Ltmp119:
	.loc	2 1152 8                        # C:/Vega/rv32m1_sdk_riscv/rtos/freertos_9.0.0/Source/tasks.c:1152:8
	lw	a1, -12(s0)
.Ltmp120:
	.loc	2 1152 6 is_stmt 0              # C:/Vega/rv32m1_sdk_riscv/rtos/freertos_9.0.0/Source/tasks.c:1152:6
	bne	a1, a0, .LBB6_3
	j	.LBB6_1
.LBB6_1:                                # %if.then
.Ltmp121:
	.loc	2 1152 35                       # C:/Vega/rv32m1_sdk_riscv/rtos/freertos_9.0.0/Source/tasks.c:1152:35
	call	vPortSetInterruptMask
	.loc	2 1152 60                       # C:/Vega/rv32m1_sdk_riscv/rtos/freertos_9.0.0/Source/tasks.c:1152:60
	j	.LBB6_2
.LBB6_2:                                # %for.cond
                                        # =>This Inner Loop Header: Depth=1
.Ltmp122:
	.loc	2 1152 60                       # C:/Vega/rv32m1_sdk_riscv/rtos/freertos_9.0.0/Source/tasks.c:1152:60
	j	.LBB6_2
.Ltmp123:
.LBB6_3:                                # %if.end
	.loc	2 1153 10 is_stmt 1             # C:/Vega/rv32m1_sdk_riscv/rtos/freertos_9.0.0/Source/tasks.c:1153:10
	lw	a0, -16(s0)
	mv	a1, zero
.Ltmp124:
	.loc	2 1153 6 is_stmt 0              # C:/Vega/rv32m1_sdk_riscv/rtos/freertos_9.0.0/Source/tasks.c:1153:6
	bne	a0, a1, .LBB6_6
	j	.LBB6_4
.LBB6_4:                                # %if.then4
.Ltmp125:
	.loc	2 1153 40                       # C:/Vega/rv32m1_sdk_riscv/rtos/freertos_9.0.0/Source/tasks.c:1153:40
	call	vPortSetInterruptMask
	.loc	2 1153 65                       # C:/Vega/rv32m1_sdk_riscv/rtos/freertos_9.0.0/Source/tasks.c:1153:65
	j	.LBB6_5
.LBB6_5:                                # %for.cond6
                                        # =>This Inner Loop Header: Depth=1
.Ltmp126:
	.loc	2 1153 65                       # C:/Vega/rv32m1_sdk_riscv/rtos/freertos_9.0.0/Source/tasks.c:1153:65
	j	.LBB6_5
.Ltmp127:
.LBB6_6:                                # %if.end7
	.loc	2 1154 8 is_stmt 1              # C:/Vega/rv32m1_sdk_riscv/rtos/freertos_9.0.0/Source/tasks.c:1154:8
	lui	a0, %hi(uxSchedulerSuspended)
	lw	a0, %lo(uxSchedulerSuspended)(a0)
	mv	a1, zero
.Ltmp128:
	.loc	2 1154 6 is_stmt 0              # C:/Vega/rv32m1_sdk_riscv/rtos/freertos_9.0.0/Source/tasks.c:1154:6
	beq	a0, a1, .LBB6_9
	j	.LBB6_7
.LBB6_7:                                # %if.then12
.Ltmp129:
	.loc	2 1154 42                       # C:/Vega/rv32m1_sdk_riscv/rtos/freertos_9.0.0/Source/tasks.c:1154:42
	call	vPortSetInterruptMask
	.loc	2 1154 67                       # C:/Vega/rv32m1_sdk_riscv/rtos/freertos_9.0.0/Source/tasks.c:1154:67
	j	.LBB6_8
.LBB6_8:                                # %for.cond14
                                        # =>This Inner Loop Header: Depth=1
.Ltmp130:
	.loc	2 1154 67                       # C:/Vega/rv32m1_sdk_riscv/rtos/freertos_9.0.0/Source/tasks.c:1154:67
	j	.LBB6_8
.Ltmp131:
.LBB6_9:                                # %if.end15
	.loc	2 1156 3 is_stmt 1              # C:/Vega/rv32m1_sdk_riscv/rtos/freertos_9.0.0/Source/tasks.c:1156:3
	call	vTaskSuspendAll
.Ltmp132:
	.loc	2 1160 39                       # C:/Vega/rv32m1_sdk_riscv/rtos/freertos_9.0.0/Source/tasks.c:1160:39
	lui	a0, %hi(xTickCount)
	lw	a0, %lo(xTickCount)(a0)
	.loc	2 1160 21 is_stmt 0             # C:/Vega/rv32m1_sdk_riscv/rtos/freertos_9.0.0/Source/tasks.c:1160:21
	sw	a0, -32(s0)
	.loc	2 1163 19 is_stmt 1             # C:/Vega/rv32m1_sdk_riscv/rtos/freertos_9.0.0/Source/tasks.c:1163:19
	lw	a0, -12(s0)
	.loc	2 1163 18 is_stmt 0             # C:/Vega/rv32m1_sdk_riscv/rtos/freertos_9.0.0/Source/tasks.c:1163:18
	lw	a0, 0(a0)
	.loc	2 1163 40                       # C:/Vega/rv32m1_sdk_riscv/rtos/freertos_9.0.0/Source/tasks.c:1163:40
	lw	a1, -16(s0)
	.loc	2 1163 38                       # C:/Vega/rv32m1_sdk_riscv/rtos/freertos_9.0.0/Source/tasks.c:1163:38
	add	a0, a0, a1
	.loc	2 1163 16                       # C:/Vega/rv32m1_sdk_riscv/rtos/freertos_9.0.0/Source/tasks.c:1163:16
	sw	a0, -20(s0)
.Ltmp133:
	.loc	2 1165 8 is_stmt 1              # C:/Vega/rv32m1_sdk_riscv/rtos/freertos_9.0.0/Source/tasks.c:1165:8
	lw	a0, -32(s0)
	.loc	2 1165 27 is_stmt 0             # C:/Vega/rv32m1_sdk_riscv/rtos/freertos_9.0.0/Source/tasks.c:1165:27
	lw	a1, -12(s0)
	.loc	2 1165 26                       # C:/Vega/rv32m1_sdk_riscv/rtos/freertos_9.0.0/Source/tasks.c:1165:26
	lw	a1, 0(a1)
.Ltmp134:
	.loc	2 1165 8                        # C:/Vega/rv32m1_sdk_riscv/rtos/freertos_9.0.0/Source/tasks.c:1165:8
	bgeu	a0, a1, .LBB6_15
	j	.LBB6_10
.LBB6_10:                               # %if.then18
.Ltmp135:
	.loc	2 1172 11 is_stmt 1             # C:/Vega/rv32m1_sdk_riscv/rtos/freertos_9.0.0/Source/tasks.c:1172:11
	lw	a0, -20(s0)
	.loc	2 1172 26 is_stmt 0             # C:/Vega/rv32m1_sdk_riscv/rtos/freertos_9.0.0/Source/tasks.c:1172:26
	lw	a1, -12(s0)
	.loc	2 1172 25                       # C:/Vega/rv32m1_sdk_riscv/rtos/freertos_9.0.0/Source/tasks.c:1172:25
	lw	a1, 0(a1)
	.loc	2 1172 47                       # C:/Vega/rv32m1_sdk_riscv/rtos/freertos_9.0.0/Source/tasks.c:1172:47
	bgeu	a0, a1, .LBB6_13
	j	.LBB6_11
.LBB6_11:                               # %land.lhs.true
	.loc	2 1172 52                       # C:/Vega/rv32m1_sdk_riscv/rtos/freertos_9.0.0/Source/tasks.c:1172:52
	lw	a0, -20(s0)
	.loc	2 1172 66                       # C:/Vega/rv32m1_sdk_riscv/rtos/freertos_9.0.0/Source/tasks.c:1172:66
	lw	a1, -32(s0)
.Ltmp136:
	.loc	2 1172 9                        # C:/Vega/rv32m1_sdk_riscv/rtos/freertos_9.0.0/Source/tasks.c:1172:9
	bgeu	a1, a0, .LBB6_13
	j	.LBB6_12
.LBB6_12:                               # %if.then23
	.loc	2 0 9                           # C:/Vega/rv32m1_sdk_riscv/rtos/freertos_9.0.0/Source/tasks.c:0:9
	addi	a0, zero, 1
.Ltmp137:
	.loc	2 1174 19 is_stmt 1             # C:/Vega/rv32m1_sdk_riscv/rtos/freertos_9.0.0/Source/tasks.c:1174:19
	sw	a0, -28(s0)
	.loc	2 1175 5                        # C:/Vega/rv32m1_sdk_riscv/rtos/freertos_9.0.0/Source/tasks.c:1175:5
	j	.LBB6_14
.Ltmp138:
.LBB6_13:                               # %if.else
	.loc	2 0 5 is_stmt 0                 # C:/Vega/rv32m1_sdk_riscv/rtos/freertos_9.0.0/Source/tasks.c:0:5
	j	.LBB6_14
.LBB6_14:                               # %if.end24
	.loc	2 1180 4 is_stmt 1              # C:/Vega/rv32m1_sdk_riscv/rtos/freertos_9.0.0/Source/tasks.c:1180:4
	j	.LBB6_20
.Ltmp139:
.LBB6_15:                               # %if.else25
	.loc	2 1186 11                       # C:/Vega/rv32m1_sdk_riscv/rtos/freertos_9.0.0/Source/tasks.c:1186:11
	lw	a0, -20(s0)
	.loc	2 1186 26 is_stmt 0             # C:/Vega/rv32m1_sdk_riscv/rtos/freertos_9.0.0/Source/tasks.c:1186:26
	lw	a1, -12(s0)
	.loc	2 1186 25                       # C:/Vega/rv32m1_sdk_riscv/rtos/freertos_9.0.0/Source/tasks.c:1186:25
	lw	a1, 0(a1)
	.loc	2 1186 47                       # C:/Vega/rv32m1_sdk_riscv/rtos/freertos_9.0.0/Source/tasks.c:1186:47
	bltu	a0, a1, .LBB6_17
	j	.LBB6_16
.LBB6_16:                               # %lor.lhs.false
	.loc	2 1186 52                       # C:/Vega/rv32m1_sdk_riscv/rtos/freertos_9.0.0/Source/tasks.c:1186:52
	lw	a0, -20(s0)
	.loc	2 1186 66                       # C:/Vega/rv32m1_sdk_riscv/rtos/freertos_9.0.0/Source/tasks.c:1186:66
	lw	a1, -32(s0)
.Ltmp140:
	.loc	2 1186 9                        # C:/Vega/rv32m1_sdk_riscv/rtos/freertos_9.0.0/Source/tasks.c:1186:9
	bgeu	a1, a0, .LBB6_18
	j	.LBB6_17
.LBB6_17:                               # %if.then30
	.loc	2 0 9                           # C:/Vega/rv32m1_sdk_riscv/rtos/freertos_9.0.0/Source/tasks.c:0:9
	addi	a0, zero, 1
.Ltmp141:
	.loc	2 1188 19 is_stmt 1             # C:/Vega/rv32m1_sdk_riscv/rtos/freertos_9.0.0/Source/tasks.c:1188:19
	sw	a0, -28(s0)
	.loc	2 1189 5                        # C:/Vega/rv32m1_sdk_riscv/rtos/freertos_9.0.0/Source/tasks.c:1189:5
	j	.LBB6_19
.Ltmp142:
.LBB6_18:                               # %if.else31
	.loc	2 0 5 is_stmt 0                 # C:/Vega/rv32m1_sdk_riscv/rtos/freertos_9.0.0/Source/tasks.c:0:5
	j	.LBB6_19
.LBB6_19:                               # %if.end32
	j	.LBB6_20
.LBB6_20:                               # %if.end33
	.loc	2 1197 26 is_stmt 1             # C:/Vega/rv32m1_sdk_riscv/rtos/freertos_9.0.0/Source/tasks.c:1197:26
	lw	a0, -20(s0)
	.loc	2 1197 5 is_stmt 0              # C:/Vega/rv32m1_sdk_riscv/rtos/freertos_9.0.0/Source/tasks.c:1197:5
	lw	a1, -12(s0)
	.loc	2 1197 24                       # C:/Vega/rv32m1_sdk_riscv/rtos/freertos_9.0.0/Source/tasks.c:1197:24
	sw	a0, 0(a1)
.Ltmp143:
	.loc	2 1199 8 is_stmt 1              # C:/Vega/rv32m1_sdk_riscv/rtos/freertos_9.0.0/Source/tasks.c:1199:8
	lw	a0, -28(s0)
	mv	a1, zero
.Ltmp144:
	.loc	2 1199 8 is_stmt 0              # C:/Vega/rv32m1_sdk_riscv/rtos/freertos_9.0.0/Source/tasks.c:1199:8
	beq	a0, a1, .LBB6_22
	j	.LBB6_21
.LBB6_21:                               # %if.then36
.Ltmp145:
	.loc	2 1205 37 is_stmt 1             # C:/Vega/rv32m1_sdk_riscv/rtos/freertos_9.0.0/Source/tasks.c:1205:37
	lw	a0, -20(s0)
	.loc	2 1205 51 is_stmt 0             # C:/Vega/rv32m1_sdk_riscv/rtos/freertos_9.0.0/Source/tasks.c:1205:51
	lw	a1, -32(s0)
	.loc	2 1205 49                       # C:/Vega/rv32m1_sdk_riscv/rtos/freertos_9.0.0/Source/tasks.c:1205:49
	sub	a0, a0, a1
	mv	a1, zero
	.loc	2 1205 5                        # C:/Vega/rv32m1_sdk_riscv/rtos/freertos_9.0.0/Source/tasks.c:1205:5
	call	prvAddCurrentTaskToDelayedList
	.loc	2 1206 4 is_stmt 1              # C:/Vega/rv32m1_sdk_riscv/rtos/freertos_9.0.0/Source/tasks.c:1206:4
	j	.LBB6_23
.Ltmp146:
.LBB6_22:                               # %if.else37
	.loc	2 0 4 is_stmt 0                 # C:/Vega/rv32m1_sdk_riscv/rtos/freertos_9.0.0/Source/tasks.c:0:4
	j	.LBB6_23
.LBB6_23:                               # %if.end38
	.loc	2 1212 21 is_stmt 1             # C:/Vega/rv32m1_sdk_riscv/rtos/freertos_9.0.0/Source/tasks.c:1212:21
	call	xTaskResumeAll
	.loc	2 1212 19 is_stmt 0             # C:/Vega/rv32m1_sdk_riscv/rtos/freertos_9.0.0/Source/tasks.c:1212:19
	sw	a0, -24(s0)
.Ltmp147:
	.loc	2 1216 7 is_stmt 1              # C:/Vega/rv32m1_sdk_riscv/rtos/freertos_9.0.0/Source/tasks.c:1216:7
	lw	a0, -24(s0)
	mv	a1, zero
.Ltmp148:
	.loc	2 1216 7 is_stmt 0              # C:/Vega/rv32m1_sdk_riscv/rtos/freertos_9.0.0/Source/tasks.c:1216:7
	bne	a0, a1, .LBB6_25
	j	.LBB6_24
.LBB6_24:                               # %if.then42
.Ltmp149:
	.loc	2 1218 4 is_stmt 1              # C:/Vega/rv32m1_sdk_riscv/rtos/freertos_9.0.0/Source/tasks.c:1218:4
	call	portYIELD
	.loc	2 1219 3                        # C:/Vega/rv32m1_sdk_riscv/rtos/freertos_9.0.0/Source/tasks.c:1219:3
	j	.LBB6_26
.Ltmp150:
.LBB6_25:                               # %if.else43
	.loc	2 0 3 is_stmt 0                 # C:/Vega/rv32m1_sdk_riscv/rtos/freertos_9.0.0/Source/tasks.c:0:3
	j	.LBB6_26
.LBB6_26:                               # %if.end44
	.loc	2 1224 2 is_stmt 1              # C:/Vega/rv32m1_sdk_riscv/rtos/freertos_9.0.0/Source/tasks.c:1224:2
	lw	s0, 24(sp)
	lw	ra, 28(sp)
	addi	sp, sp, 32
	ret
.Ltmp151:
.Lfunc_end6:
	.size	vTaskDelayUntil, .Lfunc_end6-vTaskDelayUntil
	.cfi_endproc
                                        # -- End function
	.section	.text.vTaskSuspendAll,"ax",@progbits
	.globl	vTaskSuspendAll                 # -- Begin function vTaskSuspendAll
	.p2align	2
	.type	vTaskSuspendAll,@function
vTaskSuspendAll:                        # @vTaskSuspendAll
.Lfunc_begin7:
	.loc	2 1952 0                        # C:/Vega/rv32m1_sdk_riscv/rtos/freertos_9.0.0/Source/tasks.c:1952:0
	.cfi_startproc
# %bb.0:                                # %entry
	addi	sp, sp, -16
	.cfi_def_cfa_offset 16
.Ltmp152:
	.loc	2 1957 2 prologue_end           # C:/Vega/rv32m1_sdk_riscv/rtos/freertos_9.0.0/Source/tasks.c:1957:2
	sw	ra, 12(sp)
	sw	s0, 8(sp)
	.cfi_offset ra, -4
	.cfi_offset s0, -8
	addi	s0, sp, 16
	.cfi_def_cfa s0, 0
	lui	a0, %hi(uxSchedulerSuspended)
	lw	a1, %lo(uxSchedulerSuspended)(a0)
	addi	a1, a1, 1
	sw	a1, %lo(uxSchedulerSuspended)(a0)
	.loc	2 1958 1                        # C:/Vega/rv32m1_sdk_riscv/rtos/freertos_9.0.0/Source/tasks.c:1958:1
	lw	s0, 8(sp)
	lw	ra, 12(sp)
	addi	sp, sp, 16
	ret
.Ltmp153:
.Lfunc_end7:
	.size	vTaskSuspendAll, .Lfunc_end7-vTaskSuspendAll
	.cfi_endproc
                                        # -- End function
	.section	.text.prvAddCurrentTaskToDelayedList,"ax",@progbits
	.p2align	2                               # -- Begin function prvAddCurrentTaskToDelayedList
	.type	prvAddCurrentTaskToDelayedList,@function
prvAddCurrentTaskToDelayedList:         # @prvAddCurrentTaskToDelayedList
.Lfunc_begin8:
	.loc	2 4700 0                        # C:/Vega/rv32m1_sdk_riscv/rtos/freertos_9.0.0/Source/tasks.c:4700:0
	.cfi_startproc
# %bb.0:                                # %entry
	addi	sp, sp, -32
	.cfi_def_cfa_offset 32
	sw	ra, 28(sp)
	sw	s0, 24(sp)
	.cfi_offset ra, -4
	.cfi_offset s0, -8
	addi	s0, sp, 32
	.cfi_def_cfa s0, 0
	sw	a0, -12(s0)
	sw	a1, -16(s0)
.Ltmp154:
	.loc	2 4702 36 prologue_end          # C:/Vega/rv32m1_sdk_riscv/rtos/freertos_9.0.0/Source/tasks.c:4702:36
	lui	a0, %hi(xTickCount)
	lw	a0, %lo(xTickCount)(a0)
	.loc	2 4702 18 is_stmt 0             # C:/Vega/rv32m1_sdk_riscv/rtos/freertos_9.0.0/Source/tasks.c:4702:18
	sw	a0, -24(s0)
.Ltmp155:
	.loc	2 4715 23 is_stmt 1             # C:/Vega/rv32m1_sdk_riscv/rtos/freertos_9.0.0/Source/tasks.c:4715:23
	lui	a0, %hi(pxCurrentTCB)
	lw	a0, %lo(pxCurrentTCB)(a0)
	.loc	2 4715 37 is_stmt 0             # C:/Vega/rv32m1_sdk_riscv/rtos/freertos_9.0.0/Source/tasks.c:4715:37
	addi	a0, a0, 4
	.loc	2 4715 6                        # C:/Vega/rv32m1_sdk_riscv/rtos/freertos_9.0.0/Source/tasks.c:4715:6
	call	uxListRemove
	mv	a1, zero
.Ltmp156:
	.loc	2 4715 6                        # C:/Vega/rv32m1_sdk_riscv/rtos/freertos_9.0.0/Source/tasks.c:4715:6
	bne	a0, a1, .LBB8_2
	j	.LBB8_1
.LBB8_1:                                # %if.then
.Ltmp157:
	.loc	2 4720 2 is_stmt 1              # C:/Vega/rv32m1_sdk_riscv/rtos/freertos_9.0.0/Source/tasks.c:4720:2
	j	.LBB8_3
.Ltmp158:
.LBB8_2:                                # %if.else
	.loc	2 0 2 is_stmt 0                 # C:/Vega/rv32m1_sdk_riscv/rtos/freertos_9.0.0/Source/tasks.c:0:2
	j	.LBB8_3
.LBB8_3:                                # %if.end
.Ltmp159:
	.loc	2 4728 9 is_stmt 1              # C:/Vega/rv32m1_sdk_riscv/rtos/freertos_9.0.0/Source/tasks.c:4728:9
	lw	a0, -12(s0)
	addi	a1, zero, -1
	.loc	2 4728 55 is_stmt 0             # C:/Vega/rv32m1_sdk_riscv/rtos/freertos_9.0.0/Source/tasks.c:4728:55
	bne	a0, a1, .LBB8_6
	j	.LBB8_4
.LBB8_4:                                # %land.lhs.true
	.loc	2 4728 60                       # C:/Vega/rv32m1_sdk_riscv/rtos/freertos_9.0.0/Source/tasks.c:4728:60
	lw	a0, -16(s0)
	mv	a1, zero
.Ltmp160:
	.loc	2 4728 7                        # C:/Vega/rv32m1_sdk_riscv/rtos/freertos_9.0.0/Source/tasks.c:4728:7
	beq	a0, a1, .LBB8_6
	j	.LBB8_5
.LBB8_5:                                # %if.then3
.Ltmp161:
	.loc	2 4733 44 is_stmt 1             # C:/Vega/rv32m1_sdk_riscv/rtos/freertos_9.0.0/Source/tasks.c:4733:44
	lui	a0, %hi(pxCurrentTCB)
	lw	a0, %lo(pxCurrentTCB)(a0)
	.loc	2 4733 58 is_stmt 0             # C:/Vega/rv32m1_sdk_riscv/rtos/freertos_9.0.0/Source/tasks.c:4733:58
	addi	a1, a0, 4
	.loc	2 4733 4                        # C:/Vega/rv32m1_sdk_riscv/rtos/freertos_9.0.0/Source/tasks.c:4733:4
	lui	a0, %hi(xSuspendedTaskList)
	addi	a0, a0, %lo(xSuspendedTaskList)
	call	vListInsertEnd
	.loc	2 4734 3 is_stmt 1              # C:/Vega/rv32m1_sdk_riscv/rtos/freertos_9.0.0/Source/tasks.c:4734:3
	j	.LBB8_13
.Ltmp162:
.LBB8_6:                                # %if.else5
	.loc	2 4740 18                       # C:/Vega/rv32m1_sdk_riscv/rtos/freertos_9.0.0/Source/tasks.c:4740:18
	lw	a0, -24(s0)
	.loc	2 4740 36 is_stmt 0             # C:/Vega/rv32m1_sdk_riscv/rtos/freertos_9.0.0/Source/tasks.c:4740:36
	lw	a1, -12(s0)
	.loc	2 4740 34                       # C:/Vega/rv32m1_sdk_riscv/rtos/freertos_9.0.0/Source/tasks.c:4740:34
	add	a0, a0, a1
	.loc	2 4740 16                       # C:/Vega/rv32m1_sdk_riscv/rtos/freertos_9.0.0/Source/tasks.c:4740:16
	sw	a0, -20(s0)
	.loc	2 4743 60 is_stmt 1             # C:/Vega/rv32m1_sdk_riscv/rtos/freertos_9.0.0/Source/tasks.c:4743:60
	lw	a0, -20(s0)
	.loc	2 4743 11 is_stmt 0             # C:/Vega/rv32m1_sdk_riscv/rtos/freertos_9.0.0/Source/tasks.c:4743:11
	lui	a1, %hi(pxCurrentTCB)
	lw	a1, %lo(pxCurrentTCB)(a1)
	.loc	2 4743 56                       # C:/Vega/rv32m1_sdk_riscv/rtos/freertos_9.0.0/Source/tasks.c:4743:56
	sw	a0, 4(a1)
.Ltmp163:
	.loc	2 4745 8 is_stmt 1              # C:/Vega/rv32m1_sdk_riscv/rtos/freertos_9.0.0/Source/tasks.c:4745:8
	lw	a0, -20(s0)
	.loc	2 4745 22 is_stmt 0             # C:/Vega/rv32m1_sdk_riscv/rtos/freertos_9.0.0/Source/tasks.c:4745:22
	lw	a1, -24(s0)
.Ltmp164:
	.loc	2 4745 8                        # C:/Vega/rv32m1_sdk_riscv/rtos/freertos_9.0.0/Source/tasks.c:4745:8
	bgeu	a0, a1, .LBB8_8
	j	.LBB8_7
.LBB8_7:                                # %if.then8
.Ltmp165:
	.loc	2 4749 18 is_stmt 1             # C:/Vega/rv32m1_sdk_riscv/rtos/freertos_9.0.0/Source/tasks.c:4749:18
	lui	a0, %hi(pxOverflowDelayedTaskList)
	lw	a0, %lo(pxOverflowDelayedTaskList)(a0)
	.loc	2 4749 48 is_stmt 0             # C:/Vega/rv32m1_sdk_riscv/rtos/freertos_9.0.0/Source/tasks.c:4749:48
	lui	a1, %hi(pxCurrentTCB)
	lw	a1, %lo(pxCurrentTCB)(a1)
	.loc	2 4749 62                       # C:/Vega/rv32m1_sdk_riscv/rtos/freertos_9.0.0/Source/tasks.c:4749:62
	addi	a1, a1, 4
	.loc	2 4749 5                        # C:/Vega/rv32m1_sdk_riscv/rtos/freertos_9.0.0/Source/tasks.c:4749:5
	call	vListInsert
	.loc	2 4750 4 is_stmt 1              # C:/Vega/rv32m1_sdk_riscv/rtos/freertos_9.0.0/Source/tasks.c:4750:4
	j	.LBB8_12
.Ltmp166:
.LBB8_8:                                # %if.else10
	.loc	2 4755 18                       # C:/Vega/rv32m1_sdk_riscv/rtos/freertos_9.0.0/Source/tasks.c:4755:18
	lui	a0, %hi(pxDelayedTaskList)
	lw	a0, %lo(pxDelayedTaskList)(a0)
	.loc	2 4755 40 is_stmt 0             # C:/Vega/rv32m1_sdk_riscv/rtos/freertos_9.0.0/Source/tasks.c:4755:40
	lui	a1, %hi(pxCurrentTCB)
	lw	a1, %lo(pxCurrentTCB)(a1)
	.loc	2 4755 54                       # C:/Vega/rv32m1_sdk_riscv/rtos/freertos_9.0.0/Source/tasks.c:4755:54
	addi	a1, a1, 4
	.loc	2 4755 5                        # C:/Vega/rv32m1_sdk_riscv/rtos/freertos_9.0.0/Source/tasks.c:4755:5
	call	vListInsert
.Ltmp167:
	.loc	2 4760 9 is_stmt 1              # C:/Vega/rv32m1_sdk_riscv/rtos/freertos_9.0.0/Source/tasks.c:4760:9
	lw	a0, -20(s0)
	.loc	2 4760 23 is_stmt 0             # C:/Vega/rv32m1_sdk_riscv/rtos/freertos_9.0.0/Source/tasks.c:4760:23
	lui	a1, %hi(xNextTaskUnblockTime)
	lw	a1, %lo(xNextTaskUnblockTime)(a1)
.Ltmp168:
	.loc	2 4760 9                        # C:/Vega/rv32m1_sdk_riscv/rtos/freertos_9.0.0/Source/tasks.c:4760:9
	bgeu	a0, a1, .LBB8_10
	j	.LBB8_9
.LBB8_9:                                # %if.then13
.Ltmp169:
	.loc	2 4762 29 is_stmt 1             # C:/Vega/rv32m1_sdk_riscv/rtos/freertos_9.0.0/Source/tasks.c:4762:29
	lw	a0, -20(s0)
	.loc	2 4762 27 is_stmt 0             # C:/Vega/rv32m1_sdk_riscv/rtos/freertos_9.0.0/Source/tasks.c:4762:27
	lui	a1, %hi(xNextTaskUnblockTime)
	sw	a0, %lo(xNextTaskUnblockTime)(a1)
	.loc	2 4763 5 is_stmt 1              # C:/Vega/rv32m1_sdk_riscv/rtos/freertos_9.0.0/Source/tasks.c:4763:5
	j	.LBB8_11
.Ltmp170:
.LBB8_10:                               # %if.else14
	.loc	2 0 5 is_stmt 0                 # C:/Vega/rv32m1_sdk_riscv/rtos/freertos_9.0.0/Source/tasks.c:0:5
	j	.LBB8_11
.LBB8_11:                               # %if.end15
	j	.LBB8_12
.LBB8_12:                               # %if.end16
	j	.LBB8_13
.LBB8_13:                               # %if.end17
	.loc	2 4808 1 is_stmt 1              # C:/Vega/rv32m1_sdk_riscv/rtos/freertos_9.0.0/Source/tasks.c:4808:1
	lw	s0, 24(sp)
	lw	ra, 28(sp)
	addi	sp, sp, 32
	ret
.Ltmp171:
.Lfunc_end8:
	.size	prvAddCurrentTaskToDelayedList, .Lfunc_end8-prvAddCurrentTaskToDelayedList
	.cfi_endproc
                                        # -- End function
	.section	.text.xTaskResumeAll,"ax",@progbits
	.globl	xTaskResumeAll                  # -- Begin function xTaskResumeAll
	.p2align	2
	.type	xTaskResumeAll,@function
xTaskResumeAll:                         # @xTaskResumeAll
.Lfunc_begin9:
	.loc	2 2025 0                        # C:/Vega/rv32m1_sdk_riscv/rtos/freertos_9.0.0/Source/tasks.c:2025:0
	.cfi_startproc
# %bb.0:                                # %entry
	addi	sp, sp, -32
	.cfi_def_cfa_offset 32
	sw	ra, 28(sp)
	sw	s0, 24(sp)
	.cfi_offset ra, -4
	.cfi_offset s0, -8
	addi	s0, sp, 32
	.cfi_def_cfa s0, 0
	mv	a0, zero
.Ltmp172:
	.loc	2 2026 8 prologue_end           # C:/Vega/rv32m1_sdk_riscv/rtos/freertos_9.0.0/Source/tasks.c:2026:8
	sw	a0, -12(s0)
	.loc	2 2027 12                       # C:/Vega/rv32m1_sdk_riscv/rtos/freertos_9.0.0/Source/tasks.c:2027:12
	sw	a0, -16(s0)
.Ltmp173:
	.loc	2 2031 7                        # C:/Vega/rv32m1_sdk_riscv/rtos/freertos_9.0.0/Source/tasks.c:2031:7
	lui	a1, %hi(uxSchedulerSuspended)
	lw	a1, %lo(uxSchedulerSuspended)(a1)
.Ltmp174:
	.loc	2 2031 5 is_stmt 0              # C:/Vega/rv32m1_sdk_riscv/rtos/freertos_9.0.0/Source/tasks.c:2031:5
	bne	a1, a0, .LBB9_3
	j	.LBB9_1
.LBB9_1:                                # %if.then
.Ltmp175:
	.loc	2 2031 36                       # C:/Vega/rv32m1_sdk_riscv/rtos/freertos_9.0.0/Source/tasks.c:2031:36
	call	vPortSetInterruptMask
	.loc	2 2031 61                       # C:/Vega/rv32m1_sdk_riscv/rtos/freertos_9.0.0/Source/tasks.c:2031:61
	j	.LBB9_2
.LBB9_2:                                # %for.cond
                                        # =>This Inner Loop Header: Depth=1
.Ltmp176:
	.loc	2 2031 61                       # C:/Vega/rv32m1_sdk_riscv/rtos/freertos_9.0.0/Source/tasks.c:2031:61
	j	.LBB9_2
.Ltmp177:
.LBB9_3:                                # %if.end
	.loc	2 2038 2 is_stmt 1              # C:/Vega/rv32m1_sdk_riscv/rtos/freertos_9.0.0/Source/tasks.c:2038:2
	call	vPortEnterCritical
.Ltmp178:
	.loc	2 2040 3                        # C:/Vega/rv32m1_sdk_riscv/rtos/freertos_9.0.0/Source/tasks.c:2040:3
	lui	a0, %hi(uxSchedulerSuspended)
	lw	a1, %lo(uxSchedulerSuspended)(a0)
	addi	a1, a1, -1
	sw	a1, %lo(uxSchedulerSuspended)(a0)
.Ltmp179:
	.loc	2 2042 7                        # C:/Vega/rv32m1_sdk_riscv/rtos/freertos_9.0.0/Source/tasks.c:2042:7
	lw	a0, %lo(uxSchedulerSuspended)(a0)
	mv	a1, zero
.Ltmp180:
	.loc	2 2042 7 is_stmt 0              # C:/Vega/rv32m1_sdk_riscv/rtos/freertos_9.0.0/Source/tasks.c:2042:7
	bne	a0, a1, .LBB9_29
	j	.LBB9_4
.LBB9_4:                                # %if.then2
.Ltmp181:
	.loc	2 2044 8 is_stmt 1              # C:/Vega/rv32m1_sdk_riscv/rtos/freertos_9.0.0/Source/tasks.c:2044:8
	lui	a0, %hi(uxCurrentNumberOfTasks)
	lw	a0, %lo(uxCurrentNumberOfTasks)(a0)
	mv	a1, zero
.Ltmp182:
	.loc	2 2044 8 is_stmt 0              # C:/Vega/rv32m1_sdk_riscv/rtos/freertos_9.0.0/Source/tasks.c:2044:8
	beq	a0, a1, .LBB9_28
	j	.LBB9_5
.LBB9_5:                                # %if.then4
.Ltmp183:
	.loc	2 2048 5 is_stmt 1              # C:/Vega/rv32m1_sdk_riscv/rtos/freertos_9.0.0/Source/tasks.c:2048:5
	j	.LBB9_6
.LBB9_6:                                # %while.cond
                                        # =>This Inner Loop Header: Depth=1
	.loc	2 2048 55 is_stmt 0             # C:/Vega/rv32m1_sdk_riscv/rtos/freertos_9.0.0/Source/tasks.c:2048:55
	lui	a0, %hi(xPendingReadyList)
	lw	a0, %lo(xPendingReadyList)(a0)
	mv	a1, zero
	.loc	2 2048 5                        # C:/Vega/rv32m1_sdk_riscv/rtos/freertos_9.0.0/Source/tasks.c:2048:5
	beq	a0, a1, .LBB9_13
	j	.LBB9_7
.LBB9_7:                                # %while.body
                                        #   in Loop: Header=BB9_6 Depth=1
	.loc	2 0 5                           # C:/Vega/rv32m1_sdk_riscv/rtos/freertos_9.0.0/Source/tasks.c:0:5
	lui	a0, %hi(xPendingReadyList)
	addi	a0, a0, %lo(xPendingReadyList)
.Ltmp184:
	.loc	2 2050 73 is_stmt 1             # C:/Vega/rv32m1_sdk_riscv/rtos/freertos_9.0.0/Source/tasks.c:2050:73
	lw	a0, 12(a0)
	.loc	2 2050 81 is_stmt 0             # C:/Vega/rv32m1_sdk_riscv/rtos/freertos_9.0.0/Source/tasks.c:2050:81
	lw	a0, 12(a0)
	.loc	2 2050 12                       # C:/Vega/rv32m1_sdk_riscv/rtos/freertos_9.0.0/Source/tasks.c:2050:12
	sw	a0, -12(s0)
	.loc	2 2051 32 is_stmt 1             # C:/Vega/rv32m1_sdk_riscv/rtos/freertos_9.0.0/Source/tasks.c:2051:32
	lw	a0, -12(s0)
	.loc	2 2051 39 is_stmt 0             # C:/Vega/rv32m1_sdk_riscv/rtos/freertos_9.0.0/Source/tasks.c:2051:39
	addi	a0, a0, 24
	.loc	2 2051 15                       # C:/Vega/rv32m1_sdk_riscv/rtos/freertos_9.0.0/Source/tasks.c:2051:15
	call	uxListRemove
	.loc	2 2052 32 is_stmt 1             # C:/Vega/rv32m1_sdk_riscv/rtos/freertos_9.0.0/Source/tasks.c:2052:32
	lw	a1, -12(s0)
	.loc	2 2052 39 is_stmt 0             # C:/Vega/rv32m1_sdk_riscv/rtos/freertos_9.0.0/Source/tasks.c:2052:39
	addi	a1, a1, 4
	.loc	2 2052 15                       # C:/Vega/rv32m1_sdk_riscv/rtos/freertos_9.0.0/Source/tasks.c:2052:15
	sw	a0, -24(s0)
	mv	a0, a1
	call	uxListRemove
.Ltmp185:
	.loc	2 2053 18 is_stmt 1             # C:/Vega/rv32m1_sdk_riscv/rtos/freertos_9.0.0/Source/tasks.c:2053:18
	lw	a1, -12(s0)
	.loc	2 2053 27 is_stmt 0             # C:/Vega/rv32m1_sdk_riscv/rtos/freertos_9.0.0/Source/tasks.c:2053:27
	lw	a1, 44(a1)
	.loc	2 2053 42                       # C:/Vega/rv32m1_sdk_riscv/rtos/freertos_9.0.0/Source/tasks.c:2053:42
	lui	a2, %hi(uxTopReadyPriority)
	lw	a2, %lo(uxTopReadyPriority)(a2)
.Ltmp186:
	.loc	2 2053 14                       # C:/Vega/rv32m1_sdk_riscv/rtos/freertos_9.0.0/Source/tasks.c:2053:14
	bgeu	a2, a1, .LBB9_9
	j	.LBB9_8
.LBB9_8:                                # %if.then12
                                        #   in Loop: Header=BB9_6 Depth=1
.Ltmp187:
	.loc	2 2053 90                       # C:/Vega/rv32m1_sdk_riscv/rtos/freertos_9.0.0/Source/tasks.c:2053:90
	lw	a0, -12(s0)
	.loc	2 2053 99                       # C:/Vega/rv32m1_sdk_riscv/rtos/freertos_9.0.0/Source/tasks.c:2053:99
	lw	a0, 44(a0)
	.loc	2 2053 84                       # C:/Vega/rv32m1_sdk_riscv/rtos/freertos_9.0.0/Source/tasks.c:2053:84
	lui	a1, %hi(uxTopReadyPriority)
	sw	a0, %lo(uxTopReadyPriority)(a1)
	.loc	2 2053 113                      # C:/Vega/rv32m1_sdk_riscv/rtos/freertos_9.0.0/Source/tasks.c:2053:113
	j	.LBB9_9
.Ltmp188:
.LBB9_9:                                # %if.end14
                                        #   in Loop: Header=BB9_6 Depth=1
	.loc	2 2053 158                      # C:/Vega/rv32m1_sdk_riscv/rtos/freertos_9.0.0/Source/tasks.c:2053:158
	lw	a0, -12(s0)
	.loc	2 2053 167                      # C:/Vega/rv32m1_sdk_riscv/rtos/freertos_9.0.0/Source/tasks.c:2053:167
	lw	a1, 44(a0)
	addi	a2, zero, 20
	.loc	2 2053 137                      # C:/Vega/rv32m1_sdk_riscv/rtos/freertos_9.0.0/Source/tasks.c:2053:137
	sw	a0, -28(s0)
	mv	a0, a1
	mv	a1, a2
	call	__mulsi3
	lui	a1, %hi(pxReadyTasksLists)
	addi	a1, a1, %lo(pxReadyTasksLists)
	add	a0, a0, a1
	.loc	2 2053 197                      # C:/Vega/rv32m1_sdk_riscv/rtos/freertos_9.0.0/Source/tasks.c:2053:197
	lw	a1, -28(s0)
	addi	a1, a1, 4
	.loc	2 2053 118                      # C:/Vega/rv32m1_sdk_riscv/rtos/freertos_9.0.0/Source/tasks.c:2053:118
	call	vListInsertEnd
.Ltmp189:
	.loc	2 2057 10 is_stmt 1             # C:/Vega/rv32m1_sdk_riscv/rtos/freertos_9.0.0/Source/tasks.c:2057:10
	lw	a0, -12(s0)
	.loc	2 2057 17 is_stmt 0             # C:/Vega/rv32m1_sdk_riscv/rtos/freertos_9.0.0/Source/tasks.c:2057:17
	lw	a0, 44(a0)
	.loc	2 2057 31                       # C:/Vega/rv32m1_sdk_riscv/rtos/freertos_9.0.0/Source/tasks.c:2057:31
	lui	a1, %hi(pxCurrentTCB)
	lw	a1, %lo(pxCurrentTCB)(a1)
	.loc	2 2057 45                       # C:/Vega/rv32m1_sdk_riscv/rtos/freertos_9.0.0/Source/tasks.c:2057:45
	lw	a1, 44(a1)
.Ltmp190:
	.loc	2 2057 10                       # C:/Vega/rv32m1_sdk_riscv/rtos/freertos_9.0.0/Source/tasks.c:2057:10
	bltu	a0, a1, .LBB9_11
	j	.LBB9_10
.LBB9_10:                               # %if.then21
                                        #   in Loop: Header=BB9_6 Depth=1
.Ltmp191:
	.loc	2 2059 21 is_stmt 1             # C:/Vega/rv32m1_sdk_riscv/rtos/freertos_9.0.0/Source/tasks.c:2059:21
	lui	a0, %hi(xYieldPending)
	addi	a1, zero, 1
	sw	a1, %lo(xYieldPending)(a0)
	.loc	2 2060 6                        # C:/Vega/rv32m1_sdk_riscv/rtos/freertos_9.0.0/Source/tasks.c:2060:6
	j	.LBB9_12
.Ltmp192:
.LBB9_11:                               # %if.else
                                        #   in Loop: Header=BB9_6 Depth=1
	.loc	2 0 6 is_stmt 0                 # C:/Vega/rv32m1_sdk_riscv/rtos/freertos_9.0.0/Source/tasks.c:0:6
	j	.LBB9_12
.LBB9_12:                               # %if.end22
                                        #   in Loop: Header=BB9_6 Depth=1
	.loc	2 2048 5 is_stmt 1              # C:/Vega/rv32m1_sdk_riscv/rtos/freertos_9.0.0/Source/tasks.c:2048:5
	j	.LBB9_6
.LBB9_13:                               # %while.end
.Ltmp193:
	.loc	2 2067 9                        # C:/Vega/rv32m1_sdk_riscv/rtos/freertos_9.0.0/Source/tasks.c:2067:9
	lw	a0, -12(s0)
	mv	a1, zero
.Ltmp194:
	.loc	2 2067 9 is_stmt 0              # C:/Vega/rv32m1_sdk_riscv/rtos/freertos_9.0.0/Source/tasks.c:2067:9
	beq	a0, a1, .LBB9_15
	j	.LBB9_14
.LBB9_14:                               # %if.then25
.Ltmp195:
	.loc	2 2075 6 is_stmt 1              # C:/Vega/rv32m1_sdk_riscv/rtos/freertos_9.0.0/Source/tasks.c:2075:6
	call	prvResetNextTaskUnblockTime
	.loc	2 2076 5                        # C:/Vega/rv32m1_sdk_riscv/rtos/freertos_9.0.0/Source/tasks.c:2076:5
	j	.LBB9_15
.Ltmp196:
.LBB9_15:                               # %if.end26
	.loc	2 2083 35                       # C:/Vega/rv32m1_sdk_riscv/rtos/freertos_9.0.0/Source/tasks.c:2083:35
	lui	a0, %hi(uxPendedTicks)
	lw	a0, %lo(uxPendedTicks)(a0)
	.loc	2 2083 18 is_stmt 0             # C:/Vega/rv32m1_sdk_riscv/rtos/freertos_9.0.0/Source/tasks.c:2083:18
	sw	a0, -20(s0)
.Ltmp197:
	.loc	2 2085 10 is_stmt 1             # C:/Vega/rv32m1_sdk_riscv/rtos/freertos_9.0.0/Source/tasks.c:2085:10
	lw	a0, -20(s0)
	mv	a1, zero
.Ltmp198:
	.loc	2 2085 10 is_stmt 0             # C:/Vega/rv32m1_sdk_riscv/rtos/freertos_9.0.0/Source/tasks.c:2085:10
	beq	a0, a1, .LBB9_23
	j	.LBB9_16
.LBB9_16:                               # %if.then29
.Ltmp199:
	.loc	2 2087 7 is_stmt 1              # C:/Vega/rv32m1_sdk_riscv/rtos/freertos_9.0.0/Source/tasks.c:2087:7
	j	.LBB9_17
.LBB9_17:                               # %do.body
                                        # =>This Inner Loop Header: Depth=1
.Ltmp200:
	.loc	2 2089 12                       # C:/Vega/rv32m1_sdk_riscv/rtos/freertos_9.0.0/Source/tasks.c:2089:12
	call	xTaskIncrementTick
	mv	a1, zero
.Ltmp201:
	.loc	2 2089 12 is_stmt 0             # C:/Vega/rv32m1_sdk_riscv/rtos/freertos_9.0.0/Source/tasks.c:2089:12
	beq	a0, a1, .LBB9_19
	j	.LBB9_18
.LBB9_18:                               # %if.then33
                                        #   in Loop: Header=BB9_17 Depth=1
.Ltmp202:
	.loc	2 2091 23 is_stmt 1             # C:/Vega/rv32m1_sdk_riscv/rtos/freertos_9.0.0/Source/tasks.c:2091:23
	lui	a0, %hi(xYieldPending)
	addi	a1, zero, 1
	sw	a1, %lo(xYieldPending)(a0)
	.loc	2 2092 8                        # C:/Vega/rv32m1_sdk_riscv/rtos/freertos_9.0.0/Source/tasks.c:2092:8
	j	.LBB9_20
.Ltmp203:
.LBB9_19:                               # %if.else34
                                        #   in Loop: Header=BB9_17 Depth=1
	.loc	2 0 8 is_stmt 0                 # C:/Vega/rv32m1_sdk_riscv/rtos/freertos_9.0.0/Source/tasks.c:0:8
	j	.LBB9_20
.LBB9_20:                               # %if.end35
                                        #   in Loop: Header=BB9_17 Depth=1
	.loc	2 2097 8 is_stmt 1              # C:/Vega/rv32m1_sdk_riscv/rtos/freertos_9.0.0/Source/tasks.c:2097:8
	lw	a0, -20(s0)
	addi	a0, a0, -1
	sw	a0, -20(s0)
	.loc	2 2098 7                        # C:/Vega/rv32m1_sdk_riscv/rtos/freertos_9.0.0/Source/tasks.c:2098:7
	j	.LBB9_21
.Ltmp204:
.LBB9_21:                               # %do.cond
                                        #   in Loop: Header=BB9_17 Depth=1
	.loc	2 2098 16 is_stmt 0             # C:/Vega/rv32m1_sdk_riscv/rtos/freertos_9.0.0/Source/tasks.c:2098:16
	lw	a0, -20(s0)
	mv	a1, zero
.Ltmp205:
	.loc	2 2098 7                        # C:/Vega/rv32m1_sdk_riscv/rtos/freertos_9.0.0/Source/tasks.c:2098:7
	bne	a0, a1, .LBB9_17
	j	.LBB9_22
.Ltmp206:
.LBB9_22:                               # %do.end
	.loc	2 2100 21 is_stmt 1             # C:/Vega/rv32m1_sdk_riscv/rtos/freertos_9.0.0/Source/tasks.c:2100:21
	lui	a0, %hi(uxPendedTicks)
	mv	a1, zero
	sw	a1, %lo(uxPendedTicks)(a0)
	.loc	2 2101 6                        # C:/Vega/rv32m1_sdk_riscv/rtos/freertos_9.0.0/Source/tasks.c:2101:6
	j	.LBB9_24
.Ltmp207:
.LBB9_23:                               # %if.else39
	.loc	2 0 6 is_stmt 0                 # C:/Vega/rv32m1_sdk_riscv/rtos/freertos_9.0.0/Source/tasks.c:0:6
	j	.LBB9_24
.LBB9_24:                               # %if.end40
.Ltmp208:
	.loc	2 2108 9 is_stmt 1              # C:/Vega/rv32m1_sdk_riscv/rtos/freertos_9.0.0/Source/tasks.c:2108:9
	lui	a0, %hi(xYieldPending)
	lw	a0, %lo(xYieldPending)(a0)
	mv	a1, zero
.Ltmp209:
	.loc	2 2108 9 is_stmt 0              # C:/Vega/rv32m1_sdk_riscv/rtos/freertos_9.0.0/Source/tasks.c:2108:9
	beq	a0, a1, .LBB9_26
	j	.LBB9_25
.LBB9_25:                               # %if.then43
	.loc	2 0 9                           # C:/Vega/rv32m1_sdk_riscv/rtos/freertos_9.0.0/Source/tasks.c:0:9
	addi	a0, zero, 1
.Ltmp210:
	.loc	2 2112 23 is_stmt 1             # C:/Vega/rv32m1_sdk_riscv/rtos/freertos_9.0.0/Source/tasks.c:2112:23
	sw	a0, -16(s0)
.Ltmp211:
	.loc	2 2115 6                        # C:/Vega/rv32m1_sdk_riscv/rtos/freertos_9.0.0/Source/tasks.c:2115:6
	call	portYIELD
	.loc	2 2116 5                        # C:/Vega/rv32m1_sdk_riscv/rtos/freertos_9.0.0/Source/tasks.c:2116:5
	j	.LBB9_27
.Ltmp212:
.LBB9_26:                               # %if.else44
	.loc	2 0 5 is_stmt 0                 # C:/Vega/rv32m1_sdk_riscv/rtos/freertos_9.0.0/Source/tasks.c:0:5
	j	.LBB9_27
.LBB9_27:                               # %if.end45
	.loc	2 2121 4 is_stmt 1              # C:/Vega/rv32m1_sdk_riscv/rtos/freertos_9.0.0/Source/tasks.c:2121:4
	j	.LBB9_28
.Ltmp213:
.LBB9_28:                               # %if.end46
	.loc	2 2122 3                        # C:/Vega/rv32m1_sdk_riscv/rtos/freertos_9.0.0/Source/tasks.c:2122:3
	j	.LBB9_30
.Ltmp214:
.LBB9_29:                               # %if.else47
	.loc	2 0 3 is_stmt 0                 # C:/Vega/rv32m1_sdk_riscv/rtos/freertos_9.0.0/Source/tasks.c:0:3
	j	.LBB9_30
.LBB9_30:                               # %if.end48
	.loc	2 2128 2 is_stmt 1              # C:/Vega/rv32m1_sdk_riscv/rtos/freertos_9.0.0/Source/tasks.c:2128:2
	call	vPortExitCritical
	.loc	2 2130 9                        # C:/Vega/rv32m1_sdk_riscv/rtos/freertos_9.0.0/Source/tasks.c:2130:9
	lw	a0, -16(s0)
	.loc	2 2130 2 is_stmt 0              # C:/Vega/rv32m1_sdk_riscv/rtos/freertos_9.0.0/Source/tasks.c:2130:2
	lw	s0, 24(sp)
	lw	ra, 28(sp)
	addi	sp, sp, 32
	ret
.Ltmp215:
.Lfunc_end9:
	.size	xTaskResumeAll, .Lfunc_end9-xTaskResumeAll
	.cfi_endproc
                                        # -- End function
	.section	.text.vTaskDelay,"ax",@progbits
	.globl	vTaskDelay                      # -- Begin function vTaskDelay
	.p2align	2
	.type	vTaskDelay,@function
vTaskDelay:                             # @vTaskDelay
.Lfunc_begin10:
	.loc	2 1232 0 is_stmt 1              # C:/Vega/rv32m1_sdk_riscv/rtos/freertos_9.0.0/Source/tasks.c:1232:0
	.cfi_startproc
# %bb.0:                                # %entry
	addi	sp, sp, -16
	.cfi_def_cfa_offset 16
	sw	ra, 12(sp)
	sw	s0, 8(sp)
	.cfi_offset ra, -4
	.cfi_offset s0, -8
	addi	s0, sp, 16
	.cfi_def_cfa s0, 0
	sw	a0, -12(s0)
	mv	a0, zero
.Ltmp216:
	.loc	2 1233 13 prologue_end          # C:/Vega/rv32m1_sdk_riscv/rtos/freertos_9.0.0/Source/tasks.c:1233:13
	sw	a0, -16(s0)
.Ltmp217:
	.loc	2 1236 7                        # C:/Vega/rv32m1_sdk_riscv/rtos/freertos_9.0.0/Source/tasks.c:1236:7
	lw	a1, -12(s0)
.Ltmp218:
	.loc	2 1236 7 is_stmt 0              # C:/Vega/rv32m1_sdk_riscv/rtos/freertos_9.0.0/Source/tasks.c:1236:7
	beq	a1, a0, .LBB10_5
	j	.LBB10_1
.LBB10_1:                               # %if.then
.Ltmp219:
	.loc	2 1238 9 is_stmt 1              # C:/Vega/rv32m1_sdk_riscv/rtos/freertos_9.0.0/Source/tasks.c:1238:9
	lui	a0, %hi(uxSchedulerSuspended)
	lw	a0, %lo(uxSchedulerSuspended)(a0)
	mv	a1, zero
.Ltmp220:
	.loc	2 1238 7 is_stmt 0              # C:/Vega/rv32m1_sdk_riscv/rtos/freertos_9.0.0/Source/tasks.c:1238:7
	beq	a0, a1, .LBB10_4
	j	.LBB10_2
.LBB10_2:                               # %if.then4
.Ltmp221:
	.loc	2 1238 43                       # C:/Vega/rv32m1_sdk_riscv/rtos/freertos_9.0.0/Source/tasks.c:1238:43
	call	vPortSetInterruptMask
	.loc	2 1238 68                       # C:/Vega/rv32m1_sdk_riscv/rtos/freertos_9.0.0/Source/tasks.c:1238:68
	j	.LBB10_3
.LBB10_3:                               # %for.cond
                                        # =>This Inner Loop Header: Depth=1
.Ltmp222:
	.loc	2 1238 68                       # C:/Vega/rv32m1_sdk_riscv/rtos/freertos_9.0.0/Source/tasks.c:1238:68
	j	.LBB10_3
.Ltmp223:
.LBB10_4:                               # %if.end
	.loc	2 1239 4 is_stmt 1              # C:/Vega/rv32m1_sdk_riscv/rtos/freertos_9.0.0/Source/tasks.c:1239:4
	call	vTaskSuspendAll
.Ltmp224:
	.loc	2 1250 37                       # C:/Vega/rv32m1_sdk_riscv/rtos/freertos_9.0.0/Source/tasks.c:1250:37
	lw	a0, -12(s0)
	mv	a1, zero
	.loc	2 1250 5 is_stmt 0              # C:/Vega/rv32m1_sdk_riscv/rtos/freertos_9.0.0/Source/tasks.c:1250:5
	call	prvAddCurrentTaskToDelayedList
.Ltmp225:
	.loc	2 1252 22 is_stmt 1             # C:/Vega/rv32m1_sdk_riscv/rtos/freertos_9.0.0/Source/tasks.c:1252:22
	call	xTaskResumeAll
	.loc	2 1252 20 is_stmt 0             # C:/Vega/rv32m1_sdk_riscv/rtos/freertos_9.0.0/Source/tasks.c:1252:20
	sw	a0, -16(s0)
	.loc	2 1253 3 is_stmt 1              # C:/Vega/rv32m1_sdk_riscv/rtos/freertos_9.0.0/Source/tasks.c:1253:3
	j	.LBB10_6
.Ltmp226:
.LBB10_5:                               # %if.else
	.loc	2 0 3 is_stmt 0                 # C:/Vega/rv32m1_sdk_riscv/rtos/freertos_9.0.0/Source/tasks.c:0:3
	j	.LBB10_6
.LBB10_6:                               # %if.end6
.Ltmp227:
	.loc	2 1261 7 is_stmt 1              # C:/Vega/rv32m1_sdk_riscv/rtos/freertos_9.0.0/Source/tasks.c:1261:7
	lw	a0, -16(s0)
	mv	a1, zero
.Ltmp228:
	.loc	2 1261 7 is_stmt 0              # C:/Vega/rv32m1_sdk_riscv/rtos/freertos_9.0.0/Source/tasks.c:1261:7
	bne	a0, a1, .LBB10_8
	j	.LBB10_7
.LBB10_7:                               # %if.then9
.Ltmp229:
	.loc	2 1263 4 is_stmt 1              # C:/Vega/rv32m1_sdk_riscv/rtos/freertos_9.0.0/Source/tasks.c:1263:4
	call	portYIELD
	.loc	2 1264 3                        # C:/Vega/rv32m1_sdk_riscv/rtos/freertos_9.0.0/Source/tasks.c:1264:3
	j	.LBB10_9
.Ltmp230:
.LBB10_8:                               # %if.else10
	.loc	2 0 3 is_stmt 0                 # C:/Vega/rv32m1_sdk_riscv/rtos/freertos_9.0.0/Source/tasks.c:0:3
	j	.LBB10_9
.LBB10_9:                               # %if.end11
	.loc	2 1269 2 is_stmt 1              # C:/Vega/rv32m1_sdk_riscv/rtos/freertos_9.0.0/Source/tasks.c:1269:2
	lw	s0, 8(sp)
	lw	ra, 12(sp)
	addi	sp, sp, 16
	ret
.Ltmp231:
.Lfunc_end10:
	.size	vTaskDelay, .Lfunc_end10-vTaskDelay
	.cfi_endproc
                                        # -- End function
	.section	.text.eTaskGetState,"ax",@progbits
	.globl	eTaskGetState                   # -- Begin function eTaskGetState
	.p2align	2
	.type	eTaskGetState,@function
eTaskGetState:                          # @eTaskGetState
.Lfunc_begin11:
	.loc	2 1277 0                        # C:/Vega/rv32m1_sdk_riscv/rtos/freertos_9.0.0/Source/tasks.c:1277:0
	.cfi_startproc
# %bb.0:                                # %entry
	addi	sp, sp, -32
	.cfi_def_cfa_offset 32
	sw	ra, 28(sp)
	sw	s0, 24(sp)
	.cfi_offset ra, -4
	.cfi_offset s0, -8
	addi	s0, sp, 32
	.cfi_def_cfa s0, 0
	sw	a0, -12(s0)
.Ltmp232:
	.loc	2 1280 42 prologue_end          # C:/Vega/rv32m1_sdk_riscv/rtos/freertos_9.0.0/Source/tasks.c:1280:42
	lw	a0, -12(s0)
	.loc	2 1280 22 is_stmt 0             # C:/Vega/rv32m1_sdk_riscv/rtos/freertos_9.0.0/Source/tasks.c:1280:22
	sw	a0, -24(s0)
.Ltmp233:
	.loc	2 1282 8 is_stmt 1              # C:/Vega/rv32m1_sdk_riscv/rtos/freertos_9.0.0/Source/tasks.c:1282:8
	lw	a0, -24(s0)
	mv	a1, zero
.Ltmp234:
	.loc	2 1282 6 is_stmt 0              # C:/Vega/rv32m1_sdk_riscv/rtos/freertos_9.0.0/Source/tasks.c:1282:6
	bne	a0, a1, .LBB11_3
	j	.LBB11_1
.LBB11_1:                               # %if.then
.Ltmp235:
	.loc	2 1282 22                       # C:/Vega/rv32m1_sdk_riscv/rtos/freertos_9.0.0/Source/tasks.c:1282:22
	call	vPortSetInterruptMask
	.loc	2 1282 47                       # C:/Vega/rv32m1_sdk_riscv/rtos/freertos_9.0.0/Source/tasks.c:1282:47
	j	.LBB11_2
.LBB11_2:                               # %for.cond
                                        # =>This Inner Loop Header: Depth=1
.Ltmp236:
	.loc	2 1282 47                       # C:/Vega/rv32m1_sdk_riscv/rtos/freertos_9.0.0/Source/tasks.c:1282:47
	j	.LBB11_2
.Ltmp237:
.LBB11_3:                               # %if.end
	.loc	2 1284 7 is_stmt 1              # C:/Vega/rv32m1_sdk_riscv/rtos/freertos_9.0.0/Source/tasks.c:1284:7
	lw	a0, -24(s0)
	.loc	2 1284 16 is_stmt 0             # C:/Vega/rv32m1_sdk_riscv/rtos/freertos_9.0.0/Source/tasks.c:1284:16
	lui	a1, %hi(pxCurrentTCB)
	lw	a1, %lo(pxCurrentTCB)(a1)
.Ltmp238:
	.loc	2 1284 7                        # C:/Vega/rv32m1_sdk_riscv/rtos/freertos_9.0.0/Source/tasks.c:1284:7
	bne	a0, a1, .LBB11_5
	j	.LBB11_4
.LBB11_4:                               # %if.then2
	.loc	2 0 7                           # C:/Vega/rv32m1_sdk_riscv/rtos/freertos_9.0.0/Source/tasks.c:0:7
	mv	a0, zero
.Ltmp239:
	.loc	2 1287 12 is_stmt 1             # C:/Vega/rv32m1_sdk_riscv/rtos/freertos_9.0.0/Source/tasks.c:1287:12
	sw	a0, -16(s0)
	.loc	2 1288 3                        # C:/Vega/rv32m1_sdk_riscv/rtos/freertos_9.0.0/Source/tasks.c:1288:3
	j	.LBB11_20
.Ltmp240:
.LBB11_5:                               # %if.else
	.loc	2 1291 4                        # C:/Vega/rv32m1_sdk_riscv/rtos/freertos_9.0.0/Source/tasks.c:1291:4
	call	vPortEnterCritical
.Ltmp241:
	.loc	2 1293 39                       # C:/Vega/rv32m1_sdk_riscv/rtos/freertos_9.0.0/Source/tasks.c:1293:39
	lw	a0, -24(s0)
	.loc	2 1293 66 is_stmt 0             # C:/Vega/rv32m1_sdk_riscv/rtos/freertos_9.0.0/Source/tasks.c:1293:66
	lw	a0, 20(a0)
	.loc	2 1293 17                       # C:/Vega/rv32m1_sdk_riscv/rtos/freertos_9.0.0/Source/tasks.c:1293:17
	sw	a0, -20(s0)
.Ltmp242:
	.loc	2 1295 4 is_stmt 1              # C:/Vega/rv32m1_sdk_riscv/rtos/freertos_9.0.0/Source/tasks.c:1295:4
	call	vPortExitCritical
.Ltmp243:
	.loc	2 1297 10                       # C:/Vega/rv32m1_sdk_riscv/rtos/freertos_9.0.0/Source/tasks.c:1297:10
	lw	a0, -20(s0)
	.loc	2 1297 25 is_stmt 0             # C:/Vega/rv32m1_sdk_riscv/rtos/freertos_9.0.0/Source/tasks.c:1297:25
	lui	a1, %hi(pxDelayedTaskList)
	lw	a1, %lo(pxDelayedTaskList)(a1)
	.loc	2 1297 45                       # C:/Vega/rv32m1_sdk_riscv/rtos/freertos_9.0.0/Source/tasks.c:1297:45
	beq	a0, a1, .LBB11_7
	j	.LBB11_6
.LBB11_6:                               # %lor.lhs.false
	.loc	2 1297 50                       # C:/Vega/rv32m1_sdk_riscv/rtos/freertos_9.0.0/Source/tasks.c:1297:50
	lw	a0, -20(s0)
	.loc	2 1297 65                       # C:/Vega/rv32m1_sdk_riscv/rtos/freertos_9.0.0/Source/tasks.c:1297:65
	lui	a1, %hi(pxOverflowDelayedTaskList)
	lw	a1, %lo(pxOverflowDelayedTaskList)(a1)
.Ltmp244:
	.loc	2 1297 8                        # C:/Vega/rv32m1_sdk_riscv/rtos/freertos_9.0.0/Source/tasks.c:1297:8
	bne	a0, a1, .LBB11_8
	j	.LBB11_7
.LBB11_7:                               # %if.then5
	.loc	2 0 8                           # C:/Vega/rv32m1_sdk_riscv/rtos/freertos_9.0.0/Source/tasks.c:0:8
	addi	a0, zero, 2
.Ltmp245:
	.loc	2 1301 13 is_stmt 1             # C:/Vega/rv32m1_sdk_riscv/rtos/freertos_9.0.0/Source/tasks.c:1301:13
	sw	a0, -16(s0)
	.loc	2 1302 4                        # C:/Vega/rv32m1_sdk_riscv/rtos/freertos_9.0.0/Source/tasks.c:1302:4
	j	.LBB11_19
.Ltmp246:
.LBB11_8:                               # %if.else6
	.loc	2 1305 14                       # C:/Vega/rv32m1_sdk_riscv/rtos/freertos_9.0.0/Source/tasks.c:1305:14
	lw	a0, -20(s0)
	.loc	2 1305 26 is_stmt 0             # C:/Vega/rv32m1_sdk_riscv/rtos/freertos_9.0.0/Source/tasks.c:1305:26
	lui	a1, %hi(xSuspendedTaskList)
	addi	a1, a1, %lo(xSuspendedTaskList)
.Ltmp247:
	.loc	2 1305 14                       # C:/Vega/rv32m1_sdk_riscv/rtos/freertos_9.0.0/Source/tasks.c:1305:14
	bne	a0, a1, .LBB11_13
	j	.LBB11_9
.LBB11_9:                               # %if.then8
.Ltmp248:
	.loc	2 1310 17 is_stmt 1             # C:/Vega/rv32m1_sdk_riscv/rtos/freertos_9.0.0/Source/tasks.c:1310:17
	lw	a0, -24(s0)
	.loc	2 1310 44 is_stmt 0             # C:/Vega/rv32m1_sdk_riscv/rtos/freertos_9.0.0/Source/tasks.c:1310:44
	lw	a0, 40(a0)
	mv	a1, zero
.Ltmp249:
	.loc	2 1310 10                       # C:/Vega/rv32m1_sdk_riscv/rtos/freertos_9.0.0/Source/tasks.c:1310:10
	bne	a0, a1, .LBB11_11
	j	.LBB11_10
.LBB11_10:                              # %if.then11
	.loc	2 0 10                          # C:/Vega/rv32m1_sdk_riscv/rtos/freertos_9.0.0/Source/tasks.c:0:10
	addi	a0, zero, 3
.Ltmp250:
	.loc	2 1312 15 is_stmt 1             # C:/Vega/rv32m1_sdk_riscv/rtos/freertos_9.0.0/Source/tasks.c:1312:15
	sw	a0, -16(s0)
	.loc	2 1313 6                        # C:/Vega/rv32m1_sdk_riscv/rtos/freertos_9.0.0/Source/tasks.c:1313:6
	j	.LBB11_12
.Ltmp251:
.LBB11_11:                              # %if.else12
	.loc	2 0 6 is_stmt 0                 # C:/Vega/rv32m1_sdk_riscv/rtos/freertos_9.0.0/Source/tasks.c:0:6
	addi	a0, zero, 2
.Ltmp252:
	.loc	2 1316 15 is_stmt 1             # C:/Vega/rv32m1_sdk_riscv/rtos/freertos_9.0.0/Source/tasks.c:1316:15
	sw	a0, -16(s0)
	j	.LBB11_12
.Ltmp253:
.LBB11_12:                              # %if.end13
	.loc	2 1318 5                        # C:/Vega/rv32m1_sdk_riscv/rtos/freertos_9.0.0/Source/tasks.c:1318:5
	j	.LBB11_18
.Ltmp254:
.LBB11_13:                              # %if.else14
	.loc	2 1322 16                       # C:/Vega/rv32m1_sdk_riscv/rtos/freertos_9.0.0/Source/tasks.c:1322:16
	lw	a0, -20(s0)
	.loc	2 1322 28 is_stmt 0             # C:/Vega/rv32m1_sdk_riscv/rtos/freertos_9.0.0/Source/tasks.c:1322:28
	lui	a1, %hi(xTasksWaitingTermination)
	addi	a1, a1, %lo(xTasksWaitingTermination)
	.loc	2 1322 59                       # C:/Vega/rv32m1_sdk_riscv/rtos/freertos_9.0.0/Source/tasks.c:1322:59
	beq	a0, a1, .LBB11_15
	j	.LBB11_14
.LBB11_14:                              # %lor.lhs.false16
	.loc	2 1322 64                       # C:/Vega/rv32m1_sdk_riscv/rtos/freertos_9.0.0/Source/tasks.c:1322:64
	lw	a0, -20(s0)
	mv	a1, zero
.Ltmp255:
	.loc	2 1322 14                       # C:/Vega/rv32m1_sdk_riscv/rtos/freertos_9.0.0/Source/tasks.c:1322:14
	bne	a0, a1, .LBB11_16
	j	.LBB11_15
.LBB11_15:                              # %if.then18
	.loc	2 0 14                          # C:/Vega/rv32m1_sdk_riscv/rtos/freertos_9.0.0/Source/tasks.c:0:14
	addi	a0, zero, 4
.Ltmp256:
	.loc	2 1327 14 is_stmt 1             # C:/Vega/rv32m1_sdk_riscv/rtos/freertos_9.0.0/Source/tasks.c:1327:14
	sw	a0, -16(s0)
	.loc	2 1328 5                        # C:/Vega/rv32m1_sdk_riscv/rtos/freertos_9.0.0/Source/tasks.c:1328:5
	j	.LBB11_17
.Ltmp257:
.LBB11_16:                              # %if.else19
	.loc	2 0 5 is_stmt 0                 # C:/Vega/rv32m1_sdk_riscv/rtos/freertos_9.0.0/Source/tasks.c:0:5
	addi	a0, zero, 1
.Ltmp258:
	.loc	2 1335 13 is_stmt 1             # C:/Vega/rv32m1_sdk_riscv/rtos/freertos_9.0.0/Source/tasks.c:1335:13
	sw	a0, -16(s0)
	j	.LBB11_17
.Ltmp259:
.LBB11_17:                              # %if.end20
	.loc	2 0 13 is_stmt 0                # C:/Vega/rv32m1_sdk_riscv/rtos/freertos_9.0.0/Source/tasks.c:0:13
	j	.LBB11_18
.LBB11_18:                              # %if.end21
	j	.LBB11_19
.LBB11_19:                              # %if.end22
	j	.LBB11_20
.LBB11_20:                              # %if.end23
	.loc	2 1339 10 is_stmt 1             # C:/Vega/rv32m1_sdk_riscv/rtos/freertos_9.0.0/Source/tasks.c:1339:10
	lw	a0, -16(s0)
	.loc	2 1339 3 is_stmt 0              # C:/Vega/rv32m1_sdk_riscv/rtos/freertos_9.0.0/Source/tasks.c:1339:3
	lw	s0, 24(sp)
	lw	ra, 28(sp)
	addi	sp, sp, 32
	ret
.Ltmp260:
.Lfunc_end11:
	.size	eTaskGetState, .Lfunc_end11-eTaskGetState
	.cfi_endproc
                                        # -- End function
	.section	.text.uxTaskPriorityGet,"ax",@progbits
	.globl	uxTaskPriorityGet               # -- Begin function uxTaskPriorityGet
	.p2align	2
	.type	uxTaskPriorityGet,@function
uxTaskPriorityGet:                      # @uxTaskPriorityGet
.Lfunc_begin12:
	.loc	2 1348 0 is_stmt 1              # C:/Vega/rv32m1_sdk_riscv/rtos/freertos_9.0.0/Source/tasks.c:1348:0
	.cfi_startproc
# %bb.0:                                # %entry
	addi	sp, sp, -32
	.cfi_def_cfa_offset 32
	sw	ra, 28(sp)
	sw	s0, 24(sp)
	.cfi_offset ra, -4
	.cfi_offset s0, -8
	addi	s0, sp, 32
	.cfi_def_cfa s0, 0
	sw	a0, -12(s0)
.Ltmp261:
	.loc	2 1352 3 prologue_end           # C:/Vega/rv32m1_sdk_riscv/rtos/freertos_9.0.0/Source/tasks.c:1352:3
	call	vPortEnterCritical
.Ltmp262:
	.loc	2 1356 18                       # C:/Vega/rv32m1_sdk_riscv/rtos/freertos_9.0.0/Source/tasks.c:1356:18
	lw	a0, -12(s0)
	mv	a1, zero
	.loc	2 1356 14 is_stmt 0             # C:/Vega/rv32m1_sdk_riscv/rtos/freertos_9.0.0/Source/tasks.c:1356:14
	bne	a0, a1, .LBB12_2
	j	.LBB12_1
.LBB12_1:                               # %cond.true
	.loc	2 1356 56                       # C:/Vega/rv32m1_sdk_riscv/rtos/freertos_9.0.0/Source/tasks.c:1356:56
	lui	a0, %hi(pxCurrentTCB)
	lw	a0, %lo(pxCurrentTCB)(a0)
	.loc	2 1356 14                       # C:/Vega/rv32m1_sdk_riscv/rtos/freertos_9.0.0/Source/tasks.c:1356:14
	sw	a0, -24(s0)
	j	.LBB12_3
.LBB12_2:                               # %cond.false
	.loc	2 1356 85                       # C:/Vega/rv32m1_sdk_riscv/rtos/freertos_9.0.0/Source/tasks.c:1356:85
	lw	a0, -12(s0)
	.loc	2 1356 14                       # C:/Vega/rv32m1_sdk_riscv/rtos/freertos_9.0.0/Source/tasks.c:1356:14
	sw	a0, -24(s0)
	j	.LBB12_3
.LBB12_3:                               # %cond.end
	lw	a0, -24(s0)
	.loc	2 1356 10                       # C:/Vega/rv32m1_sdk_riscv/rtos/freertos_9.0.0/Source/tasks.c:1356:10
	sw	a0, -16(s0)
	.loc	2 1357 15 is_stmt 1             # C:/Vega/rv32m1_sdk_riscv/rtos/freertos_9.0.0/Source/tasks.c:1357:15
	lw	a0, -16(s0)
	.loc	2 1357 22 is_stmt 0             # C:/Vega/rv32m1_sdk_riscv/rtos/freertos_9.0.0/Source/tasks.c:1357:22
	lw	a0, 44(a0)
	.loc	2 1357 13                       # C:/Vega/rv32m1_sdk_riscv/rtos/freertos_9.0.0/Source/tasks.c:1357:13
	sw	a0, -20(s0)
.Ltmp263:
	.loc	2 1359 3 is_stmt 1              # C:/Vega/rv32m1_sdk_riscv/rtos/freertos_9.0.0/Source/tasks.c:1359:3
	call	vPortExitCritical
	.loc	2 1361 10                       # C:/Vega/rv32m1_sdk_riscv/rtos/freertos_9.0.0/Source/tasks.c:1361:10
	lw	a0, -20(s0)
	.loc	2 1361 3 is_stmt 0              # C:/Vega/rv32m1_sdk_riscv/rtos/freertos_9.0.0/Source/tasks.c:1361:3
	lw	s0, 24(sp)
	lw	ra, 28(sp)
	addi	sp, sp, 32
	ret
.Ltmp264:
.Lfunc_end12:
	.size	uxTaskPriorityGet, .Lfunc_end12-uxTaskPriorityGet
	.cfi_endproc
                                        # -- End function
	.section	.text.uxTaskPriorityGetFromISR,"ax",@progbits
	.globl	uxTaskPriorityGetFromISR        # -- Begin function uxTaskPriorityGetFromISR
	.p2align	2
	.type	uxTaskPriorityGetFromISR,@function
uxTaskPriorityGetFromISR:               # @uxTaskPriorityGetFromISR
.Lfunc_begin13:
	.loc	2 1370 0 is_stmt 1              # C:/Vega/rv32m1_sdk_riscv/rtos/freertos_9.0.0/Source/tasks.c:1370:0
	.cfi_startproc
# %bb.0:                                # %entry
	addi	sp, sp, -32
	.cfi_def_cfa_offset 32
	sw	ra, 28(sp)
	sw	s0, 24(sp)
	.cfi_offset ra, -4
	.cfi_offset s0, -8
	addi	s0, sp, 32
	.cfi_def_cfa s0, 0
	sw	a0, -12(s0)
.Ltmp265:
	.loc	2 1392 27 prologue_end          # C:/Vega/rv32m1_sdk_riscv/rtos/freertos_9.0.0/Source/tasks.c:1392:27
	call	vPortSetInterruptMask
	.loc	2 1392 25 is_stmt 0             # C:/Vega/rv32m1_sdk_riscv/rtos/freertos_9.0.0/Source/tasks.c:1392:25
	sw	a0, -24(s0)
.Ltmp266:
	.loc	2 1396 18 is_stmt 1             # C:/Vega/rv32m1_sdk_riscv/rtos/freertos_9.0.0/Source/tasks.c:1396:18
	lw	a0, -12(s0)
	mv	a1, zero
	.loc	2 1396 14 is_stmt 0             # C:/Vega/rv32m1_sdk_riscv/rtos/freertos_9.0.0/Source/tasks.c:1396:14
	bne	a0, a1, .LBB13_2
	j	.LBB13_1
.LBB13_1:                               # %cond.true
	.loc	2 1396 56                       # C:/Vega/rv32m1_sdk_riscv/rtos/freertos_9.0.0/Source/tasks.c:1396:56
	lui	a0, %hi(pxCurrentTCB)
	lw	a0, %lo(pxCurrentTCB)(a0)
	.loc	2 1396 14                       # C:/Vega/rv32m1_sdk_riscv/rtos/freertos_9.0.0/Source/tasks.c:1396:14
	sw	a0, -28(s0)
	j	.LBB13_3
.LBB13_2:                               # %cond.false
	.loc	2 1396 85                       # C:/Vega/rv32m1_sdk_riscv/rtos/freertos_9.0.0/Source/tasks.c:1396:85
	lw	a0, -12(s0)
	.loc	2 1396 14                       # C:/Vega/rv32m1_sdk_riscv/rtos/freertos_9.0.0/Source/tasks.c:1396:14
	sw	a0, -28(s0)
	j	.LBB13_3
.LBB13_3:                               # %cond.end
	lw	a0, -28(s0)
	.loc	2 1396 10                       # C:/Vega/rv32m1_sdk_riscv/rtos/freertos_9.0.0/Source/tasks.c:1396:10
	sw	a0, -16(s0)
	.loc	2 1397 15 is_stmt 1             # C:/Vega/rv32m1_sdk_riscv/rtos/freertos_9.0.0/Source/tasks.c:1397:15
	lw	a0, -16(s0)
	.loc	2 1397 22 is_stmt 0             # C:/Vega/rv32m1_sdk_riscv/rtos/freertos_9.0.0/Source/tasks.c:1397:22
	lw	a0, 44(a0)
	.loc	2 1397 13                       # C:/Vega/rv32m1_sdk_riscv/rtos/freertos_9.0.0/Source/tasks.c:1397:13
	sw	a0, -20(s0)
.Ltmp267:
	.loc	2 1399 27 is_stmt 1             # C:/Vega/rv32m1_sdk_riscv/rtos/freertos_9.0.0/Source/tasks.c:1399:27
	lw	a0, -24(s0)
	.loc	2 1399 3 is_stmt 0              # C:/Vega/rv32m1_sdk_riscv/rtos/freertos_9.0.0/Source/tasks.c:1399:3
	call	vPortClearInterruptMask
	.loc	2 1401 10 is_stmt 1             # C:/Vega/rv32m1_sdk_riscv/rtos/freertos_9.0.0/Source/tasks.c:1401:10
	lw	a0, -20(s0)
	.loc	2 1401 3 is_stmt 0              # C:/Vega/rv32m1_sdk_riscv/rtos/freertos_9.0.0/Source/tasks.c:1401:3
	lw	s0, 24(sp)
	lw	ra, 28(sp)
	addi	sp, sp, 32
	ret
.Ltmp268:
.Lfunc_end13:
	.size	uxTaskPriorityGetFromISR, .Lfunc_end13-uxTaskPriorityGetFromISR
	.cfi_endproc
                                        # -- End function
	.section	.text.vTaskPrioritySet,"ax",@progbits
	.globl	vTaskPrioritySet                # -- Begin function vTaskPrioritySet
	.p2align	2
	.type	vTaskPrioritySet,@function
vTaskPrioritySet:                       # @vTaskPrioritySet
.Lfunc_begin14:
	.loc	2 1410 0 is_stmt 1              # C:/Vega/rv32m1_sdk_riscv/rtos/freertos_9.0.0/Source/tasks.c:1410:0
	.cfi_startproc
# %bb.0:                                # %entry
	addi	sp, sp, -48
	.cfi_def_cfa_offset 48
	sw	ra, 44(sp)
	sw	s0, 40(sp)
	.cfi_offset ra, -4
	.cfi_offset s0, -8
	addi	s0, sp, 48
	.cfi_def_cfa s0, 0
	sw	a0, -12(s0)
	sw	a1, -16(s0)
	mv	a0, zero
.Ltmp269:
	.loc	2 1413 13 prologue_end          # C:/Vega/rv32m1_sdk_riscv/rtos/freertos_9.0.0/Source/tasks.c:1413:13
	sw	a0, -32(s0)
.Ltmp270:
	.loc	2 1415 10                       # C:/Vega/rv32m1_sdk_riscv/rtos/freertos_9.0.0/Source/tasks.c:1415:10
	lw	a0, -16(s0)
	addi	a1, zero, 5
.Ltmp271:
	.loc	2 1415 6 is_stmt 0              # C:/Vega/rv32m1_sdk_riscv/rtos/freertos_9.0.0/Source/tasks.c:1415:6
	bltu	a0, a1, .LBB14_3
	j	.LBB14_1
.LBB14_1:                               # %if.then
.Ltmp272:
	.loc	2 1415 38                       # C:/Vega/rv32m1_sdk_riscv/rtos/freertos_9.0.0/Source/tasks.c:1415:38
	call	vPortSetInterruptMask
	.loc	2 1415 63                       # C:/Vega/rv32m1_sdk_riscv/rtos/freertos_9.0.0/Source/tasks.c:1415:63
	j	.LBB14_2
.LBB14_2:                               # %for.cond
                                        # =>This Inner Loop Header: Depth=1
.Ltmp273:
	.loc	2 1415 63                       # C:/Vega/rv32m1_sdk_riscv/rtos/freertos_9.0.0/Source/tasks.c:1415:63
	j	.LBB14_2
.Ltmp274:
.LBB14_3:                               # %if.end
	.loc	2 1418 7 is_stmt 1              # C:/Vega/rv32m1_sdk_riscv/rtos/freertos_9.0.0/Source/tasks.c:1418:7
	lw	a0, -16(s0)
	addi	a1, zero, 5
.Ltmp275:
	.loc	2 1418 7 is_stmt 0              # C:/Vega/rv32m1_sdk_riscv/rtos/freertos_9.0.0/Source/tasks.c:1418:7
	bltu	a0, a1, .LBB14_5
	j	.LBB14_4
.LBB14_4:                               # %if.then5
	.loc	2 0 7                           # C:/Vega/rv32m1_sdk_riscv/rtos/freertos_9.0.0/Source/tasks.c:0:7
	addi	a0, zero, 4
.Ltmp276:
	.loc	2 1420 18 is_stmt 1             # C:/Vega/rv32m1_sdk_riscv/rtos/freertos_9.0.0/Source/tasks.c:1420:18
	sw	a0, -16(s0)
	.loc	2 1421 3                        # C:/Vega/rv32m1_sdk_riscv/rtos/freertos_9.0.0/Source/tasks.c:1421:3
	j	.LBB14_6
.Ltmp277:
.LBB14_5:                               # %if.else
	.loc	2 0 3 is_stmt 0                 # C:/Vega/rv32m1_sdk_riscv/rtos/freertos_9.0.0/Source/tasks.c:0:3
	j	.LBB14_6
.LBB14_6:                               # %if.end6
	.loc	2 1427 3 is_stmt 1              # C:/Vega/rv32m1_sdk_riscv/rtos/freertos_9.0.0/Source/tasks.c:1427:3
	call	vPortEnterCritical
.Ltmp278:
	.loc	2 1431 18                       # C:/Vega/rv32m1_sdk_riscv/rtos/freertos_9.0.0/Source/tasks.c:1431:18
	lw	a0, -12(s0)
	mv	a1, zero
	.loc	2 1431 14 is_stmt 0             # C:/Vega/rv32m1_sdk_riscv/rtos/freertos_9.0.0/Source/tasks.c:1431:14
	bne	a0, a1, .LBB14_8
	j	.LBB14_7
.LBB14_7:                               # %cond.true
	.loc	2 1431 56                       # C:/Vega/rv32m1_sdk_riscv/rtos/freertos_9.0.0/Source/tasks.c:1431:56
	lui	a0, %hi(pxCurrentTCB)
	lw	a0, %lo(pxCurrentTCB)(a0)
	.loc	2 1431 14                       # C:/Vega/rv32m1_sdk_riscv/rtos/freertos_9.0.0/Source/tasks.c:1431:14
	sw	a0, -36(s0)
	j	.LBB14_9
.LBB14_8:                               # %cond.false
	.loc	2 1431 85                       # C:/Vega/rv32m1_sdk_riscv/rtos/freertos_9.0.0/Source/tasks.c:1431:85
	lw	a0, -12(s0)
	.loc	2 1431 14                       # C:/Vega/rv32m1_sdk_riscv/rtos/freertos_9.0.0/Source/tasks.c:1431:14
	sw	a0, -36(s0)
	j	.LBB14_9
.LBB14_9:                               # %cond.end
	lw	a0, -36(s0)
	.loc	2 1431 10                       # C:/Vega/rv32m1_sdk_riscv/rtos/freertos_9.0.0/Source/tasks.c:1431:10
	sw	a0, -20(s0)
.Ltmp279:
	.loc	2 1437 29 is_stmt 1             # C:/Vega/rv32m1_sdk_riscv/rtos/freertos_9.0.0/Source/tasks.c:1437:29
	lw	a0, -20(s0)
	.loc	2 1437 36 is_stmt 0             # C:/Vega/rv32m1_sdk_riscv/rtos/freertos_9.0.0/Source/tasks.c:1437:36
	lw	a0, 84(a0)
	.loc	2 1437 27                       # C:/Vega/rv32m1_sdk_riscv/rtos/freertos_9.0.0/Source/tasks.c:1437:27
	sw	a0, -24(s0)
.Ltmp280:
	.loc	2 1445 8 is_stmt 1              # C:/Vega/rv32m1_sdk_riscv/rtos/freertos_9.0.0/Source/tasks.c:1445:8
	lw	a0, -24(s0)
	.loc	2 1445 33 is_stmt 0             # C:/Vega/rv32m1_sdk_riscv/rtos/freertos_9.0.0/Source/tasks.c:1445:33
	lw	a1, -16(s0)
.Ltmp281:
	.loc	2 1445 8                        # C:/Vega/rv32m1_sdk_riscv/rtos/freertos_9.0.0/Source/tasks.c:1445:8
	beq	a0, a1, .LBB14_40
	j	.LBB14_10
.LBB14_10:                              # %if.then11
.Ltmp282:
	.loc	2 1449 9 is_stmt 1              # C:/Vega/rv32m1_sdk_riscv/rtos/freertos_9.0.0/Source/tasks.c:1449:9
	lw	a0, -16(s0)
	.loc	2 1449 25 is_stmt 0             # C:/Vega/rv32m1_sdk_riscv/rtos/freertos_9.0.0/Source/tasks.c:1449:25
	lw	a1, -24(s0)
.Ltmp283:
	.loc	2 1449 9                        # C:/Vega/rv32m1_sdk_riscv/rtos/freertos_9.0.0/Source/tasks.c:1449:9
	bgeu	a1, a0, .LBB14_18
	j	.LBB14_11
.LBB14_11:                              # %if.then14
.Ltmp284:
	.loc	2 1451 10 is_stmt 1             # C:/Vega/rv32m1_sdk_riscv/rtos/freertos_9.0.0/Source/tasks.c:1451:10
	lw	a0, -20(s0)
	.loc	2 1451 19 is_stmt 0             # C:/Vega/rv32m1_sdk_riscv/rtos/freertos_9.0.0/Source/tasks.c:1451:19
	lui	a1, %hi(pxCurrentTCB)
	lw	a1, %lo(pxCurrentTCB)(a1)
.Ltmp285:
	.loc	2 1451 10                       # C:/Vega/rv32m1_sdk_riscv/rtos/freertos_9.0.0/Source/tasks.c:1451:10
	beq	a0, a1, .LBB14_16
	j	.LBB14_12
.LBB14_12:                              # %if.then17
.Ltmp286:
	.loc	2 1456 11 is_stmt 1             # C:/Vega/rv32m1_sdk_riscv/rtos/freertos_9.0.0/Source/tasks.c:1456:11
	lw	a0, -16(s0)
	.loc	2 1456 28 is_stmt 0             # C:/Vega/rv32m1_sdk_riscv/rtos/freertos_9.0.0/Source/tasks.c:1456:28
	lui	a1, %hi(pxCurrentTCB)
	lw	a1, %lo(pxCurrentTCB)(a1)
	.loc	2 1456 42                       # C:/Vega/rv32m1_sdk_riscv/rtos/freertos_9.0.0/Source/tasks.c:1456:42
	lw	a1, 44(a1)
.Ltmp287:
	.loc	2 1456 11                       # C:/Vega/rv32m1_sdk_riscv/rtos/freertos_9.0.0/Source/tasks.c:1456:11
	bltu	a0, a1, .LBB14_14
	j	.LBB14_13
.LBB14_13:                              # %if.then20
	.loc	2 0 11                          # C:/Vega/rv32m1_sdk_riscv/rtos/freertos_9.0.0/Source/tasks.c:0:11
	addi	a0, zero, 1
.Ltmp288:
	.loc	2 1458 23 is_stmt 1             # C:/Vega/rv32m1_sdk_riscv/rtos/freertos_9.0.0/Source/tasks.c:1458:23
	sw	a0, -32(s0)
	.loc	2 1459 7                        # C:/Vega/rv32m1_sdk_riscv/rtos/freertos_9.0.0/Source/tasks.c:1459:7
	j	.LBB14_15
.Ltmp289:
.LBB14_14:                              # %if.else21
	.loc	2 0 7 is_stmt 0                 # C:/Vega/rv32m1_sdk_riscv/rtos/freertos_9.0.0/Source/tasks.c:0:7
	j	.LBB14_15
.LBB14_15:                              # %if.end22
	.loc	2 1464 6 is_stmt 1              # C:/Vega/rv32m1_sdk_riscv/rtos/freertos_9.0.0/Source/tasks.c:1464:6
	j	.LBB14_17
.Ltmp290:
.LBB14_16:                              # %if.else23
	.loc	2 0 6 is_stmt 0                 # C:/Vega/rv32m1_sdk_riscv/rtos/freertos_9.0.0/Source/tasks.c:0:6
	j	.LBB14_17
.LBB14_17:                              # %if.end24
	.loc	2 1471 5 is_stmt 1              # C:/Vega/rv32m1_sdk_riscv/rtos/freertos_9.0.0/Source/tasks.c:1471:5
	j	.LBB14_22
.Ltmp291:
.LBB14_18:                              # %if.else25
	.loc	2 1472 14                       # C:/Vega/rv32m1_sdk_riscv/rtos/freertos_9.0.0/Source/tasks.c:1472:14
	lw	a0, -20(s0)
	.loc	2 1472 23 is_stmt 0             # C:/Vega/rv32m1_sdk_riscv/rtos/freertos_9.0.0/Source/tasks.c:1472:23
	lui	a1, %hi(pxCurrentTCB)
	lw	a1, %lo(pxCurrentTCB)(a1)
.Ltmp292:
	.loc	2 1472 14                       # C:/Vega/rv32m1_sdk_riscv/rtos/freertos_9.0.0/Source/tasks.c:1472:14
	bne	a0, a1, .LBB14_20
	j	.LBB14_19
.LBB14_19:                              # %if.then28
	.loc	2 0 14                          # C:/Vega/rv32m1_sdk_riscv/rtos/freertos_9.0.0/Source/tasks.c:0:14
	addi	a0, zero, 1
.Ltmp293:
	.loc	2 1477 21 is_stmt 1             # C:/Vega/rv32m1_sdk_riscv/rtos/freertos_9.0.0/Source/tasks.c:1477:21
	sw	a0, -32(s0)
	.loc	2 1478 5                        # C:/Vega/rv32m1_sdk_riscv/rtos/freertos_9.0.0/Source/tasks.c:1478:5
	j	.LBB14_21
.Ltmp294:
.LBB14_20:                              # %if.else29
	.loc	2 0 5 is_stmt 0                 # C:/Vega/rv32m1_sdk_riscv/rtos/freertos_9.0.0/Source/tasks.c:0:5
	j	.LBB14_21
.LBB14_21:                              # %if.end30
	j	.LBB14_22
.LBB14_22:                              # %if.end31
	.loc	2 1489 29 is_stmt 1             # C:/Vega/rv32m1_sdk_riscv/rtos/freertos_9.0.0/Source/tasks.c:1489:29
	lw	a0, -20(s0)
	.loc	2 1489 36 is_stmt 0             # C:/Vega/rv32m1_sdk_riscv/rtos/freertos_9.0.0/Source/tasks.c:1489:36
	lw	a0, 44(a0)
	.loc	2 1489 27                       # C:/Vega/rv32m1_sdk_riscv/rtos/freertos_9.0.0/Source/tasks.c:1489:27
	sw	a0, -28(s0)
.Ltmp295:
	.loc	2 1495 10 is_stmt 1             # C:/Vega/rv32m1_sdk_riscv/rtos/freertos_9.0.0/Source/tasks.c:1495:10
	lw	a0, -20(s0)
	.loc	2 1495 17 is_stmt 0             # C:/Vega/rv32m1_sdk_riscv/rtos/freertos_9.0.0/Source/tasks.c:1495:17
	lw	a1, 84(a0)
	.loc	2 1495 42                       # C:/Vega/rv32m1_sdk_riscv/rtos/freertos_9.0.0/Source/tasks.c:1495:42
	lw	a0, 44(a0)
.Ltmp296:
	.loc	2 1495 10                       # C:/Vega/rv32m1_sdk_riscv/rtos/freertos_9.0.0/Source/tasks.c:1495:10
	bne	a1, a0, .LBB14_24
	j	.LBB14_23
.LBB14_23:                              # %if.then37
.Ltmp297:
	.loc	2 1497 27 is_stmt 1             # C:/Vega/rv32m1_sdk_riscv/rtos/freertos_9.0.0/Source/tasks.c:1497:27
	lw	a0, -16(s0)
	.loc	2 1497 7 is_stmt 0              # C:/Vega/rv32m1_sdk_riscv/rtos/freertos_9.0.0/Source/tasks.c:1497:7
	lw	a1, -20(s0)
	.loc	2 1497 25                       # C:/Vega/rv32m1_sdk_riscv/rtos/freertos_9.0.0/Source/tasks.c:1497:25
	sw	a0, 44(a1)
	.loc	2 1498 6 is_stmt 1              # C:/Vega/rv32m1_sdk_riscv/rtos/freertos_9.0.0/Source/tasks.c:1498:6
	j	.LBB14_25
.Ltmp298:
.LBB14_24:                              # %if.else39
	.loc	2 0 6 is_stmt 0                 # C:/Vega/rv32m1_sdk_riscv/rtos/freertos_9.0.0/Source/tasks.c:0:6
	j	.LBB14_25
.LBB14_25:                              # %if.end40
	.loc	2 1505 30 is_stmt 1             # C:/Vega/rv32m1_sdk_riscv/rtos/freertos_9.0.0/Source/tasks.c:1505:30
	lw	a0, -16(s0)
	.loc	2 1505 6 is_stmt 0              # C:/Vega/rv32m1_sdk_riscv/rtos/freertos_9.0.0/Source/tasks.c:1505:6
	lw	a1, -20(s0)
	.loc	2 1505 28                       # C:/Vega/rv32m1_sdk_riscv/rtos/freertos_9.0.0/Source/tasks.c:1505:28
	sw	a0, 84(a1)
.Ltmp299:
	.loc	2 1515 18 is_stmt 1             # C:/Vega/rv32m1_sdk_riscv/rtos/freertos_9.0.0/Source/tasks.c:1515:18
	lw	a0, -20(s0)
	.loc	2 1515 75 is_stmt 0             # C:/Vega/rv32m1_sdk_riscv/rtos/freertos_9.0.0/Source/tasks.c:1515:75
	lbu	a0, 27(a0)
	andi	a0, a0, 128
	mv	a1, zero
.Ltmp300:
	.loc	2 1515 9                        # C:/Vega/rv32m1_sdk_riscv/rtos/freertos_9.0.0/Source/tasks.c:1515:9
	bne	a0, a1, .LBB14_27
	j	.LBB14_26
.LBB14_26:                              # %if.then44
.Ltmp301:
	.loc	2 1517 91 is_stmt 1             # C:/Vega/rv32m1_sdk_riscv/rtos/freertos_9.0.0/Source/tasks.c:1517:91
	lw	a0, -16(s0)
	addi	a1, zero, 5
	.loc	2 1517 74 is_stmt 0             # C:/Vega/rv32m1_sdk_riscv/rtos/freertos_9.0.0/Source/tasks.c:1517:74
	sub	a0, a1, a0
	.loc	2 1517 13                       # C:/Vega/rv32m1_sdk_riscv/rtos/freertos_9.0.0/Source/tasks.c:1517:13
	lw	a1, -20(s0)
	.loc	2 1517 51                       # C:/Vega/rv32m1_sdk_riscv/rtos/freertos_9.0.0/Source/tasks.c:1517:51
	sw	a0, 24(a1)
	.loc	2 1518 5 is_stmt 1              # C:/Vega/rv32m1_sdk_riscv/rtos/freertos_9.0.0/Source/tasks.c:1518:5
	j	.LBB14_28
.Ltmp302:
.LBB14_27:                              # %if.else47
	.loc	2 0 5 is_stmt 0                 # C:/Vega/rv32m1_sdk_riscv/rtos/freertos_9.0.0/Source/tasks.c:0:5
	j	.LBB14_28
.LBB14_28:                              # %if.end48
.Ltmp303:
	.loc	2 1528 33 is_stmt 1             # C:/Vega/rv32m1_sdk_riscv/rtos/freertos_9.0.0/Source/tasks.c:1528:33
	lw	a0, -20(s0)
	.loc	2 1528 60 is_stmt 0             # C:/Vega/rv32m1_sdk_riscv/rtos/freertos_9.0.0/Source/tasks.c:1528:60
	lw	a0, 20(a0)
	.loc	2 1528 110                      # C:/Vega/rv32m1_sdk_riscv/rtos/freertos_9.0.0/Source/tasks.c:1528:110
	lw	a1, -28(s0)
	addi	a2, zero, 20
	.loc	2 1528 91                       # C:/Vega/rv32m1_sdk_riscv/rtos/freertos_9.0.0/Source/tasks.c:1528:91
	sw	a0, -40(s0)
	mv	a0, a1
	mv	a1, a2
	call	__mulsi3
	lui	a1, %hi(pxReadyTasksLists)
	addi	a1, a1, %lo(pxReadyTasksLists)
	add	a0, a0, a1
.Ltmp304:
	.loc	2 1528 9                        # C:/Vega/rv32m1_sdk_riscv/rtos/freertos_9.0.0/Source/tasks.c:1528:9
	lw	a1, -40(s0)
	bne	a1, a0, .LBB14_35
	j	.LBB14_29
.LBB14_29:                              # %if.then53
.Ltmp305:
	.loc	2 1533 27 is_stmt 1             # C:/Vega/rv32m1_sdk_riscv/rtos/freertos_9.0.0/Source/tasks.c:1533:27
	lw	a0, -20(s0)
	.loc	2 1533 34 is_stmt 0             # C:/Vega/rv32m1_sdk_riscv/rtos/freertos_9.0.0/Source/tasks.c:1533:34
	addi	a0, a0, 4
	.loc	2 1533 10                       # C:/Vega/rv32m1_sdk_riscv/rtos/freertos_9.0.0/Source/tasks.c:1533:10
	call	uxListRemove
	mv	a1, zero
.Ltmp306:
	.loc	2 1533 10                       # C:/Vega/rv32m1_sdk_riscv/rtos/freertos_9.0.0/Source/tasks.c:1533:10
	bne	a0, a1, .LBB14_31
	j	.LBB14_30
.LBB14_30:                              # %if.then58
.Ltmp307:
	.loc	2 1539 6 is_stmt 1              # C:/Vega/rv32m1_sdk_riscv/rtos/freertos_9.0.0/Source/tasks.c:1539:6
	j	.LBB14_32
.Ltmp308:
.LBB14_31:                              # %if.else59
	.loc	2 0 6 is_stmt 0                 # C:/Vega/rv32m1_sdk_riscv/rtos/freertos_9.0.0/Source/tasks.c:0:6
	j	.LBB14_32
.LBB14_32:                              # %if.end60
.Ltmp309:
	.loc	2 1544 18 is_stmt 1             # C:/Vega/rv32m1_sdk_riscv/rtos/freertos_9.0.0/Source/tasks.c:1544:18
	lw	a0, -20(s0)
	.loc	2 1544 27 is_stmt 0             # C:/Vega/rv32m1_sdk_riscv/rtos/freertos_9.0.0/Source/tasks.c:1544:27
	lw	a0, 44(a0)
	.loc	2 1544 42                       # C:/Vega/rv32m1_sdk_riscv/rtos/freertos_9.0.0/Source/tasks.c:1544:42
	lui	a1, %hi(uxTopReadyPriority)
	lw	a1, %lo(uxTopReadyPriority)(a1)
.Ltmp310:
	.loc	2 1544 14                       # C:/Vega/rv32m1_sdk_riscv/rtos/freertos_9.0.0/Source/tasks.c:1544:14
	bgeu	a1, a0, .LBB14_34
	j	.LBB14_33
.LBB14_33:                              # %if.then64
.Ltmp311:
	.loc	2 1544 90                       # C:/Vega/rv32m1_sdk_riscv/rtos/freertos_9.0.0/Source/tasks.c:1544:90
	lw	a0, -20(s0)
	.loc	2 1544 99                       # C:/Vega/rv32m1_sdk_riscv/rtos/freertos_9.0.0/Source/tasks.c:1544:99
	lw	a0, 44(a0)
	.loc	2 1544 84                       # C:/Vega/rv32m1_sdk_riscv/rtos/freertos_9.0.0/Source/tasks.c:1544:84
	lui	a1, %hi(uxTopReadyPriority)
	sw	a0, %lo(uxTopReadyPriority)(a1)
	.loc	2 1544 113                      # C:/Vega/rv32m1_sdk_riscv/rtos/freertos_9.0.0/Source/tasks.c:1544:113
	j	.LBB14_34
.Ltmp312:
.LBB14_34:                              # %if.end66
	.loc	2 1544 158                      # C:/Vega/rv32m1_sdk_riscv/rtos/freertos_9.0.0/Source/tasks.c:1544:158
	lw	a0, -20(s0)
	.loc	2 1544 167                      # C:/Vega/rv32m1_sdk_riscv/rtos/freertos_9.0.0/Source/tasks.c:1544:167
	lw	a1, 44(a0)
	addi	a2, zero, 20
	.loc	2 1544 137                      # C:/Vega/rv32m1_sdk_riscv/rtos/freertos_9.0.0/Source/tasks.c:1544:137
	sw	a0, -44(s0)
	mv	a0, a1
	mv	a1, a2
	call	__mulsi3
	lui	a1, %hi(pxReadyTasksLists)
	addi	a1, a1, %lo(pxReadyTasksLists)
	add	a0, a0, a1
	.loc	2 1544 197                      # C:/Vega/rv32m1_sdk_riscv/rtos/freertos_9.0.0/Source/tasks.c:1544:197
	lw	a1, -44(s0)
	addi	a1, a1, 4
	.loc	2 1544 118                      # C:/Vega/rv32m1_sdk_riscv/rtos/freertos_9.0.0/Source/tasks.c:1544:118
	call	vListInsertEnd
	.loc	2 1545 5 is_stmt 1              # C:/Vega/rv32m1_sdk_riscv/rtos/freertos_9.0.0/Source/tasks.c:1545:5
	j	.LBB14_36
.Ltmp313:
.LBB14_35:                              # %if.else70
	.loc	2 0 5 is_stmt 0                 # C:/Vega/rv32m1_sdk_riscv/rtos/freertos_9.0.0/Source/tasks.c:0:5
	j	.LBB14_36
.LBB14_36:                              # %if.end71
.Ltmp314:
	.loc	2 1551 9 is_stmt 1              # C:/Vega/rv32m1_sdk_riscv/rtos/freertos_9.0.0/Source/tasks.c:1551:9
	lw	a0, -32(s0)
	mv	a1, zero
.Ltmp315:
	.loc	2 1551 9 is_stmt 0              # C:/Vega/rv32m1_sdk_riscv/rtos/freertos_9.0.0/Source/tasks.c:1551:9
	beq	a0, a1, .LBB14_38
	j	.LBB14_37
.LBB14_37:                              # %if.then74
.Ltmp316:
	.loc	2 1553 6 is_stmt 1              # C:/Vega/rv32m1_sdk_riscv/rtos/freertos_9.0.0/Source/tasks.c:1553:6
	call	portYIELD
	.loc	2 1554 5                        # C:/Vega/rv32m1_sdk_riscv/rtos/freertos_9.0.0/Source/tasks.c:1554:5
	j	.LBB14_39
.Ltmp317:
.LBB14_38:                              # %if.else75
	.loc	2 0 5 is_stmt 0                 # C:/Vega/rv32m1_sdk_riscv/rtos/freertos_9.0.0/Source/tasks.c:0:5
	j	.LBB14_39
.LBB14_39:                              # %if.end76
	.loc	2 1563 4 is_stmt 1              # C:/Vega/rv32m1_sdk_riscv/rtos/freertos_9.0.0/Source/tasks.c:1563:4
	j	.LBB14_40
.Ltmp318:
.LBB14_40:                              # %if.end77
	.loc	2 1565 3                        # C:/Vega/rv32m1_sdk_riscv/rtos/freertos_9.0.0/Source/tasks.c:1565:3
	call	vPortExitCritical
	.loc	2 1566 2                        # C:/Vega/rv32m1_sdk_riscv/rtos/freertos_9.0.0/Source/tasks.c:1566:2
	lw	s0, 40(sp)
	lw	ra, 44(sp)
	addi	sp, sp, 48
	ret
.Ltmp319:
.Lfunc_end14:
	.size	vTaskPrioritySet, .Lfunc_end14-vTaskPrioritySet
	.cfi_endproc
                                        # -- End function
	.section	.text.vTaskSuspend,"ax",@progbits
	.globl	vTaskSuspend                    # -- Begin function vTaskSuspend
	.p2align	2
	.type	vTaskSuspend,@function
vTaskSuspend:                           # @vTaskSuspend
.Lfunc_begin15:
	.loc	2 1574 0                        # C:/Vega/rv32m1_sdk_riscv/rtos/freertos_9.0.0/Source/tasks.c:1574:0
	.cfi_startproc
# %bb.0:                                # %entry
	addi	sp, sp, -32
	.cfi_def_cfa_offset 32
	sw	ra, 28(sp)
	sw	s0, 24(sp)
	.cfi_offset ra, -4
	.cfi_offset s0, -8
	addi	s0, sp, 32
	.cfi_def_cfa s0, 0
	sw	a0, -12(s0)
.Ltmp320:
	.loc	2 1577 3 prologue_end           # C:/Vega/rv32m1_sdk_riscv/rtos/freertos_9.0.0/Source/tasks.c:1577:3
	call	vPortEnterCritical
.Ltmp321:
	.loc	2 1581 18                       # C:/Vega/rv32m1_sdk_riscv/rtos/freertos_9.0.0/Source/tasks.c:1581:18
	lw	a0, -12(s0)
	mv	a1, zero
	.loc	2 1581 14 is_stmt 0             # C:/Vega/rv32m1_sdk_riscv/rtos/freertos_9.0.0/Source/tasks.c:1581:14
	bne	a0, a1, .LBB15_2
	j	.LBB15_1
.LBB15_1:                               # %cond.true
	.loc	2 1581 65                       # C:/Vega/rv32m1_sdk_riscv/rtos/freertos_9.0.0/Source/tasks.c:1581:65
	lui	a0, %hi(pxCurrentTCB)
	lw	a0, %lo(pxCurrentTCB)(a0)
	.loc	2 1581 14                       # C:/Vega/rv32m1_sdk_riscv/rtos/freertos_9.0.0/Source/tasks.c:1581:14
	sw	a0, -20(s0)
	j	.LBB15_3
.LBB15_2:                               # %cond.false
	.loc	2 1581 94                       # C:/Vega/rv32m1_sdk_riscv/rtos/freertos_9.0.0/Source/tasks.c:1581:94
	lw	a0, -12(s0)
	.loc	2 1581 14                       # C:/Vega/rv32m1_sdk_riscv/rtos/freertos_9.0.0/Source/tasks.c:1581:14
	sw	a0, -20(s0)
	j	.LBB15_3
.LBB15_3:                               # %cond.end
	lw	a0, -20(s0)
	.loc	2 1581 10                       # C:/Vega/rv32m1_sdk_riscv/rtos/freertos_9.0.0/Source/tasks.c:1581:10
	sw	a0, -16(s0)
.Ltmp322:
	.loc	2 1587 25 is_stmt 1             # C:/Vega/rv32m1_sdk_riscv/rtos/freertos_9.0.0/Source/tasks.c:1587:25
	lw	a0, -16(s0)
	.loc	2 1587 32 is_stmt 0             # C:/Vega/rv32m1_sdk_riscv/rtos/freertos_9.0.0/Source/tasks.c:1587:32
	addi	a0, a0, 4
	.loc	2 1587 8                        # C:/Vega/rv32m1_sdk_riscv/rtos/freertos_9.0.0/Source/tasks.c:1587:8
	call	uxListRemove
	mv	a1, zero
.Ltmp323:
	.loc	2 1587 8                        # C:/Vega/rv32m1_sdk_riscv/rtos/freertos_9.0.0/Source/tasks.c:1587:8
	bne	a0, a1, .LBB15_5
	j	.LBB15_4
.LBB15_4:                               # %if.then
.Ltmp324:
	.loc	2 1590 4 is_stmt 1              # C:/Vega/rv32m1_sdk_riscv/rtos/freertos_9.0.0/Source/tasks.c:1590:4
	j	.LBB15_6
.Ltmp325:
.LBB15_5:                               # %if.else
	.loc	2 0 4 is_stmt 0                 # C:/Vega/rv32m1_sdk_riscv/rtos/freertos_9.0.0/Source/tasks.c:0:4
	j	.LBB15_6
.LBB15_6:                               # %if.end
.Ltmp326:
	.loc	2 1597 15 is_stmt 1             # C:/Vega/rv32m1_sdk_riscv/rtos/freertos_9.0.0/Source/tasks.c:1597:15
	lw	a0, -16(s0)
	.loc	2 1597 42 is_stmt 0             # C:/Vega/rv32m1_sdk_riscv/rtos/freertos_9.0.0/Source/tasks.c:1597:42
	lw	a0, 40(a0)
	mv	a1, zero
.Ltmp327:
	.loc	2 1597 8                        # C:/Vega/rv32m1_sdk_riscv/rtos/freertos_9.0.0/Source/tasks.c:1597:8
	beq	a0, a1, .LBB15_8
	j	.LBB15_7
.LBB15_7:                               # %if.then3
.Ltmp328:
	.loc	2 1599 31 is_stmt 1             # C:/Vega/rv32m1_sdk_riscv/rtos/freertos_9.0.0/Source/tasks.c:1599:31
	lw	a0, -16(s0)
	.loc	2 1599 38 is_stmt 0             # C:/Vega/rv32m1_sdk_riscv/rtos/freertos_9.0.0/Source/tasks.c:1599:38
	addi	a0, a0, 24
	.loc	2 1599 14                       # C:/Vega/rv32m1_sdk_riscv/rtos/freertos_9.0.0/Source/tasks.c:1599:14
	call	uxListRemove
	.loc	2 1600 4 is_stmt 1              # C:/Vega/rv32m1_sdk_riscv/rtos/freertos_9.0.0/Source/tasks.c:1600:4
	j	.LBB15_9
.Ltmp329:
.LBB15_8:                               # %if.else6
	.loc	2 0 4 is_stmt 0                 # C:/Vega/rv32m1_sdk_riscv/rtos/freertos_9.0.0/Source/tasks.c:0:4
	j	.LBB15_9
.LBB15_9:                               # %if.end7
	.loc	2 1606 44 is_stmt 1             # C:/Vega/rv32m1_sdk_riscv/rtos/freertos_9.0.0/Source/tasks.c:1606:44
	lw	a0, -16(s0)
	.loc	2 1606 51 is_stmt 0             # C:/Vega/rv32m1_sdk_riscv/rtos/freertos_9.0.0/Source/tasks.c:1606:51
	addi	a1, a0, 4
	.loc	2 1606 4                        # C:/Vega/rv32m1_sdk_riscv/rtos/freertos_9.0.0/Source/tasks.c:1606:4
	lui	a0, %hi(xSuspendedTaskList)
	addi	a0, a0, %lo(xSuspendedTaskList)
	call	vListInsertEnd
.Ltmp330:
	.loc	2 1608 3 is_stmt 1              # C:/Vega/rv32m1_sdk_riscv/rtos/freertos_9.0.0/Source/tasks.c:1608:3
	call	vPortExitCritical
.Ltmp331:
	.loc	2 1610 7                        # C:/Vega/rv32m1_sdk_riscv/rtos/freertos_9.0.0/Source/tasks.c:1610:7
	lui	a0, %hi(xSchedulerRunning)
	lw	a0, %lo(xSchedulerRunning)(a0)
	mv	a1, zero
.Ltmp332:
	.loc	2 1610 7 is_stmt 0              # C:/Vega/rv32m1_sdk_riscv/rtos/freertos_9.0.0/Source/tasks.c:1610:7
	beq	a0, a1, .LBB15_11
	j	.LBB15_10
.LBB15_10:                              # %if.then10
.Ltmp333:
	.loc	2 1614 4 is_stmt 1              # C:/Vega/rv32m1_sdk_riscv/rtos/freertos_9.0.0/Source/tasks.c:1614:4
	call	vPortEnterCritical
.Ltmp334:
	.loc	2 1616 5                        # C:/Vega/rv32m1_sdk_riscv/rtos/freertos_9.0.0/Source/tasks.c:1616:5
	call	prvResetNextTaskUnblockTime
.Ltmp335:
	.loc	2 1618 4                        # C:/Vega/rv32m1_sdk_riscv/rtos/freertos_9.0.0/Source/tasks.c:1618:4
	call	vPortExitCritical
	.loc	2 1619 3                        # C:/Vega/rv32m1_sdk_riscv/rtos/freertos_9.0.0/Source/tasks.c:1619:3
	j	.LBB15_12
.Ltmp336:
.LBB15_11:                              # %if.else11
	.loc	2 0 3 is_stmt 0                 # C:/Vega/rv32m1_sdk_riscv/rtos/freertos_9.0.0/Source/tasks.c:0:3
	j	.LBB15_12
.LBB15_12:                              # %if.end12
.Ltmp337:
	.loc	2 1625 7 is_stmt 1              # C:/Vega/rv32m1_sdk_riscv/rtos/freertos_9.0.0/Source/tasks.c:1625:7
	lw	a0, -16(s0)
	.loc	2 1625 16 is_stmt 0             # C:/Vega/rv32m1_sdk_riscv/rtos/freertos_9.0.0/Source/tasks.c:1625:16
	lui	a1, %hi(pxCurrentTCB)
	lw	a1, %lo(pxCurrentTCB)(a1)
.Ltmp338:
	.loc	2 1625 7                        # C:/Vega/rv32m1_sdk_riscv/rtos/freertos_9.0.0/Source/tasks.c:1625:7
	bne	a0, a1, .LBB15_23
	j	.LBB15_13
.LBB15_13:                              # %if.then14
.Ltmp339:
	.loc	2 1627 8 is_stmt 1              # C:/Vega/rv32m1_sdk_riscv/rtos/freertos_9.0.0/Source/tasks.c:1627:8
	lui	a0, %hi(xSchedulerRunning)
	lw	a0, %lo(xSchedulerRunning)(a0)
	mv	a1, zero
.Ltmp340:
	.loc	2 1627 8 is_stmt 0              # C:/Vega/rv32m1_sdk_riscv/rtos/freertos_9.0.0/Source/tasks.c:1627:8
	beq	a0, a1, .LBB15_18
	j	.LBB15_14
.LBB15_14:                              # %if.then16
.Ltmp341:
	.loc	2 1630 10 is_stmt 1             # C:/Vega/rv32m1_sdk_riscv/rtos/freertos_9.0.0/Source/tasks.c:1630:10
	lui	a0, %hi(uxSchedulerSuspended)
	lw	a0, %lo(uxSchedulerSuspended)(a0)
	mv	a1, zero
.Ltmp342:
	.loc	2 1630 8 is_stmt 0              # C:/Vega/rv32m1_sdk_riscv/rtos/freertos_9.0.0/Source/tasks.c:1630:8
	beq	a0, a1, .LBB15_17
	j	.LBB15_15
.LBB15_15:                              # %if.then20
.Ltmp343:
	.loc	2 1630 44                       # C:/Vega/rv32m1_sdk_riscv/rtos/freertos_9.0.0/Source/tasks.c:1630:44
	call	vPortSetInterruptMask
	.loc	2 1630 69                       # C:/Vega/rv32m1_sdk_riscv/rtos/freertos_9.0.0/Source/tasks.c:1630:69
	j	.LBB15_16
.LBB15_16:                              # %for.cond
                                        # =>This Inner Loop Header: Depth=1
.Ltmp344:
	.loc	2 1630 69                       # C:/Vega/rv32m1_sdk_riscv/rtos/freertos_9.0.0/Source/tasks.c:1630:69
	j	.LBB15_16
.Ltmp345:
.LBB15_17:                              # %if.end22
	.loc	2 1631 5 is_stmt 1              # C:/Vega/rv32m1_sdk_riscv/rtos/freertos_9.0.0/Source/tasks.c:1631:5
	call	portYIELD
	.loc	2 1632 4                        # C:/Vega/rv32m1_sdk_riscv/rtos/freertos_9.0.0/Source/tasks.c:1632:4
	j	.LBB15_22
.Ltmp346:
.LBB15_18:                              # %if.else23
	.loc	2 1638 36                       # C:/Vega/rv32m1_sdk_riscv/rtos/freertos_9.0.0/Source/tasks.c:1638:36
	lui	a0, %hi(xSuspendedTaskList)
	lw	a0, %lo(xSuspendedTaskList)(a0)
	.loc	2 1638 57 is_stmt 0             # C:/Vega/rv32m1_sdk_riscv/rtos/freertos_9.0.0/Source/tasks.c:1638:57
	lui	a1, %hi(uxCurrentNumberOfTasks)
	lw	a1, %lo(uxCurrentNumberOfTasks)(a1)
.Ltmp347:
	.loc	2 1638 9                        # C:/Vega/rv32m1_sdk_riscv/rtos/freertos_9.0.0/Source/tasks.c:1638:9
	bne	a0, a1, .LBB15_20
	j	.LBB15_19
.LBB15_19:                              # %if.then26
.Ltmp348:
	.loc	2 1644 19 is_stmt 1             # C:/Vega/rv32m1_sdk_riscv/rtos/freertos_9.0.0/Source/tasks.c:1644:19
	lui	a0, %hi(pxCurrentTCB)
	mv	a1, zero
	sw	a1, %lo(pxCurrentTCB)(a0)
	.loc	2 1645 5                        # C:/Vega/rv32m1_sdk_riscv/rtos/freertos_9.0.0/Source/tasks.c:1645:5
	j	.LBB15_21
.Ltmp349:
.LBB15_20:                              # %if.else27
	.loc	2 1648 6                        # C:/Vega/rv32m1_sdk_riscv/rtos/freertos_9.0.0/Source/tasks.c:1648:6
	call	vTaskSwitchContext
	j	.LBB15_21
.Ltmp350:
.LBB15_21:                              # %if.end28
	.loc	2 0 6 is_stmt 0                 # C:/Vega/rv32m1_sdk_riscv/rtos/freertos_9.0.0/Source/tasks.c:0:6
	j	.LBB15_22
.LBB15_22:                              # %if.end29
	.loc	2 1651 3 is_stmt 1              # C:/Vega/rv32m1_sdk_riscv/rtos/freertos_9.0.0/Source/tasks.c:1651:3
	j	.LBB15_24
.Ltmp351:
.LBB15_23:                              # %if.else30
	.loc	2 0 3 is_stmt 0                 # C:/Vega/rv32m1_sdk_riscv/rtos/freertos_9.0.0/Source/tasks.c:0:3
	j	.LBB15_24
.LBB15_24:                              # %if.end31
	.loc	2 1656 2 is_stmt 1              # C:/Vega/rv32m1_sdk_riscv/rtos/freertos_9.0.0/Source/tasks.c:1656:2
	lw	s0, 24(sp)
	lw	ra, 28(sp)
	addi	sp, sp, 32
	ret
.Ltmp352:
.Lfunc_end15:
	.size	vTaskSuspend, .Lfunc_end15-vTaskSuspend
	.cfi_endproc
                                        # -- End function
	.section	.text.vTaskSwitchContext,"ax",@progbits
	.globl	vTaskSwitchContext              # -- Begin function vTaskSwitchContext
	.p2align	2
	.type	vTaskSwitchContext,@function
vTaskSwitchContext:                     # @vTaskSwitchContext
.Lfunc_begin16:
	.loc	2 2769 0                        # C:/Vega/rv32m1_sdk_riscv/rtos/freertos_9.0.0/Source/tasks.c:2769:0
	.cfi_startproc
# %bb.0:                                # %entry
	addi	sp, sp, -16
	.cfi_def_cfa_offset 16
.Ltmp353:
	.loc	2 2770 6 prologue_end           # C:/Vega/rv32m1_sdk_riscv/rtos/freertos_9.0.0/Source/tasks.c:2770:6
	sw	ra, 12(sp)
	sw	s0, 8(sp)
	.cfi_offset ra, -4
	.cfi_offset s0, -8
	addi	s0, sp, 16
	.cfi_def_cfa s0, 0
	lui	a0, %hi(uxSchedulerSuspended)
	lw	a0, %lo(uxSchedulerSuspended)(a0)
	mv	a1, zero
.Ltmp354:
	.loc	2 2770 6 is_stmt 0              # C:/Vega/rv32m1_sdk_riscv/rtos/freertos_9.0.0/Source/tasks.c:2770:6
	beq	a0, a1, .LBB16_2
	j	.LBB16_1
.LBB16_1:                               # %if.then
.Ltmp355:
	.loc	2 2774 17 is_stmt 1             # C:/Vega/rv32m1_sdk_riscv/rtos/freertos_9.0.0/Source/tasks.c:2774:17
	lui	a0, %hi(xYieldPending)
	addi	a1, zero, 1
	sw	a1, %lo(xYieldPending)(a0)
	.loc	2 2775 2                        # C:/Vega/rv32m1_sdk_riscv/rtos/freertos_9.0.0/Source/tasks.c:2775:2
	j	.LBB16_11
.Ltmp356:
.LBB16_2:                               # %if.else
	.loc	2 2778 17                       # C:/Vega/rv32m1_sdk_riscv/rtos/freertos_9.0.0/Source/tasks.c:2778:17
	lui	a0, %hi(xYieldPending)
	mv	a1, zero
	sw	a1, %lo(xYieldPending)(a0)
.Ltmp357:
	.loc	2 2813 33                       # C:/Vega/rv32m1_sdk_riscv/rtos/freertos_9.0.0/Source/tasks.c:2813:33
	lui	a0, %hi(uxTopReadyPriority)
	lw	a0, %lo(uxTopReadyPriority)(a0)
	.loc	2 2813 17 is_stmt 0             # C:/Vega/rv32m1_sdk_riscv/rtos/freertos_9.0.0/Source/tasks.c:2813:17
	sw	a0, -12(s0)
	.loc	2 2813 53                       # C:/Vega/rv32m1_sdk_riscv/rtos/freertos_9.0.0/Source/tasks.c:2813:53
	j	.LBB16_3
.LBB16_3:                               # %while.cond
                                        # =>This Inner Loop Header: Depth=1
	.loc	2 2813 103                      # C:/Vega/rv32m1_sdk_riscv/rtos/freertos_9.0.0/Source/tasks.c:2813:103
	lw	a0, -12(s0)
	addi	a1, zero, 20
	.loc	2 2813 84                       # C:/Vega/rv32m1_sdk_riscv/rtos/freertos_9.0.0/Source/tasks.c:2813:84
	call	__mulsi3
	lui	a1, %hi(pxReadyTasksLists)
	addi	a1, a1, %lo(pxReadyTasksLists)
	add	a0, a0, a1
	.loc	2 2813 124                      # C:/Vega/rv32m1_sdk_riscv/rtos/freertos_9.0.0/Source/tasks.c:2813:124
	lw	a0, 0(a0)
	mv	a1, zero
	.loc	2 2813 53                       # C:/Vega/rv32m1_sdk_riscv/rtos/freertos_9.0.0/Source/tasks.c:2813:53
	bne	a0, a1, .LBB16_8
	j	.LBB16_4
.LBB16_4:                               # %while.body
                                        #   in Loop: Header=BB16_3 Depth=1
.Ltmp358:
	.loc	2 2813 174                      # C:/Vega/rv32m1_sdk_riscv/rtos/freertos_9.0.0/Source/tasks.c:2813:174
	lw	a0, -12(s0)
	mv	a1, zero
.Ltmp359:
	.loc	2 2813 172                      # C:/Vega/rv32m1_sdk_riscv/rtos/freertos_9.0.0/Source/tasks.c:2813:172
	bne	a0, a1, .LBB16_7
	j	.LBB16_5
.LBB16_5:                               # %if.then3
.Ltmp360:
	.loc	2 2813 196                      # C:/Vega/rv32m1_sdk_riscv/rtos/freertos_9.0.0/Source/tasks.c:2813:196
	call	vPortSetInterruptMask
	.loc	2 2813 221                      # C:/Vega/rv32m1_sdk_riscv/rtos/freertos_9.0.0/Source/tasks.c:2813:221
	j	.LBB16_6
.LBB16_6:                               # %for.cond
                                        # =>This Inner Loop Header: Depth=1
.Ltmp361:
	.loc	2 2813 221                      # C:/Vega/rv32m1_sdk_riscv/rtos/freertos_9.0.0/Source/tasks.c:2813:221
	j	.LBB16_6
.Ltmp362:
.LBB16_7:                               # %if.end
                                        #   in Loop: Header=BB16_3 Depth=1
	.loc	2 2813 233                      # C:/Vega/rv32m1_sdk_riscv/rtos/freertos_9.0.0/Source/tasks.c:2813:233
	lw	a0, -12(s0)
	addi	a0, a0, -1
	sw	a0, -12(s0)
.Ltmp363:
	.loc	2 2813 53                       # C:/Vega/rv32m1_sdk_riscv/rtos/freertos_9.0.0/Source/tasks.c:2813:53
	j	.LBB16_3
.LBB16_8:                               # %while.end
.Ltmp364:
	.loc	2 2813 307                      # C:/Vega/rv32m1_sdk_riscv/rtos/freertos_9.0.0/Source/tasks.c:2813:307
	lw	a0, -12(s0)
	addi	a1, zero, 20
	.loc	2 2813 288                      # C:/Vega/rv32m1_sdk_riscv/rtos/freertos_9.0.0/Source/tasks.c:2813:288
	call	__mulsi3
	lui	a1, %hi(pxReadyTasksLists)
	addi	a1, a1, %lo(pxReadyTasksLists)
	add	a0, a0, a1
	.loc	2 2813 269                      # C:/Vega/rv32m1_sdk_riscv/rtos/freertos_9.0.0/Source/tasks.c:2813:269
	sw	a0, -16(s0)
	.loc	2 2813 357                      # C:/Vega/rv32m1_sdk_riscv/rtos/freertos_9.0.0/Source/tasks.c:2813:357
	lw	a0, -16(s0)
	.loc	2 2813 372                      # C:/Vega/rv32m1_sdk_riscv/rtos/freertos_9.0.0/Source/tasks.c:2813:372
	lw	a1, 4(a0)
	.loc	2 2813 381                      # C:/Vega/rv32m1_sdk_riscv/rtos/freertos_9.0.0/Source/tasks.c:2813:381
	lw	a1, 4(a1)
	.loc	2 2813 353                      # C:/Vega/rv32m1_sdk_riscv/rtos/freertos_9.0.0/Source/tasks.c:2813:353
	sw	a1, 4(a0)
.Ltmp365:
	.loc	2 2813 406                      # C:/Vega/rv32m1_sdk_riscv/rtos/freertos_9.0.0/Source/tasks.c:2813:406
	lw	a0, -16(s0)
	.loc	2 2813 421                      # C:/Vega/rv32m1_sdk_riscv/rtos/freertos_9.0.0/Source/tasks.c:2813:421
	lw	a1, 4(a0)
	.loc	2 2813 463                      # C:/Vega/rv32m1_sdk_riscv/rtos/freertos_9.0.0/Source/tasks.c:2813:463
	addi	a0, a0, 8
.Ltmp366:
	.loc	2 2813 393                      # C:/Vega/rv32m1_sdk_riscv/rtos/freertos_9.0.0/Source/tasks.c:2813:393
	bne	a1, a0, .LBB16_10
	j	.LBB16_9
.LBB16_9:                               # %if.then8
.Ltmp367:
	.loc	2 2813 507                      # C:/Vega/rv32m1_sdk_riscv/rtos/freertos_9.0.0/Source/tasks.c:2813:507
	lw	a0, -16(s0)
	.loc	2 2813 522                      # C:/Vega/rv32m1_sdk_riscv/rtos/freertos_9.0.0/Source/tasks.c:2813:522
	lw	a1, 4(a0)
	.loc	2 2813 531                      # C:/Vega/rv32m1_sdk_riscv/rtos/freertos_9.0.0/Source/tasks.c:2813:531
	lw	a1, 4(a1)
	.loc	2 2813 503                      # C:/Vega/rv32m1_sdk_riscv/rtos/freertos_9.0.0/Source/tasks.c:2813:503
	sw	a1, 4(a0)
	.loc	2 2813 539                      # C:/Vega/rv32m1_sdk_riscv/rtos/freertos_9.0.0/Source/tasks.c:2813:539
	j	.LBB16_10
.Ltmp368:
.LBB16_10:                              # %if.end12
	.loc	2 2813 562                      # C:/Vega/rv32m1_sdk_riscv/rtos/freertos_9.0.0/Source/tasks.c:2813:562
	lw	a0, -16(s0)
	.loc	2 2813 577                      # C:/Vega/rv32m1_sdk_riscv/rtos/freertos_9.0.0/Source/tasks.c:2813:577
	lw	a0, 4(a0)
	.loc	2 2813 586                      # C:/Vega/rv32m1_sdk_riscv/rtos/freertos_9.0.0/Source/tasks.c:2813:586
	lw	a0, 12(a0)
	.loc	2 2813 558                      # C:/Vega/rv32m1_sdk_riscv/rtos/freertos_9.0.0/Source/tasks.c:2813:558
	lui	a1, %hi(pxCurrentTCB)
	sw	a0, %lo(pxCurrentTCB)(a1)
.Ltmp369:
	.loc	2 2813 619                      # C:/Vega/rv32m1_sdk_riscv/rtos/freertos_9.0.0/Source/tasks.c:2813:619
	lw	a0, -12(s0)
	.loc	2 2813 617                      # C:/Vega/rv32m1_sdk_riscv/rtos/freertos_9.0.0/Source/tasks.c:2813:617
	lui	a1, %hi(uxTopReadyPriority)
	sw	a0, %lo(uxTopReadyPriority)(a1)
	j	.LBB16_11
.Ltmp370:
.LBB16_11:                              # %if.end14
	.loc	2 2824 1 is_stmt 1              # C:/Vega/rv32m1_sdk_riscv/rtos/freertos_9.0.0/Source/tasks.c:2824:1
	lw	s0, 8(sp)
	lw	ra, 12(sp)
	addi	sp, sp, 16
	ret
.Ltmp371:
.Lfunc_end16:
	.size	vTaskSwitchContext, .Lfunc_end16-vTaskSwitchContext
	.cfi_endproc
                                        # -- End function
	.section	.text.vTaskResume,"ax",@progbits
	.globl	vTaskResume                     # -- Begin function vTaskResume
	.p2align	2
	.type	vTaskResume,@function
vTaskResume:                            # @vTaskResume
.Lfunc_begin17:
	.loc	2 1710 0                        # C:/Vega/rv32m1_sdk_riscv/rtos/freertos_9.0.0/Source/tasks.c:1710:0
	.cfi_startproc
# %bb.0:                                # %entry
	addi	sp, sp, -32
	.cfi_def_cfa_offset 32
	sw	ra, 28(sp)
	sw	s0, 24(sp)
	.cfi_offset ra, -4
	.cfi_offset s0, -8
	addi	s0, sp, 32
	.cfi_def_cfa s0, 0
	sw	a0, -12(s0)
.Ltmp372:
	.loc	2 1711 36 prologue_end          # C:/Vega/rv32m1_sdk_riscv/rtos/freertos_9.0.0/Source/tasks.c:1711:36
	lw	a0, -12(s0)
	.loc	2 1711 16 is_stmt 0             # C:/Vega/rv32m1_sdk_riscv/rtos/freertos_9.0.0/Source/tasks.c:1711:16
	sw	a0, -16(s0)
.Ltmp373:
	.loc	2 1714 8 is_stmt 1              # C:/Vega/rv32m1_sdk_riscv/rtos/freertos_9.0.0/Source/tasks.c:1714:8
	lw	a0, -12(s0)
	mv	a1, zero
.Ltmp374:
	.loc	2 1714 6 is_stmt 0              # C:/Vega/rv32m1_sdk_riscv/rtos/freertos_9.0.0/Source/tasks.c:1714:6
	bne	a0, a1, .LBB17_3
	j	.LBB17_1
.LBB17_1:                               # %if.then
.Ltmp375:
	.loc	2 1714 30                       # C:/Vega/rv32m1_sdk_riscv/rtos/freertos_9.0.0/Source/tasks.c:1714:30
	call	vPortSetInterruptMask
	.loc	2 1714 55                       # C:/Vega/rv32m1_sdk_riscv/rtos/freertos_9.0.0/Source/tasks.c:1714:55
	j	.LBB17_2
.LBB17_2:                               # %for.cond
                                        # =>This Inner Loop Header: Depth=1
.Ltmp376:
	.loc	2 1714 55                       # C:/Vega/rv32m1_sdk_riscv/rtos/freertos_9.0.0/Source/tasks.c:1714:55
	j	.LBB17_2
.Ltmp377:
.LBB17_3:                               # %if.end
	.loc	2 1718 9 is_stmt 1              # C:/Vega/rv32m1_sdk_riscv/rtos/freertos_9.0.0/Source/tasks.c:1718:9
	lw	a0, -16(s0)
	mv	a1, zero
	.loc	2 1718 31 is_stmt 0             # C:/Vega/rv32m1_sdk_riscv/rtos/freertos_9.0.0/Source/tasks.c:1718:31
	beq	a0, a1, .LBB17_14
	j	.LBB17_4
.LBB17_4:                               # %land.lhs.true
	.loc	2 1718 36                       # C:/Vega/rv32m1_sdk_riscv/rtos/freertos_9.0.0/Source/tasks.c:1718:36
	lw	a0, -16(s0)
	.loc	2 1718 45                       # C:/Vega/rv32m1_sdk_riscv/rtos/freertos_9.0.0/Source/tasks.c:1718:45
	lui	a1, %hi(pxCurrentTCB)
	lw	a1, %lo(pxCurrentTCB)(a1)
.Ltmp378:
	.loc	2 1718 7                        # C:/Vega/rv32m1_sdk_riscv/rtos/freertos_9.0.0/Source/tasks.c:1718:7
	beq	a0, a1, .LBB17_14
	j	.LBB17_5
.LBB17_5:                               # %if.then3
.Ltmp379:
	.loc	2 1720 4 is_stmt 1              # C:/Vega/rv32m1_sdk_riscv/rtos/freertos_9.0.0/Source/tasks.c:1720:4
	call	vPortEnterCritical
.Ltmp380:
	.loc	2 1722 33                       # C:/Vega/rv32m1_sdk_riscv/rtos/freertos_9.0.0/Source/tasks.c:1722:33
	lw	a0, -16(s0)
	.loc	2 1722 9 is_stmt 0              # C:/Vega/rv32m1_sdk_riscv/rtos/freertos_9.0.0/Source/tasks.c:1722:9
	call	prvTaskIsTaskSuspended
	mv	a1, zero
.Ltmp381:
	.loc	2 1722 9                        # C:/Vega/rv32m1_sdk_riscv/rtos/freertos_9.0.0/Source/tasks.c:1722:9
	beq	a0, a1, .LBB17_12
	j	.LBB17_6
.LBB17_6:                               # %if.then6
.Ltmp382:
	.loc	2 1728 32 is_stmt 1             # C:/Vega/rv32m1_sdk_riscv/rtos/freertos_9.0.0/Source/tasks.c:1728:32
	lw	a0, -16(s0)
	.loc	2 1728 39 is_stmt 0             # C:/Vega/rv32m1_sdk_riscv/rtos/freertos_9.0.0/Source/tasks.c:1728:39
	addi	a0, a0, 4
	.loc	2 1728 15                       # C:/Vega/rv32m1_sdk_riscv/rtos/freertos_9.0.0/Source/tasks.c:1728:15
	call	uxListRemove
.Ltmp383:
	.loc	2 1729 18 is_stmt 1             # C:/Vega/rv32m1_sdk_riscv/rtos/freertos_9.0.0/Source/tasks.c:1729:18
	lw	a1, -16(s0)
	.loc	2 1729 27 is_stmt 0             # C:/Vega/rv32m1_sdk_riscv/rtos/freertos_9.0.0/Source/tasks.c:1729:27
	lw	a1, 44(a1)
	.loc	2 1729 42                       # C:/Vega/rv32m1_sdk_riscv/rtos/freertos_9.0.0/Source/tasks.c:1729:42
	lui	a2, %hi(uxTopReadyPriority)
	lw	a2, %lo(uxTopReadyPriority)(a2)
.Ltmp384:
	.loc	2 1729 14                       # C:/Vega/rv32m1_sdk_riscv/rtos/freertos_9.0.0/Source/tasks.c:1729:14
	bgeu	a2, a1, .LBB17_8
	j	.LBB17_7
.LBB17_7:                               # %if.then9
.Ltmp385:
	.loc	2 1729 90                       # C:/Vega/rv32m1_sdk_riscv/rtos/freertos_9.0.0/Source/tasks.c:1729:90
	lw	a0, -16(s0)
	.loc	2 1729 99                       # C:/Vega/rv32m1_sdk_riscv/rtos/freertos_9.0.0/Source/tasks.c:1729:99
	lw	a0, 44(a0)
	.loc	2 1729 84                       # C:/Vega/rv32m1_sdk_riscv/rtos/freertos_9.0.0/Source/tasks.c:1729:84
	lui	a1, %hi(uxTopReadyPriority)
	sw	a0, %lo(uxTopReadyPriority)(a1)
	.loc	2 1729 113                      # C:/Vega/rv32m1_sdk_riscv/rtos/freertos_9.0.0/Source/tasks.c:1729:113
	j	.LBB17_8
.Ltmp386:
.LBB17_8:                               # %if.end11
	.loc	2 1729 158                      # C:/Vega/rv32m1_sdk_riscv/rtos/freertos_9.0.0/Source/tasks.c:1729:158
	lw	a0, -16(s0)
	.loc	2 1729 167                      # C:/Vega/rv32m1_sdk_riscv/rtos/freertos_9.0.0/Source/tasks.c:1729:167
	lw	a1, 44(a0)
	addi	a2, zero, 20
	.loc	2 1729 137                      # C:/Vega/rv32m1_sdk_riscv/rtos/freertos_9.0.0/Source/tasks.c:1729:137
	sw	a0, -20(s0)
	mv	a0, a1
	mv	a1, a2
	call	__mulsi3
	lui	a1, %hi(pxReadyTasksLists)
	addi	a1, a1, %lo(pxReadyTasksLists)
	add	a0, a0, a1
	.loc	2 1729 197                      # C:/Vega/rv32m1_sdk_riscv/rtos/freertos_9.0.0/Source/tasks.c:1729:197
	lw	a1, -20(s0)
	addi	a1, a1, 4
	.loc	2 1729 118                      # C:/Vega/rv32m1_sdk_riscv/rtos/freertos_9.0.0/Source/tasks.c:1729:118
	call	vListInsertEnd
.Ltmp387:
	.loc	2 1732 10 is_stmt 1             # C:/Vega/rv32m1_sdk_riscv/rtos/freertos_9.0.0/Source/tasks.c:1732:10
	lw	a0, -16(s0)
	.loc	2 1732 17 is_stmt 0             # C:/Vega/rv32m1_sdk_riscv/rtos/freertos_9.0.0/Source/tasks.c:1732:17
	lw	a0, 44(a0)
	.loc	2 1732 31                       # C:/Vega/rv32m1_sdk_riscv/rtos/freertos_9.0.0/Source/tasks.c:1732:31
	lui	a1, %hi(pxCurrentTCB)
	lw	a1, %lo(pxCurrentTCB)(a1)
	.loc	2 1732 45                       # C:/Vega/rv32m1_sdk_riscv/rtos/freertos_9.0.0/Source/tasks.c:1732:45
	lw	a1, 44(a1)
.Ltmp388:
	.loc	2 1732 10                       # C:/Vega/rv32m1_sdk_riscv/rtos/freertos_9.0.0/Source/tasks.c:1732:10
	bltu	a0, a1, .LBB17_10
	j	.LBB17_9
.LBB17_9:                               # %if.then17
.Ltmp389:
	.loc	2 1737 7 is_stmt 1              # C:/Vega/rv32m1_sdk_riscv/rtos/freertos_9.0.0/Source/tasks.c:1737:7
	call	portYIELD
	.loc	2 1738 6                        # C:/Vega/rv32m1_sdk_riscv/rtos/freertos_9.0.0/Source/tasks.c:1738:6
	j	.LBB17_11
.Ltmp390:
.LBB17_10:                              # %if.else
	.loc	2 0 6 is_stmt 0                 # C:/Vega/rv32m1_sdk_riscv/rtos/freertos_9.0.0/Source/tasks.c:0:6
	j	.LBB17_11
.LBB17_11:                              # %if.end18
	.loc	2 1743 5 is_stmt 1              # C:/Vega/rv32m1_sdk_riscv/rtos/freertos_9.0.0/Source/tasks.c:1743:5
	j	.LBB17_13
.Ltmp391:
.LBB17_12:                              # %if.else19
	.loc	2 0 5 is_stmt 0                 # C:/Vega/rv32m1_sdk_riscv/rtos/freertos_9.0.0/Source/tasks.c:0:5
	j	.LBB17_13
.LBB17_13:                              # %if.end20
	.loc	2 1749 4 is_stmt 1              # C:/Vega/rv32m1_sdk_riscv/rtos/freertos_9.0.0/Source/tasks.c:1749:4
	call	vPortExitCritical
	.loc	2 1750 3                        # C:/Vega/rv32m1_sdk_riscv/rtos/freertos_9.0.0/Source/tasks.c:1750:3
	j	.LBB17_15
.Ltmp392:
.LBB17_14:                              # %if.else21
	.loc	2 0 3 is_stmt 0                 # C:/Vega/rv32m1_sdk_riscv/rtos/freertos_9.0.0/Source/tasks.c:0:3
	j	.LBB17_15
.LBB17_15:                              # %if.end22
	.loc	2 1755 2 is_stmt 1              # C:/Vega/rv32m1_sdk_riscv/rtos/freertos_9.0.0/Source/tasks.c:1755:2
	lw	s0, 24(sp)
	lw	ra, 28(sp)
	addi	sp, sp, 32
	ret
.Ltmp393:
.Lfunc_end17:
	.size	vTaskResume, .Lfunc_end17-vTaskResume
	.cfi_endproc
                                        # -- End function
	.section	.text.prvTaskIsTaskSuspended,"ax",@progbits
	.p2align	2                               # -- Begin function prvTaskIsTaskSuspended
	.type	prvTaskIsTaskSuspended,@function
prvTaskIsTaskSuspended:                 # @prvTaskIsTaskSuspended
.Lfunc_begin18:
	.loc	2 1664 0                        # C:/Vega/rv32m1_sdk_riscv/rtos/freertos_9.0.0/Source/tasks.c:1664:0
	.cfi_startproc
# %bb.0:                                # %entry
	addi	sp, sp, -32
	.cfi_def_cfa_offset 32
	sw	ra, 28(sp)
	sw	s0, 24(sp)
	.cfi_offset ra, -4
	.cfi_offset s0, -8
	addi	s0, sp, 32
	.cfi_def_cfa s0, 0
	sw	a0, -12(s0)
	mv	a0, zero
.Ltmp394:
	.loc	2 1665 13 prologue_end          # C:/Vega/rv32m1_sdk_riscv/rtos/freertos_9.0.0/Source/tasks.c:1665:13
	sw	a0, -16(s0)
	.loc	2 1666 42                       # C:/Vega/rv32m1_sdk_riscv/rtos/freertos_9.0.0/Source/tasks.c:1666:42
	lw	a1, -12(s0)
	.loc	2 1666 22 is_stmt 0             # C:/Vega/rv32m1_sdk_riscv/rtos/freertos_9.0.0/Source/tasks.c:1666:22
	sw	a1, -20(s0)
.Ltmp395:
	.loc	2 1672 8 is_stmt 1              # C:/Vega/rv32m1_sdk_riscv/rtos/freertos_9.0.0/Source/tasks.c:1672:8
	lw	a1, -12(s0)
.Ltmp396:
	.loc	2 1672 6 is_stmt 0              # C:/Vega/rv32m1_sdk_riscv/rtos/freertos_9.0.0/Source/tasks.c:1672:6
	bne	a1, a0, .LBB18_3
	j	.LBB18_1
.LBB18_1:                               # %if.then
.Ltmp397:
	.loc	2 1672 22                       # C:/Vega/rv32m1_sdk_riscv/rtos/freertos_9.0.0/Source/tasks.c:1672:22
	call	vPortSetInterruptMask
	.loc	2 1672 47                       # C:/Vega/rv32m1_sdk_riscv/rtos/freertos_9.0.0/Source/tasks.c:1672:47
	j	.LBB18_2
.LBB18_2:                               # %for.cond
                                        # =>This Inner Loop Header: Depth=1
.Ltmp398:
	.loc	2 1672 47                       # C:/Vega/rv32m1_sdk_riscv/rtos/freertos_9.0.0/Source/tasks.c:1672:47
	j	.LBB18_2
.Ltmp399:
.LBB18_3:                               # %if.end
	.loc	2 1675 31 is_stmt 1             # C:/Vega/rv32m1_sdk_riscv/rtos/freertos_9.0.0/Source/tasks.c:1675:31
	lw	a0, -20(s0)
	.loc	2 1675 58 is_stmt 0             # C:/Vega/rv32m1_sdk_riscv/rtos/freertos_9.0.0/Source/tasks.c:1675:58
	lw	a0, 20(a0)
	.loc	2 1675 70                       # C:/Vega/rv32m1_sdk_riscv/rtos/freertos_9.0.0/Source/tasks.c:1675:70
	lui	a1, %hi(xSuspendedTaskList)
	addi	a1, a1, %lo(xSuspendedTaskList)
.Ltmp400:
	.loc	2 1675 7                        # C:/Vega/rv32m1_sdk_riscv/rtos/freertos_9.0.0/Source/tasks.c:1675:7
	bne	a0, a1, .LBB18_11
	j	.LBB18_4
.LBB18_4:                               # %if.then4
.Ltmp401:
	.loc	2 1678 32 is_stmt 1             # C:/Vega/rv32m1_sdk_riscv/rtos/freertos_9.0.0/Source/tasks.c:1678:32
	lw	a0, -20(s0)
	.loc	2 1678 59 is_stmt 0             # C:/Vega/rv32m1_sdk_riscv/rtos/freertos_9.0.0/Source/tasks.c:1678:59
	lw	a0, 40(a0)
	.loc	2 1678 71                       # C:/Vega/rv32m1_sdk_riscv/rtos/freertos_9.0.0/Source/tasks.c:1678:71
	lui	a1, %hi(xPendingReadyList)
	addi	a1, a1, %lo(xPendingReadyList)
.Ltmp402:
	.loc	2 1678 8                        # C:/Vega/rv32m1_sdk_riscv/rtos/freertos_9.0.0/Source/tasks.c:1678:8
	beq	a0, a1, .LBB18_9
	j	.LBB18_5
.LBB18_5:                               # %if.then10
.Ltmp403:
	.loc	2 1682 33 is_stmt 1             # C:/Vega/rv32m1_sdk_riscv/rtos/freertos_9.0.0/Source/tasks.c:1682:33
	lw	a0, -20(s0)
	.loc	2 1682 60 is_stmt 0             # C:/Vega/rv32m1_sdk_riscv/rtos/freertos_9.0.0/Source/tasks.c:1682:60
	lw	a0, 40(a0)
	mv	a1, zero
.Ltmp404:
	.loc	2 1682 9                        # C:/Vega/rv32m1_sdk_riscv/rtos/freertos_9.0.0/Source/tasks.c:1682:9
	bne	a0, a1, .LBB18_7
	j	.LBB18_6
.LBB18_6:                               # %if.then17
	.loc	2 0 9                           # C:/Vega/rv32m1_sdk_riscv/rtos/freertos_9.0.0/Source/tasks.c:0:9
	addi	a0, zero, 1
.Ltmp405:
	.loc	2 1684 14 is_stmt 1             # C:/Vega/rv32m1_sdk_riscv/rtos/freertos_9.0.0/Source/tasks.c:1684:14
	sw	a0, -16(s0)
	.loc	2 1685 5                        # C:/Vega/rv32m1_sdk_riscv/rtos/freertos_9.0.0/Source/tasks.c:1685:5
	j	.LBB18_8
.Ltmp406:
.LBB18_7:                               # %if.else
	.loc	2 0 5 is_stmt 0                 # C:/Vega/rv32m1_sdk_riscv/rtos/freertos_9.0.0/Source/tasks.c:0:5
	j	.LBB18_8
.LBB18_8:                               # %if.end18
	.loc	2 1690 4 is_stmt 1              # C:/Vega/rv32m1_sdk_riscv/rtos/freertos_9.0.0/Source/tasks.c:1690:4
	j	.LBB18_10
.Ltmp407:
.LBB18_9:                               # %if.else19
	.loc	2 0 4 is_stmt 0                 # C:/Vega/rv32m1_sdk_riscv/rtos/freertos_9.0.0/Source/tasks.c:0:4
	j	.LBB18_10
.LBB18_10:                              # %if.end20
	.loc	2 1695 3 is_stmt 1              # C:/Vega/rv32m1_sdk_riscv/rtos/freertos_9.0.0/Source/tasks.c:1695:3
	j	.LBB18_12
.Ltmp408:
.LBB18_11:                              # %if.else21
	.loc	2 0 3 is_stmt 0                 # C:/Vega/rv32m1_sdk_riscv/rtos/freertos_9.0.0/Source/tasks.c:0:3
	j	.LBB18_12
.LBB18_12:                              # %if.end22
	.loc	2 1701 10 is_stmt 1             # C:/Vega/rv32m1_sdk_riscv/rtos/freertos_9.0.0/Source/tasks.c:1701:10
	lw	a0, -16(s0)
	.loc	2 1701 3 is_stmt 0              # C:/Vega/rv32m1_sdk_riscv/rtos/freertos_9.0.0/Source/tasks.c:1701:3
	lw	s0, 24(sp)
	lw	ra, 28(sp)
	addi	sp, sp, 32
	ret
.Ltmp409:
.Lfunc_end18:
	.size	prvTaskIsTaskSuspended, .Lfunc_end18-prvTaskIsTaskSuspended
	.cfi_endproc
                                        # -- End function
	.section	.text.xTaskResumeFromISR,"ax",@progbits
	.globl	xTaskResumeFromISR              # -- Begin function xTaskResumeFromISR
	.p2align	2
	.type	xTaskResumeFromISR,@function
xTaskResumeFromISR:                     # @xTaskResumeFromISR
.Lfunc_begin19:
	.loc	2 1764 0 is_stmt 1              # C:/Vega/rv32m1_sdk_riscv/rtos/freertos_9.0.0/Source/tasks.c:1764:0
	.cfi_startproc
# %bb.0:                                # %entry
	addi	sp, sp, -32
	.cfi_def_cfa_offset 32
	sw	ra, 28(sp)
	sw	s0, 24(sp)
	.cfi_offset ra, -4
	.cfi_offset s0, -8
	addi	s0, sp, 32
	.cfi_def_cfa s0, 0
	sw	a0, -12(s0)
	mv	a0, zero
.Ltmp410:
	.loc	2 1765 13 prologue_end          # C:/Vega/rv32m1_sdk_riscv/rtos/freertos_9.0.0/Source/tasks.c:1765:13
	sw	a0, -16(s0)
	.loc	2 1766 36                       # C:/Vega/rv32m1_sdk_riscv/rtos/freertos_9.0.0/Source/tasks.c:1766:36
	lw	a1, -12(s0)
	.loc	2 1766 16 is_stmt 0             # C:/Vega/rv32m1_sdk_riscv/rtos/freertos_9.0.0/Source/tasks.c:1766:16
	sw	a1, -20(s0)
.Ltmp411:
	.loc	2 1769 8 is_stmt 1              # C:/Vega/rv32m1_sdk_riscv/rtos/freertos_9.0.0/Source/tasks.c:1769:8
	lw	a1, -12(s0)
.Ltmp412:
	.loc	2 1769 6 is_stmt 0              # C:/Vega/rv32m1_sdk_riscv/rtos/freertos_9.0.0/Source/tasks.c:1769:6
	bne	a1, a0, .LBB19_3
	j	.LBB19_1
.LBB19_1:                               # %if.then
.Ltmp413:
	.loc	2 1769 30                       # C:/Vega/rv32m1_sdk_riscv/rtos/freertos_9.0.0/Source/tasks.c:1769:30
	call	vPortSetInterruptMask
	.loc	2 1769 55                       # C:/Vega/rv32m1_sdk_riscv/rtos/freertos_9.0.0/Source/tasks.c:1769:55
	j	.LBB19_2
.LBB19_2:                               # %for.cond
                                        # =>This Inner Loop Header: Depth=1
.Ltmp414:
	.loc	2 1769 55                       # C:/Vega/rv32m1_sdk_riscv/rtos/freertos_9.0.0/Source/tasks.c:1769:55
	j	.LBB19_2
.Ltmp415:
.LBB19_3:                               # %if.end
	.loc	2 1789 28 is_stmt 1             # C:/Vega/rv32m1_sdk_riscv/rtos/freertos_9.0.0/Source/tasks.c:1789:28
	call	vPortSetInterruptMask
	.loc	2 1789 26 is_stmt 0             # C:/Vega/rv32m1_sdk_riscv/rtos/freertos_9.0.0/Source/tasks.c:1789:26
	sw	a0, -24(s0)
.Ltmp416:
	.loc	2 1791 32 is_stmt 1             # C:/Vega/rv32m1_sdk_riscv/rtos/freertos_9.0.0/Source/tasks.c:1791:32
	lw	a0, -20(s0)
	.loc	2 1791 8 is_stmt 0              # C:/Vega/rv32m1_sdk_riscv/rtos/freertos_9.0.0/Source/tasks.c:1791:8
	call	prvTaskIsTaskSuspended
	mv	a1, zero
.Ltmp417:
	.loc	2 1791 8                        # C:/Vega/rv32m1_sdk_riscv/rtos/freertos_9.0.0/Source/tasks.c:1791:8
	beq	a0, a1, .LBB19_13
	j	.LBB19_4
.LBB19_4:                               # %if.then4
.Ltmp418:
	.loc	2 1796 9 is_stmt 1              # C:/Vega/rv32m1_sdk_riscv/rtos/freertos_9.0.0/Source/tasks.c:1796:9
	lui	a0, %hi(uxSchedulerSuspended)
	lw	a0, %lo(uxSchedulerSuspended)(a0)
	mv	a1, zero
.Ltmp419:
	.loc	2 1796 9 is_stmt 0              # C:/Vega/rv32m1_sdk_riscv/rtos/freertos_9.0.0/Source/tasks.c:1796:9
	bne	a0, a1, .LBB19_11
	j	.LBB19_5
.LBB19_5:                               # %if.then6
.Ltmp420:
	.loc	2 1800 10 is_stmt 1             # C:/Vega/rv32m1_sdk_riscv/rtos/freertos_9.0.0/Source/tasks.c:1800:10
	lw	a0, -20(s0)
	.loc	2 1800 17 is_stmt 0             # C:/Vega/rv32m1_sdk_riscv/rtos/freertos_9.0.0/Source/tasks.c:1800:17
	lw	a0, 44(a0)
	.loc	2 1800 31                       # C:/Vega/rv32m1_sdk_riscv/rtos/freertos_9.0.0/Source/tasks.c:1800:31
	lui	a1, %hi(pxCurrentTCB)
	lw	a1, %lo(pxCurrentTCB)(a1)
	.loc	2 1800 45                       # C:/Vega/rv32m1_sdk_riscv/rtos/freertos_9.0.0/Source/tasks.c:1800:45
	lw	a1, 44(a1)
.Ltmp421:
	.loc	2 1800 10                       # C:/Vega/rv32m1_sdk_riscv/rtos/freertos_9.0.0/Source/tasks.c:1800:10
	bltu	a0, a1, .LBB19_7
	j	.LBB19_6
.LBB19_6:                               # %if.then9
	.loc	2 0 10                          # C:/Vega/rv32m1_sdk_riscv/rtos/freertos_9.0.0/Source/tasks.c:0:10
	addi	a0, zero, 1
.Ltmp422:
	.loc	2 1802 22 is_stmt 1             # C:/Vega/rv32m1_sdk_riscv/rtos/freertos_9.0.0/Source/tasks.c:1802:22
	sw	a0, -16(s0)
	.loc	2 1803 6                        # C:/Vega/rv32m1_sdk_riscv/rtos/freertos_9.0.0/Source/tasks.c:1803:6
	j	.LBB19_8
.Ltmp423:
.LBB19_7:                               # %if.else
	.loc	2 0 6 is_stmt 0                 # C:/Vega/rv32m1_sdk_riscv/rtos/freertos_9.0.0/Source/tasks.c:0:6
	j	.LBB19_8
.LBB19_8:                               # %if.end10
	.loc	2 1809 32 is_stmt 1             # C:/Vega/rv32m1_sdk_riscv/rtos/freertos_9.0.0/Source/tasks.c:1809:32
	lw	a0, -20(s0)
	.loc	2 1809 39 is_stmt 0             # C:/Vega/rv32m1_sdk_riscv/rtos/freertos_9.0.0/Source/tasks.c:1809:39
	addi	a0, a0, 4
	.loc	2 1809 15                       # C:/Vega/rv32m1_sdk_riscv/rtos/freertos_9.0.0/Source/tasks.c:1809:15
	call	uxListRemove
.Ltmp424:
	.loc	2 1810 18 is_stmt 1             # C:/Vega/rv32m1_sdk_riscv/rtos/freertos_9.0.0/Source/tasks.c:1810:18
	lw	a1, -20(s0)
	.loc	2 1810 27 is_stmt 0             # C:/Vega/rv32m1_sdk_riscv/rtos/freertos_9.0.0/Source/tasks.c:1810:27
	lw	a1, 44(a1)
	.loc	2 1810 42                       # C:/Vega/rv32m1_sdk_riscv/rtos/freertos_9.0.0/Source/tasks.c:1810:42
	lui	a2, %hi(uxTopReadyPriority)
	lw	a2, %lo(uxTopReadyPriority)(a2)
.Ltmp425:
	.loc	2 1810 14                       # C:/Vega/rv32m1_sdk_riscv/rtos/freertos_9.0.0/Source/tasks.c:1810:14
	bgeu	a2, a1, .LBB19_10
	j	.LBB19_9
.LBB19_9:                               # %if.then14
.Ltmp426:
	.loc	2 1810 90                       # C:/Vega/rv32m1_sdk_riscv/rtos/freertos_9.0.0/Source/tasks.c:1810:90
	lw	a0, -20(s0)
	.loc	2 1810 99                       # C:/Vega/rv32m1_sdk_riscv/rtos/freertos_9.0.0/Source/tasks.c:1810:99
	lw	a0, 44(a0)
	.loc	2 1810 84                       # C:/Vega/rv32m1_sdk_riscv/rtos/freertos_9.0.0/Source/tasks.c:1810:84
	lui	a1, %hi(uxTopReadyPriority)
	sw	a0, %lo(uxTopReadyPriority)(a1)
	.loc	2 1810 113                      # C:/Vega/rv32m1_sdk_riscv/rtos/freertos_9.0.0/Source/tasks.c:1810:113
	j	.LBB19_10
.Ltmp427:
.LBB19_10:                              # %if.end16
	.loc	2 1810 158                      # C:/Vega/rv32m1_sdk_riscv/rtos/freertos_9.0.0/Source/tasks.c:1810:158
	lw	a0, -20(s0)
	.loc	2 1810 167                      # C:/Vega/rv32m1_sdk_riscv/rtos/freertos_9.0.0/Source/tasks.c:1810:167
	lw	a1, 44(a0)
	addi	a2, zero, 20
	.loc	2 1810 137                      # C:/Vega/rv32m1_sdk_riscv/rtos/freertos_9.0.0/Source/tasks.c:1810:137
	sw	a0, -28(s0)
	mv	a0, a1
	mv	a1, a2
	call	__mulsi3
	lui	a1, %hi(pxReadyTasksLists)
	addi	a1, a1, %lo(pxReadyTasksLists)
	add	a0, a0, a1
	.loc	2 1810 197                      # C:/Vega/rv32m1_sdk_riscv/rtos/freertos_9.0.0/Source/tasks.c:1810:197
	lw	a1, -28(s0)
	addi	a1, a1, 4
	.loc	2 1810 118                      # C:/Vega/rv32m1_sdk_riscv/rtos/freertos_9.0.0/Source/tasks.c:1810:118
	call	vListInsertEnd
	.loc	2 1811 5 is_stmt 1              # C:/Vega/rv32m1_sdk_riscv/rtos/freertos_9.0.0/Source/tasks.c:1811:5
	j	.LBB19_12
.Ltmp428:
.LBB19_11:                              # %if.else19
	.loc	2 1817 49                       # C:/Vega/rv32m1_sdk_riscv/rtos/freertos_9.0.0/Source/tasks.c:1817:49
	lw	a0, -20(s0)
	.loc	2 1817 56 is_stmt 0             # C:/Vega/rv32m1_sdk_riscv/rtos/freertos_9.0.0/Source/tasks.c:1817:56
	addi	a1, a0, 24
	.loc	2 1817 6                        # C:/Vega/rv32m1_sdk_riscv/rtos/freertos_9.0.0/Source/tasks.c:1817:6
	lui	a0, %hi(xPendingReadyList)
	addi	a0, a0, %lo(xPendingReadyList)
	call	vListInsertEnd
	j	.LBB19_12
.Ltmp429:
.LBB19_12:                              # %if.end20
	.loc	2 1819 4 is_stmt 1              # C:/Vega/rv32m1_sdk_riscv/rtos/freertos_9.0.0/Source/tasks.c:1819:4
	j	.LBB19_14
.Ltmp430:
.LBB19_13:                              # %if.else21
	.loc	2 0 4 is_stmt 0                 # C:/Vega/rv32m1_sdk_riscv/rtos/freertos_9.0.0/Source/tasks.c:0:4
	j	.LBB19_14
.LBB19_14:                              # %if.end22
	.loc	2 1825 27 is_stmt 1             # C:/Vega/rv32m1_sdk_riscv/rtos/freertos_9.0.0/Source/tasks.c:1825:27
	lw	a0, -24(s0)
	.loc	2 1825 3 is_stmt 0              # C:/Vega/rv32m1_sdk_riscv/rtos/freertos_9.0.0/Source/tasks.c:1825:3
	call	vPortClearInterruptMask
	.loc	2 1827 10 is_stmt 1             # C:/Vega/rv32m1_sdk_riscv/rtos/freertos_9.0.0/Source/tasks.c:1827:10
	lw	a0, -16(s0)
	.loc	2 1827 3 is_stmt 0              # C:/Vega/rv32m1_sdk_riscv/rtos/freertos_9.0.0/Source/tasks.c:1827:3
	lw	s0, 24(sp)
	lw	ra, 28(sp)
	addi	sp, sp, 32
	ret
.Ltmp431:
.Lfunc_end19:
	.size	xTaskResumeFromISR, .Lfunc_end19-xTaskResumeFromISR
	.cfi_endproc
                                        # -- End function
	.section	.text.vTaskStartScheduler,"ax",@progbits
	.globl	vTaskStartScheduler             # -- Begin function vTaskStartScheduler
	.p2align	2
	.type	vTaskStartScheduler,@function
vTaskStartScheduler:                    # @vTaskStartScheduler
.Lfunc_begin20:
	.loc	2 1834 0 is_stmt 1              # C:/Vega/rv32m1_sdk_riscv/rtos/freertos_9.0.0/Source/tasks.c:1834:0
	.cfi_startproc
# %bb.0:                                # %entry
	addi	sp, sp, -32
	.cfi_def_cfa_offset 32
.Ltmp432:
	.loc	2 1867 13 prologue_end          # C:/Vega/rv32m1_sdk_riscv/rtos/freertos_9.0.0/Source/tasks.c:1867:13
	sw	ra, 28(sp)
	sw	s0, 24(sp)
	.cfi_offset ra, -4
	.cfi_offset s0, -8
	addi	s0, sp, 32
	.cfi_def_cfa s0, 0
	lui	a0, %hi(prvIdleTask)
	addi	a0, a0, %lo(prvIdleTask)
	lui	a1, %hi(.L.str)
	addi	a1, a1, %lo(.L.str)
	lui	a2, %hi(xIdleTaskHandle)
	addi	a5, a2, %lo(xIdleTaskHandle)
	addi	a2, zero, 256
	mv	a3, zero
	sw	a3, -16(s0)
	lw	a4, -16(s0)
	call	xTaskCreate
	.loc	2 1867 11 is_stmt 0             # C:/Vega/rv32m1_sdk_riscv/rtos/freertos_9.0.0/Source/tasks.c:1867:11
	sw	a0, -12(s0)
.Ltmp433:
	.loc	2 1877 7 is_stmt 1              # C:/Vega/rv32m1_sdk_riscv/rtos/freertos_9.0.0/Source/tasks.c:1877:7
	lw	a0, -12(s0)
	addi	a1, zero, 1
.Ltmp434:
	.loc	2 1877 7 is_stmt 0              # C:/Vega/rv32m1_sdk_riscv/rtos/freertos_9.0.0/Source/tasks.c:1877:7
	bne	a0, a1, .LBB20_2
	j	.LBB20_1
.LBB20_1:                               # %if.then
.Ltmp435:
	.loc	2 1879 14 is_stmt 1             # C:/Vega/rv32m1_sdk_riscv/rtos/freertos_9.0.0/Source/tasks.c:1879:14
	call	xTimerCreateTimerTask
	.loc	2 1879 12 is_stmt 0             # C:/Vega/rv32m1_sdk_riscv/rtos/freertos_9.0.0/Source/tasks.c:1879:12
	sw	a0, -12(s0)
	.loc	2 1880 3 is_stmt 1              # C:/Vega/rv32m1_sdk_riscv/rtos/freertos_9.0.0/Source/tasks.c:1880:3
	j	.LBB20_3
.Ltmp436:
.LBB20_2:                               # %if.else
	.loc	2 0 3 is_stmt 0                 # C:/Vega/rv32m1_sdk_riscv/rtos/freertos_9.0.0/Source/tasks.c:0:3
	j	.LBB20_3
.LBB20_3:                               # %if.end
.Ltmp437:
	.loc	2 1888 6 is_stmt 1              # C:/Vega/rv32m1_sdk_riscv/rtos/freertos_9.0.0/Source/tasks.c:1888:6
	lw	a0, -12(s0)
	addi	a1, zero, 1
.Ltmp438:
	.loc	2 1888 6 is_stmt 0              # C:/Vega/rv32m1_sdk_riscv/rtos/freertos_9.0.0/Source/tasks.c:1888:6
	bne	a0, a1, .LBB20_8
	j	.LBB20_4
.LBB20_4:                               # %if.then3
.Ltmp439:
	.loc	2 1895 3 is_stmt 1              # C:/Vega/rv32m1_sdk_riscv/rtos/freertos_9.0.0/Source/tasks.c:1895:3
	call	vPortSetInterruptMask
	.loc	2 1905 24                       # C:/Vega/rv32m1_sdk_riscv/rtos/freertos_9.0.0/Source/tasks.c:1905:24
	lui	a1, %hi(xNextTaskUnblockTime)
	addi	a2, zero, -1
	sw	a2, %lo(xNextTaskUnblockTime)(a1)
	.loc	2 1906 21                       # C:/Vega/rv32m1_sdk_riscv/rtos/freertos_9.0.0/Source/tasks.c:1906:21
	lui	a1, %hi(xSchedulerRunning)
	addi	a2, zero, 1
	sw	a2, %lo(xSchedulerRunning)(a1)
	.loc	2 1907 14                       # C:/Vega/rv32m1_sdk_riscv/rtos/freertos_9.0.0/Source/tasks.c:1907:14
	lui	a1, %hi(xTickCount)
	mv	a2, zero
	sw	a2, %lo(xTickCount)(a1)
.Ltmp440:
	.loc	2 1916 7                        # C:/Vega/rv32m1_sdk_riscv/rtos/freertos_9.0.0/Source/tasks.c:1916:7
	sw	a0, -20(s0)
	sw	a2, -24(s0)
	call	xPortStartScheduler
.Ltmp441:
	.loc	2 1916 7 is_stmt 0              # C:/Vega/rv32m1_sdk_riscv/rtos/freertos_9.0.0/Source/tasks.c:1916:7
	lw	a1, -24(s0)
	beq	a0, a1, .LBB20_6
	j	.LBB20_5
.LBB20_5:                               # %if.then7
.Ltmp442:
	.loc	2 1920 3 is_stmt 1              # C:/Vega/rv32m1_sdk_riscv/rtos/freertos_9.0.0/Source/tasks.c:1920:3
	j	.LBB20_7
.Ltmp443:
.LBB20_6:                               # %if.else8
	.loc	2 0 3 is_stmt 0                 # C:/Vega/rv32m1_sdk_riscv/rtos/freertos_9.0.0/Source/tasks.c:0:3
	j	.LBB20_7
.LBB20_7:                               # %if.end9
	.loc	2 1925 2 is_stmt 1              # C:/Vega/rv32m1_sdk_riscv/rtos/freertos_9.0.0/Source/tasks.c:1925:2
	j	.LBB20_12
.Ltmp444:
.LBB20_8:                               # %if.else10
	.loc	2 1931 8                        # C:/Vega/rv32m1_sdk_riscv/rtos/freertos_9.0.0/Source/tasks.c:1931:8
	lw	a0, -12(s0)
	addi	a1, zero, -1
.Ltmp445:
	.loc	2 1931 6 is_stmt 0              # C:/Vega/rv32m1_sdk_riscv/rtos/freertos_9.0.0/Source/tasks.c:1931:6
	bne	a0, a1, .LBB20_11
	j	.LBB20_9
.LBB20_9:                               # %if.then14
.Ltmp446:
	.loc	2 1931 34                       # C:/Vega/rv32m1_sdk_riscv/rtos/freertos_9.0.0/Source/tasks.c:1931:34
	call	vPortSetInterruptMask
	.loc	2 1931 59                       # C:/Vega/rv32m1_sdk_riscv/rtos/freertos_9.0.0/Source/tasks.c:1931:59
	j	.LBB20_10
.LBB20_10:                              # %for.cond
                                        # =>This Inner Loop Header: Depth=1
.Ltmp447:
	.loc	2 1931 59                       # C:/Vega/rv32m1_sdk_riscv/rtos/freertos_9.0.0/Source/tasks.c:1931:59
	j	.LBB20_10
.Ltmp448:
.LBB20_11:                              # %if.end16
	.loc	2 0 59                          # C:/Vega/rv32m1_sdk_riscv/rtos/freertos_9.0.0/Source/tasks.c:0:59
	j	.LBB20_12
.LBB20_12:                              # %if.end17
	.loc	2 1937 1 is_stmt 1              # C:/Vega/rv32m1_sdk_riscv/rtos/freertos_9.0.0/Source/tasks.c:1937:1
	lw	s0, 24(sp)
	lw	ra, 28(sp)
	addi	sp, sp, 32
	ret
.Ltmp449:
.Lfunc_end20:
	.size	vTaskStartScheduler, .Lfunc_end20-vTaskStartScheduler
	.cfi_endproc
                                        # -- End function
	.section	.text.prvIdleTask,"ax",@progbits
	.p2align	2                               # -- Begin function prvIdleTask
	.type	prvIdleTask,@function
prvIdleTask:                            # @prvIdleTask
.Lfunc_begin21:
	.loc	2 3139 0                        # C:/Vega/rv32m1_sdk_riscv/rtos/freertos_9.0.0/Source/tasks.c:3139:0
	.cfi_startproc
# %bb.0:                                # %entry
	addi	sp, sp, -16
	.cfi_def_cfa_offset 16
	sw	ra, 12(sp)
	sw	s0, 8(sp)
	.cfi_offset ra, -4
	.cfi_offset s0, -8
	addi	s0, sp, 16
	.cfi_def_cfa s0, 0
	sw	a0, -12(s0)
.Ltmp450:
	.loc	2 3146 2 prologue_end           # C:/Vega/rv32m1_sdk_riscv/rtos/freertos_9.0.0/Source/tasks.c:3146:2
	j	.LBB21_1
.LBB21_1:                               # %for.cond
                                        # =>This Inner Loop Header: Depth=1
.Ltmp451:
	.loc	2 3150 3                        # C:/Vega/rv32m1_sdk_riscv/rtos/freertos_9.0.0/Source/tasks.c:3150:3
	call	prvCheckTasksWaitingTermination
.Ltmp452:
	.loc	2 3173 64                       # C:/Vega/rv32m1_sdk_riscv/rtos/freertos_9.0.0/Source/tasks.c:3173:64
	lui	a0, %hi(pxReadyTasksLists)
	lw	a0, %lo(pxReadyTasksLists)(a0)
	addi	a1, zero, 2
.Ltmp453:
	.loc	2 3173 8 is_stmt 0              # C:/Vega/rv32m1_sdk_riscv/rtos/freertos_9.0.0/Source/tasks.c:3173:8
	bltu	a0, a1, .LBB21_3
	j	.LBB21_2
.LBB21_2:                               # %if.then
                                        #   in Loop: Header=BB21_1 Depth=1
.Ltmp454:
	.loc	2 3175 5 is_stmt 1              # C:/Vega/rv32m1_sdk_riscv/rtos/freertos_9.0.0/Source/tasks.c:3175:5
	call	portYIELD
	.loc	2 3176 4                        # C:/Vega/rv32m1_sdk_riscv/rtos/freertos_9.0.0/Source/tasks.c:3176:4
	j	.LBB21_4
.Ltmp455:
.LBB21_3:                               # %if.else
                                        #   in Loop: Header=BB21_1 Depth=1
	.loc	2 0 4 is_stmt 0                 # C:/Vega/rv32m1_sdk_riscv/rtos/freertos_9.0.0/Source/tasks.c:0:4
	j	.LBB21_4
.LBB21_4:                               # %if.end
                                        #   in Loop: Header=BB21_1 Depth=1
	.loc	2 3146 2 is_stmt 1              # C:/Vega/rv32m1_sdk_riscv/rtos/freertos_9.0.0/Source/tasks.c:3146:2
	j	.LBB21_1
.Ltmp456:
.Lfunc_end21:
	.size	prvIdleTask, .Lfunc_end21-prvIdleTask
	.cfi_endproc
                                        # -- End function
	.section	.text.vTaskEndScheduler,"ax",@progbits
	.globl	vTaskEndScheduler               # -- Begin function vTaskEndScheduler
	.p2align	2
	.type	vTaskEndScheduler,@function
vTaskEndScheduler:                      # @vTaskEndScheduler
.Lfunc_begin22:
	.loc	2 1941 0                        # C:/Vega/rv32m1_sdk_riscv/rtos/freertos_9.0.0/Source/tasks.c:1941:0
	.cfi_startproc
# %bb.0:                                # %entry
	addi	sp, sp, -16
	.cfi_def_cfa_offset 16
.Ltmp457:
	.loc	2 1945 2 prologue_end           # C:/Vega/rv32m1_sdk_riscv/rtos/freertos_9.0.0/Source/tasks.c:1945:2
	sw	ra, 12(sp)
	sw	s0, 8(sp)
	.cfi_offset ra, -4
	.cfi_offset s0, -8
	addi	s0, sp, 16
	.cfi_def_cfa s0, 0
	call	vPortSetInterruptMask
	.loc	2 1946 20                       # C:/Vega/rv32m1_sdk_riscv/rtos/freertos_9.0.0/Source/tasks.c:1946:20
	lui	a1, %hi(xSchedulerRunning)
	mv	a2, zero
	sw	a2, %lo(xSchedulerRunning)(a1)
	.loc	2 1947 2                        # C:/Vega/rv32m1_sdk_riscv/rtos/freertos_9.0.0/Source/tasks.c:1947:2
	sw	a0, -12(s0)
	call	vPortEndScheduler
	.loc	2 1948 1                        # C:/Vega/rv32m1_sdk_riscv/rtos/freertos_9.0.0/Source/tasks.c:1948:1
	lw	s0, 8(sp)
	lw	ra, 12(sp)
	addi	sp, sp, 16
	ret
.Ltmp458:
.Lfunc_end22:
	.size	vTaskEndScheduler, .Lfunc_end22-vTaskEndScheduler
	.cfi_endproc
                                        # -- End function
	.section	.text.xTaskIncrementTick,"ax",@progbits
	.globl	xTaskIncrementTick              # -- Begin function xTaskIncrementTick
	.p2align	2
	.type	xTaskIncrementTick,@function
xTaskIncrementTick:                     # @xTaskIncrementTick
.Lfunc_begin23:
	.loc	2 2507 0                        # C:/Vega/rv32m1_sdk_riscv/rtos/freertos_9.0.0/Source/tasks.c:2507:0
	.cfi_startproc
# %bb.0:                                # %entry
	addi	sp, sp, -32
	.cfi_def_cfa_offset 32
	sw	ra, 28(sp)
	sw	s0, 24(sp)
	.cfi_offset ra, -4
	.cfi_offset s0, -8
	addi	s0, sp, 32
	.cfi_def_cfa s0, 0
	mv	a0, zero
.Ltmp459:
	.loc	2 2510 12 prologue_end          # C:/Vega/rv32m1_sdk_riscv/rtos/freertos_9.0.0/Source/tasks.c:2510:12
	sw	a0, -20(s0)
.Ltmp460:
	.loc	2 2516 6                        # C:/Vega/rv32m1_sdk_riscv/rtos/freertos_9.0.0/Source/tasks.c:2516:6
	lui	a1, %hi(uxSchedulerSuspended)
	lw	a1, %lo(uxSchedulerSuspended)(a1)
.Ltmp461:
	.loc	2 2516 6 is_stmt 0              # C:/Vega/rv32m1_sdk_riscv/rtos/freertos_9.0.0/Source/tasks.c:2516:6
	bne	a1, a0, .LBB23_26
	j	.LBB23_1
.LBB23_1:                               # %if.then
.Ltmp462:
	.loc	2 2520 38 is_stmt 1             # C:/Vega/rv32m1_sdk_riscv/rtos/freertos_9.0.0/Source/tasks.c:2520:38
	lui	a0, %hi(xTickCount)
	lw	a1, %lo(xTickCount)(a0)
	.loc	2 2520 49 is_stmt 0             # C:/Vega/rv32m1_sdk_riscv/rtos/freertos_9.0.0/Source/tasks.c:2520:49
	addi	a1, a1, 1
	.loc	2 2520 20                       # C:/Vega/rv32m1_sdk_riscv/rtos/freertos_9.0.0/Source/tasks.c:2520:20
	sw	a1, -24(s0)
	.loc	2 2524 16 is_stmt 1             # C:/Vega/rv32m1_sdk_riscv/rtos/freertos_9.0.0/Source/tasks.c:2524:16
	lw	a1, -24(s0)
	.loc	2 2524 14 is_stmt 0             # C:/Vega/rv32m1_sdk_riscv/rtos/freertos_9.0.0/Source/tasks.c:2524:14
	sw	a1, %lo(xTickCount)(a0)
.Ltmp463:
	.loc	2 2526 7 is_stmt 1              # C:/Vega/rv32m1_sdk_riscv/rtos/freertos_9.0.0/Source/tasks.c:2526:7
	lw	a0, -24(s0)
	mv	a1, zero
.Ltmp464:
	.loc	2 2526 7 is_stmt 0              # C:/Vega/rv32m1_sdk_riscv/rtos/freertos_9.0.0/Source/tasks.c:2526:7
	bne	a0, a1, .LBB23_6
	j	.LBB23_2
.LBB23_2:                               # %if.then2
.Ltmp465:
	.loc	2 2528 50 is_stmt 1             # C:/Vega/rv32m1_sdk_riscv/rtos/freertos_9.0.0/Source/tasks.c:2528:50
	lui	a0, %hi(pxDelayedTaskList)
	lw	a0, %lo(pxDelayedTaskList)(a0)
	.loc	2 2528 71 is_stmt 0             # C:/Vega/rv32m1_sdk_riscv/rtos/freertos_9.0.0/Source/tasks.c:2528:71
	lw	a0, 0(a0)
	mv	a1, zero
.Ltmp466:
	.loc	2 2528 25                       # C:/Vega/rv32m1_sdk_riscv/rtos/freertos_9.0.0/Source/tasks.c:2528:25
	beq	a0, a1, .LBB23_5
	j	.LBB23_3
.LBB23_3:                               # %if.then6
.Ltmp467:
	.loc	2 2528 122                      # C:/Vega/rv32m1_sdk_riscv/rtos/freertos_9.0.0/Source/tasks.c:2528:122
	call	vPortSetInterruptMask
	.loc	2 2528 147                      # C:/Vega/rv32m1_sdk_riscv/rtos/freertos_9.0.0/Source/tasks.c:2528:147
	j	.LBB23_4
.LBB23_4:                               # %for.cond
                                        # =>This Inner Loop Header: Depth=1
.Ltmp468:
	.loc	2 2528 147                      # C:/Vega/rv32m1_sdk_riscv/rtos/freertos_9.0.0/Source/tasks.c:2528:147
	j	.LBB23_4
.Ltmp469:
.LBB23_5:                               # %if.end
	.loc	2 2528 168                      # C:/Vega/rv32m1_sdk_riscv/rtos/freertos_9.0.0/Source/tasks.c:2528:168
	lui	a0, %hi(pxDelayedTaskList)
	lw	a1, %lo(pxDelayedTaskList)(a0)
	.loc	2 2528 166                      # C:/Vega/rv32m1_sdk_riscv/rtos/freertos_9.0.0/Source/tasks.c:2528:166
	sw	a1, -28(s0)
	.loc	2 2528 207                      # C:/Vega/rv32m1_sdk_riscv/rtos/freertos_9.0.0/Source/tasks.c:2528:207
	lui	a1, %hi(pxOverflowDelayedTaskList)
	lw	a2, %lo(pxOverflowDelayedTaskList)(a1)
	.loc	2 2528 205                      # C:/Vega/rv32m1_sdk_riscv/rtos/freertos_9.0.0/Source/tasks.c:2528:205
	sw	a2, %lo(pxDelayedTaskList)(a0)
	.loc	2 2528 262                      # C:/Vega/rv32m1_sdk_riscv/rtos/freertos_9.0.0/Source/tasks.c:2528:262
	lw	a0, -28(s0)
	.loc	2 2528 260                      # C:/Vega/rv32m1_sdk_riscv/rtos/freertos_9.0.0/Source/tasks.c:2528:260
	sw	a0, %lo(pxOverflowDelayedTaskList)(a1)
	.loc	2 2528 285                      # C:/Vega/rv32m1_sdk_riscv/rtos/freertos_9.0.0/Source/tasks.c:2528:285
	lui	a0, %hi(xNumOfOverflows)
	lw	a1, %lo(xNumOfOverflows)(a0)
	addi	a1, a1, 1
	sw	a1, %lo(xNumOfOverflows)(a0)
	.loc	2 2528 289                      # C:/Vega/rv32m1_sdk_riscv/rtos/freertos_9.0.0/Source/tasks.c:2528:289
	call	prvResetNextTaskUnblockTime
.Ltmp470:
	.loc	2 2529 3 is_stmt 1              # C:/Vega/rv32m1_sdk_riscv/rtos/freertos_9.0.0/Source/tasks.c:2529:3
	j	.LBB23_7
.Ltmp471:
.LBB23_6:                               # %if.else
	.loc	2 0 3 is_stmt 0                 # C:/Vega/rv32m1_sdk_riscv/rtos/freertos_9.0.0/Source/tasks.c:0:3
	j	.LBB23_7
.LBB23_7:                               # %if.end7
.Ltmp472:
	.loc	2 2539 7 is_stmt 1              # C:/Vega/rv32m1_sdk_riscv/rtos/freertos_9.0.0/Source/tasks.c:2539:7
	lw	a0, -24(s0)
	.loc	2 2539 26 is_stmt 0             # C:/Vega/rv32m1_sdk_riscv/rtos/freertos_9.0.0/Source/tasks.c:2539:26
	lui	a1, %hi(xNextTaskUnblockTime)
	lw	a1, %lo(xNextTaskUnblockTime)(a1)
.Ltmp473:
	.loc	2 2539 7                        # C:/Vega/rv32m1_sdk_riscv/rtos/freertos_9.0.0/Source/tasks.c:2539:7
	bltu	a0, a1, .LBB23_25
	j	.LBB23_8
.LBB23_8:                               # %if.then10
.Ltmp474:
	.loc	2 2541 4 is_stmt 1              # C:/Vega/rv32m1_sdk_riscv/rtos/freertos_9.0.0/Source/tasks.c:2541:4
	j	.LBB23_9
.LBB23_9:                               # %for.cond11
                                        # =>This Inner Loop Header: Depth=1
.Ltmp475:
	.loc	2 2543 30                       # C:/Vega/rv32m1_sdk_riscv/rtos/freertos_9.0.0/Source/tasks.c:2543:30
	lui	a0, %hi(pxDelayedTaskList)
	lw	a0, %lo(pxDelayedTaskList)(a0)
	.loc	2 2543 51 is_stmt 0             # C:/Vega/rv32m1_sdk_riscv/rtos/freertos_9.0.0/Source/tasks.c:2543:51
	lw	a0, 0(a0)
	mv	a1, zero
.Ltmp476:
	.loc	2 2543 9                        # C:/Vega/rv32m1_sdk_riscv/rtos/freertos_9.0.0/Source/tasks.c:2543:9
	bne	a0, a1, .LBB23_11
	j	.LBB23_10
.LBB23_10:                              # %if.then17
.Ltmp477:
	.loc	2 2550 27 is_stmt 1             # C:/Vega/rv32m1_sdk_riscv/rtos/freertos_9.0.0/Source/tasks.c:2550:27
	lui	a0, %hi(xNextTaskUnblockTime)
	addi	a1, zero, -1
	sw	a1, %lo(xNextTaskUnblockTime)(a0)
	.loc	2 2551 6                        # C:/Vega/rv32m1_sdk_riscv/rtos/freertos_9.0.0/Source/tasks.c:2551:6
	j	.LBB23_24
.Ltmp478:
.LBB23_11:                              # %if.else18
                                        #   in Loop: Header=BB23_9 Depth=1
	.loc	2 2559 34                       # C:/Vega/rv32m1_sdk_riscv/rtos/freertos_9.0.0/Source/tasks.c:2559:34
	lui	a0, %hi(pxDelayedTaskList)
	lw	a0, %lo(pxDelayedTaskList)(a0)
	.loc	2 2559 68 is_stmt 0             # C:/Vega/rv32m1_sdk_riscv/rtos/freertos_9.0.0/Source/tasks.c:2559:68
	lw	a0, 12(a0)
	.loc	2 2559 76                       # C:/Vega/rv32m1_sdk_riscv/rtos/freertos_9.0.0/Source/tasks.c:2559:76
	lw	a0, 12(a0)
	.loc	2 2559 12                       # C:/Vega/rv32m1_sdk_riscv/rtos/freertos_9.0.0/Source/tasks.c:2559:12
	sw	a0, -12(s0)
	.loc	2 2560 26 is_stmt 1             # C:/Vega/rv32m1_sdk_riscv/rtos/freertos_9.0.0/Source/tasks.c:2560:26
	lw	a0, -12(s0)
	.loc	2 2560 53 is_stmt 0             # C:/Vega/rv32m1_sdk_riscv/rtos/freertos_9.0.0/Source/tasks.c:2560:53
	lw	a0, 4(a0)
	.loc	2 2560 17                       # C:/Vega/rv32m1_sdk_riscv/rtos/freertos_9.0.0/Source/tasks.c:2560:17
	sw	a0, -16(s0)
.Ltmp479:
	.loc	2 2562 10 is_stmt 1             # C:/Vega/rv32m1_sdk_riscv/rtos/freertos_9.0.0/Source/tasks.c:2562:10
	lw	a0, -24(s0)
	.loc	2 2562 28 is_stmt 0             # C:/Vega/rv32m1_sdk_riscv/rtos/freertos_9.0.0/Source/tasks.c:2562:28
	lw	a1, -16(s0)
.Ltmp480:
	.loc	2 2562 10                       # C:/Vega/rv32m1_sdk_riscv/rtos/freertos_9.0.0/Source/tasks.c:2562:10
	bgeu	a0, a1, .LBB23_13
	j	.LBB23_12
.LBB23_12:                              # %if.then22
.Ltmp481:
	.loc	2 2569 30 is_stmt 1             # C:/Vega/rv32m1_sdk_riscv/rtos/freertos_9.0.0/Source/tasks.c:2569:30
	lw	a0, -16(s0)
	.loc	2 2569 28 is_stmt 0             # C:/Vega/rv32m1_sdk_riscv/rtos/freertos_9.0.0/Source/tasks.c:2569:28
	lui	a1, %hi(xNextTaskUnblockTime)
	sw	a0, %lo(xNextTaskUnblockTime)(a1)
	.loc	2 2570 7 is_stmt 1              # C:/Vega/rv32m1_sdk_riscv/rtos/freertos_9.0.0/Source/tasks.c:2570:7
	j	.LBB23_24
.Ltmp482:
.LBB23_13:                              # %if.else23
                                        #   in Loop: Header=BB23_9 Depth=1
	.loc	2 0 7 is_stmt 0                 # C:/Vega/rv32m1_sdk_riscv/rtos/freertos_9.0.0/Source/tasks.c:0:7
	j	.LBB23_14
.LBB23_14:                              # %if.end24
                                        #   in Loop: Header=BB23_9 Depth=1
	.loc	2 2578 32 is_stmt 1             # C:/Vega/rv32m1_sdk_riscv/rtos/freertos_9.0.0/Source/tasks.c:2578:32
	lw	a0, -12(s0)
	.loc	2 2578 39 is_stmt 0             # C:/Vega/rv32m1_sdk_riscv/rtos/freertos_9.0.0/Source/tasks.c:2578:39
	addi	a0, a0, 4
	.loc	2 2578 15                       # C:/Vega/rv32m1_sdk_riscv/rtos/freertos_9.0.0/Source/tasks.c:2578:15
	call	uxListRemove
.Ltmp483:
	.loc	2 2582 17 is_stmt 1             # C:/Vega/rv32m1_sdk_riscv/rtos/freertos_9.0.0/Source/tasks.c:2582:17
	lw	a1, -12(s0)
	.loc	2 2582 44 is_stmt 0             # C:/Vega/rv32m1_sdk_riscv/rtos/freertos_9.0.0/Source/tasks.c:2582:44
	lw	a1, 40(a1)
	mv	a2, zero
.Ltmp484:
	.loc	2 2582 10                       # C:/Vega/rv32m1_sdk_riscv/rtos/freertos_9.0.0/Source/tasks.c:2582:10
	beq	a1, a2, .LBB23_16
	j	.LBB23_15
.LBB23_15:                              # %if.then29
                                        #   in Loop: Header=BB23_9 Depth=1
.Ltmp485:
	.loc	2 2584 33 is_stmt 1             # C:/Vega/rv32m1_sdk_riscv/rtos/freertos_9.0.0/Source/tasks.c:2584:33
	lw	a0, -12(s0)
	.loc	2 2584 40 is_stmt 0             # C:/Vega/rv32m1_sdk_riscv/rtos/freertos_9.0.0/Source/tasks.c:2584:40
	addi	a0, a0, 24
	.loc	2 2584 16                       # C:/Vega/rv32m1_sdk_riscv/rtos/freertos_9.0.0/Source/tasks.c:2584:16
	call	uxListRemove
	.loc	2 2585 6 is_stmt 1              # C:/Vega/rv32m1_sdk_riscv/rtos/freertos_9.0.0/Source/tasks.c:2585:6
	j	.LBB23_17
.Ltmp486:
.LBB23_16:                              # %if.else32
                                        #   in Loop: Header=BB23_9 Depth=1
	.loc	2 0 6 is_stmt 0                 # C:/Vega/rv32m1_sdk_riscv/rtos/freertos_9.0.0/Source/tasks.c:0:6
	j	.LBB23_17
.LBB23_17:                              # %if.end33
                                        #   in Loop: Header=BB23_9 Depth=1
.Ltmp487:
	.loc	2 2593 18 is_stmt 1             # C:/Vega/rv32m1_sdk_riscv/rtos/freertos_9.0.0/Source/tasks.c:2593:18
	lw	a0, -12(s0)
	.loc	2 2593 27 is_stmt 0             # C:/Vega/rv32m1_sdk_riscv/rtos/freertos_9.0.0/Source/tasks.c:2593:27
	lw	a0, 44(a0)
	.loc	2 2593 42                       # C:/Vega/rv32m1_sdk_riscv/rtos/freertos_9.0.0/Source/tasks.c:2593:42
	lui	a1, %hi(uxTopReadyPriority)
	lw	a1, %lo(uxTopReadyPriority)(a1)
.Ltmp488:
	.loc	2 2593 14                       # C:/Vega/rv32m1_sdk_riscv/rtos/freertos_9.0.0/Source/tasks.c:2593:14
	bgeu	a1, a0, .LBB23_19
	j	.LBB23_18
.LBB23_18:                              # %if.then36
                                        #   in Loop: Header=BB23_9 Depth=1
.Ltmp489:
	.loc	2 2593 90                       # C:/Vega/rv32m1_sdk_riscv/rtos/freertos_9.0.0/Source/tasks.c:2593:90
	lw	a0, -12(s0)
	.loc	2 2593 99                       # C:/Vega/rv32m1_sdk_riscv/rtos/freertos_9.0.0/Source/tasks.c:2593:99
	lw	a0, 44(a0)
	.loc	2 2593 84                       # C:/Vega/rv32m1_sdk_riscv/rtos/freertos_9.0.0/Source/tasks.c:2593:84
	lui	a1, %hi(uxTopReadyPriority)
	sw	a0, %lo(uxTopReadyPriority)(a1)
	.loc	2 2593 113                      # C:/Vega/rv32m1_sdk_riscv/rtos/freertos_9.0.0/Source/tasks.c:2593:113
	j	.LBB23_19
.Ltmp490:
.LBB23_19:                              # %if.end38
                                        #   in Loop: Header=BB23_9 Depth=1
	.loc	2 2593 158                      # C:/Vega/rv32m1_sdk_riscv/rtos/freertos_9.0.0/Source/tasks.c:2593:158
	lw	a0, -12(s0)
	.loc	2 2593 167                      # C:/Vega/rv32m1_sdk_riscv/rtos/freertos_9.0.0/Source/tasks.c:2593:167
	lw	a1, 44(a0)
	addi	a2, zero, 20
	.loc	2 2593 137                      # C:/Vega/rv32m1_sdk_riscv/rtos/freertos_9.0.0/Source/tasks.c:2593:137
	sw	a0, -32(s0)
	mv	a0, a1
	mv	a1, a2
	call	__mulsi3
	lui	a1, %hi(pxReadyTasksLists)
	addi	a1, a1, %lo(pxReadyTasksLists)
	add	a0, a0, a1
	.loc	2 2593 197                      # C:/Vega/rv32m1_sdk_riscv/rtos/freertos_9.0.0/Source/tasks.c:2593:197
	lw	a1, -32(s0)
	addi	a1, a1, 4
	.loc	2 2593 118                      # C:/Vega/rv32m1_sdk_riscv/rtos/freertos_9.0.0/Source/tasks.c:2593:118
	call	vListInsertEnd
.Ltmp491:
	.loc	2 2603 11 is_stmt 1             # C:/Vega/rv32m1_sdk_riscv/rtos/freertos_9.0.0/Source/tasks.c:2603:11
	lw	a0, -12(s0)
	.loc	2 2603 18 is_stmt 0             # C:/Vega/rv32m1_sdk_riscv/rtos/freertos_9.0.0/Source/tasks.c:2603:18
	lw	a0, 44(a0)
	.loc	2 2603 32                       # C:/Vega/rv32m1_sdk_riscv/rtos/freertos_9.0.0/Source/tasks.c:2603:32
	lui	a1, %hi(pxCurrentTCB)
	lw	a1, %lo(pxCurrentTCB)(a1)
	.loc	2 2603 46                       # C:/Vega/rv32m1_sdk_riscv/rtos/freertos_9.0.0/Source/tasks.c:2603:46
	lw	a1, 44(a1)
.Ltmp492:
	.loc	2 2603 11                       # C:/Vega/rv32m1_sdk_riscv/rtos/freertos_9.0.0/Source/tasks.c:2603:11
	bltu	a0, a1, .LBB23_21
	j	.LBB23_20
.LBB23_20:                              # %if.then45
                                        #   in Loop: Header=BB23_9 Depth=1
	.loc	2 0 11                          # C:/Vega/rv32m1_sdk_riscv/rtos/freertos_9.0.0/Source/tasks.c:0:11
	addi	a0, zero, 1
.Ltmp493:
	.loc	2 2605 24 is_stmt 1             # C:/Vega/rv32m1_sdk_riscv/rtos/freertos_9.0.0/Source/tasks.c:2605:24
	sw	a0, -20(s0)
	.loc	2 2606 7                        # C:/Vega/rv32m1_sdk_riscv/rtos/freertos_9.0.0/Source/tasks.c:2606:7
	j	.LBB23_22
.Ltmp494:
.LBB23_21:                              # %if.else46
                                        #   in Loop: Header=BB23_9 Depth=1
	.loc	2 0 7 is_stmt 0                 # C:/Vega/rv32m1_sdk_riscv/rtos/freertos_9.0.0/Source/tasks.c:0:7
	j	.LBB23_22
.LBB23_22:                              # %if.end47
                                        #   in Loop: Header=BB23_9 Depth=1
	j	.LBB23_23
.LBB23_23:                              # %if.end48
                                        #   in Loop: Header=BB23_9 Depth=1
	.loc	2 2541 4 is_stmt 1              # C:/Vega/rv32m1_sdk_riscv/rtos/freertos_9.0.0/Source/tasks.c:2541:4
	j	.LBB23_9
.Ltmp495:
.LBB23_24:                              # %for.end
	.loc	2 2615 3                        # C:/Vega/rv32m1_sdk_riscv/rtos/freertos_9.0.0/Source/tasks.c:2615:3
	j	.LBB23_25
.Ltmp496:
.LBB23_25:                              # %if.end49
	.loc	2 2647 2                        # C:/Vega/rv32m1_sdk_riscv/rtos/freertos_9.0.0/Source/tasks.c:2647:2
	j	.LBB23_27
.Ltmp497:
.LBB23_26:                              # %if.else50
	.loc	2 2650 3                        # C:/Vega/rv32m1_sdk_riscv/rtos/freertos_9.0.0/Source/tasks.c:2650:3
	lui	a0, %hi(uxPendedTicks)
	lw	a1, %lo(uxPendedTicks)(a0)
	addi	a1, a1, 1
	sw	a1, %lo(uxPendedTicks)(a0)
	j	.LBB23_27
.Ltmp498:
.LBB23_27:                              # %if.end52
	.loc	2 2663 7                        # C:/Vega/rv32m1_sdk_riscv/rtos/freertos_9.0.0/Source/tasks.c:2663:7
	lui	a0, %hi(xYieldPending)
	lw	a0, %lo(xYieldPending)(a0)
	mv	a1, zero
.Ltmp499:
	.loc	2 2663 7 is_stmt 0              # C:/Vega/rv32m1_sdk_riscv/rtos/freertos_9.0.0/Source/tasks.c:2663:7
	beq	a0, a1, .LBB23_29
	j	.LBB23_28
.LBB23_28:                              # %if.then55
	.loc	2 0 7                           # C:/Vega/rv32m1_sdk_riscv/rtos/freertos_9.0.0/Source/tasks.c:0:7
	addi	a0, zero, 1
.Ltmp500:
	.loc	2 2665 20 is_stmt 1             # C:/Vega/rv32m1_sdk_riscv/rtos/freertos_9.0.0/Source/tasks.c:2665:20
	sw	a0, -20(s0)
	.loc	2 2666 3                        # C:/Vega/rv32m1_sdk_riscv/rtos/freertos_9.0.0/Source/tasks.c:2666:3
	j	.LBB23_30
.Ltmp501:
.LBB23_29:                              # %if.else56
	.loc	2 0 3 is_stmt 0                 # C:/Vega/rv32m1_sdk_riscv/rtos/freertos_9.0.0/Source/tasks.c:0:3
	j	.LBB23_30
.LBB23_30:                              # %if.end57
	.loc	2 2674 9 is_stmt 1              # C:/Vega/rv32m1_sdk_riscv/rtos/freertos_9.0.0/Source/tasks.c:2674:9
	lw	a0, -20(s0)
	.loc	2 2674 2 is_stmt 0              # C:/Vega/rv32m1_sdk_riscv/rtos/freertos_9.0.0/Source/tasks.c:2674:2
	lw	s0, 24(sp)
	lw	ra, 28(sp)
	addi	sp, sp, 32
	ret
.Ltmp502:
.Lfunc_end23:
	.size	xTaskIncrementTick, .Lfunc_end23-xTaskIncrementTick
	.cfi_endproc
                                        # -- End function
	.section	.text.xTaskGetTickCount,"ax",@progbits
	.globl	xTaskGetTickCount               # -- Begin function xTaskGetTickCount
	.p2align	2
	.type	xTaskGetTickCount,@function
xTaskGetTickCount:                      # @xTaskGetTickCount
.Lfunc_begin24:
	.loc	2 2135 0 is_stmt 1              # C:/Vega/rv32m1_sdk_riscv/rtos/freertos_9.0.0/Source/tasks.c:2135:0
	.cfi_startproc
# %bb.0:                                # %entry
	addi	sp, sp, -16
	.cfi_def_cfa_offset 16
.Ltmp503:
	.loc	2 2139 2 prologue_end           # C:/Vega/rv32m1_sdk_riscv/rtos/freertos_9.0.0/Source/tasks.c:2139:2
	sw	ra, 12(sp)
	sw	s0, 8(sp)
	.cfi_offset ra, -4
	.cfi_offset s0, -8
	addi	s0, sp, 16
	.cfi_def_cfa s0, 0
	call	vPortEnterCritical
.Ltmp504:
	.loc	2 2141 12                       # C:/Vega/rv32m1_sdk_riscv/rtos/freertos_9.0.0/Source/tasks.c:2141:12
	lui	a0, %hi(xTickCount)
	lw	a0, %lo(xTickCount)(a0)
	.loc	2 2141 10 is_stmt 0             # C:/Vega/rv32m1_sdk_riscv/rtos/freertos_9.0.0/Source/tasks.c:2141:10
	sw	a0, -12(s0)
.Ltmp505:
	.loc	2 2143 2 is_stmt 1              # C:/Vega/rv32m1_sdk_riscv/rtos/freertos_9.0.0/Source/tasks.c:2143:2
	call	vPortExitCritical
	.loc	2 2145 9                        # C:/Vega/rv32m1_sdk_riscv/rtos/freertos_9.0.0/Source/tasks.c:2145:9
	lw	a0, -12(s0)
	.loc	2 2145 2 is_stmt 0              # C:/Vega/rv32m1_sdk_riscv/rtos/freertos_9.0.0/Source/tasks.c:2145:2
	lw	s0, 8(sp)
	lw	ra, 12(sp)
	addi	sp, sp, 16
	ret
.Ltmp506:
.Lfunc_end24:
	.size	xTaskGetTickCount, .Lfunc_end24-xTaskGetTickCount
	.cfi_endproc
                                        # -- End function
	.section	.text.xTaskGetTickCountFromISR,"ax",@progbits
	.globl	xTaskGetTickCountFromISR        # -- Begin function xTaskGetTickCountFromISR
	.p2align	2
	.type	xTaskGetTickCountFromISR,@function
xTaskGetTickCountFromISR:               # @xTaskGetTickCountFromISR
.Lfunc_begin25:
	.loc	2 2150 0 is_stmt 1              # C:/Vega/rv32m1_sdk_riscv/rtos/freertos_9.0.0/Source/tasks.c:2150:0
	.cfi_startproc
# %bb.0:                                # %entry
	addi	sp, sp, -16
	.cfi_def_cfa_offset 16
.Ltmp507:
	.loc	2 2170 27 prologue_end          # C:/Vega/rv32m1_sdk_riscv/rtos/freertos_9.0.0/Source/tasks.c:2170:27
	sw	ra, 12(sp)
	sw	s0, 8(sp)
	.cfi_offset ra, -4
	.cfi_offset s0, -8
	addi	s0, sp, 16
	.cfi_def_cfa s0, 0
	call	vPortSetInterruptMask
	.loc	2 2170 25 is_stmt 0             # C:/Vega/rv32m1_sdk_riscv/rtos/freertos_9.0.0/Source/tasks.c:2170:25
	sw	a0, -16(s0)
.Ltmp508:
	.loc	2 2172 13 is_stmt 1             # C:/Vega/rv32m1_sdk_riscv/rtos/freertos_9.0.0/Source/tasks.c:2172:13
	lui	a0, %hi(xTickCount)
	lw	a0, %lo(xTickCount)(a0)
	.loc	2 2172 11 is_stmt 0             # C:/Vega/rv32m1_sdk_riscv/rtos/freertos_9.0.0/Source/tasks.c:2172:11
	sw	a0, -12(s0)
.Ltmp509:
	.loc	2 2174 28 is_stmt 1             # C:/Vega/rv32m1_sdk_riscv/rtos/freertos_9.0.0/Source/tasks.c:2174:28
	lw	a0, -16(s0)
	.loc	2 2174 2 is_stmt 0              # C:/Vega/rv32m1_sdk_riscv/rtos/freertos_9.0.0/Source/tasks.c:2174:2
	call	vPortClearInterruptMask
	.loc	2 2176 9 is_stmt 1              # C:/Vega/rv32m1_sdk_riscv/rtos/freertos_9.0.0/Source/tasks.c:2176:9
	lw	a0, -12(s0)
	.loc	2 2176 2 is_stmt 0              # C:/Vega/rv32m1_sdk_riscv/rtos/freertos_9.0.0/Source/tasks.c:2176:2
	lw	s0, 8(sp)
	lw	ra, 12(sp)
	addi	sp, sp, 16
	ret
.Ltmp510:
.Lfunc_end25:
	.size	xTaskGetTickCountFromISR, .Lfunc_end25-xTaskGetTickCountFromISR
	.cfi_endproc
                                        # -- End function
	.section	.text.uxTaskGetNumberOfTasks,"ax",@progbits
	.globl	uxTaskGetNumberOfTasks          # -- Begin function uxTaskGetNumberOfTasks
	.p2align	2
	.type	uxTaskGetNumberOfTasks,@function
uxTaskGetNumberOfTasks:                 # @uxTaskGetNumberOfTasks
.Lfunc_begin26:
	.loc	2 2181 0 is_stmt 1              # C:/Vega/rv32m1_sdk_riscv/rtos/freertos_9.0.0/Source/tasks.c:2181:0
	.cfi_startproc
# %bb.0:                                # %entry
	addi	sp, sp, -16
	.cfi_def_cfa_offset 16
.Ltmp511:
	.loc	2 2184 9 prologue_end           # C:/Vega/rv32m1_sdk_riscv/rtos/freertos_9.0.0/Source/tasks.c:2184:9
	sw	ra, 12(sp)
	sw	s0, 8(sp)
	.cfi_offset ra, -4
	.cfi_offset s0, -8
	addi	s0, sp, 16
	.cfi_def_cfa s0, 0
	lui	a0, %hi(uxCurrentNumberOfTasks)
	lw	a0, %lo(uxCurrentNumberOfTasks)(a0)
	.loc	2 2184 2 is_stmt 0              # C:/Vega/rv32m1_sdk_riscv/rtos/freertos_9.0.0/Source/tasks.c:2184:2
	lw	s0, 8(sp)
	lw	ra, 12(sp)
	addi	sp, sp, 16
	ret
.Ltmp512:
.Lfunc_end26:
	.size	uxTaskGetNumberOfTasks, .Lfunc_end26-uxTaskGetNumberOfTasks
	.cfi_endproc
                                        # -- End function
	.section	.text.pcTaskGetName,"ax",@progbits
	.globl	pcTaskGetName                   # -- Begin function pcTaskGetName
	.p2align	2
	.type	pcTaskGetName,@function
pcTaskGetName:                          # @pcTaskGetName
.Lfunc_begin27:
	.loc	2 2189 0 is_stmt 1              # C:/Vega/rv32m1_sdk_riscv/rtos/freertos_9.0.0/Source/tasks.c:2189:0
	.cfi_startproc
# %bb.0:                                # %entry
	addi	sp, sp, -32
	.cfi_def_cfa_offset 32
	sw	ra, 28(sp)
	sw	s0, 24(sp)
	.cfi_offset ra, -4
	.cfi_offset s0, -8
	addi	s0, sp, 32
	.cfi_def_cfa s0, 0
	sw	a0, -12(s0)
.Ltmp513:
	.loc	2 2194 16 prologue_end          # C:/Vega/rv32m1_sdk_riscv/rtos/freertos_9.0.0/Source/tasks.c:2194:16
	lw	a0, -12(s0)
	mv	a1, zero
	.loc	2 2194 12 is_stmt 0             # C:/Vega/rv32m1_sdk_riscv/rtos/freertos_9.0.0/Source/tasks.c:2194:12
	bne	a0, a1, .LBB27_2
	j	.LBB27_1
.LBB27_1:                               # %cond.true
	.loc	2 2194 61                       # C:/Vega/rv32m1_sdk_riscv/rtos/freertos_9.0.0/Source/tasks.c:2194:61
	lui	a0, %hi(pxCurrentTCB)
	lw	a0, %lo(pxCurrentTCB)(a0)
	.loc	2 2194 12                       # C:/Vega/rv32m1_sdk_riscv/rtos/freertos_9.0.0/Source/tasks.c:2194:12
	sw	a0, -20(s0)
	j	.LBB27_3
.LBB27_2:                               # %cond.false
	.loc	2 2194 90                       # C:/Vega/rv32m1_sdk_riscv/rtos/freertos_9.0.0/Source/tasks.c:2194:90
	lw	a0, -12(s0)
	.loc	2 2194 12                       # C:/Vega/rv32m1_sdk_riscv/rtos/freertos_9.0.0/Source/tasks.c:2194:12
	sw	a0, -20(s0)
	j	.LBB27_3
.LBB27_3:                               # %cond.end
	lw	a0, -20(s0)
	.loc	2 2194 8                        # C:/Vega/rv32m1_sdk_riscv/rtos/freertos_9.0.0/Source/tasks.c:2194:8
	sw	a0, -16(s0)
.Ltmp514:
	.loc	2 2195 7 is_stmt 1              # C:/Vega/rv32m1_sdk_riscv/rtos/freertos_9.0.0/Source/tasks.c:2195:7
	lw	a0, -16(s0)
	mv	a1, zero
.Ltmp515:
	.loc	2 2195 5 is_stmt 0              # C:/Vega/rv32m1_sdk_riscv/rtos/freertos_9.0.0/Source/tasks.c:2195:5
	bne	a0, a1, .LBB27_6
	j	.LBB27_4
.LBB27_4:                               # %if.then
.Ltmp516:
	.loc	2 2195 21                       # C:/Vega/rv32m1_sdk_riscv/rtos/freertos_9.0.0/Source/tasks.c:2195:21
	call	vPortSetInterruptMask
	.loc	2 2195 46                       # C:/Vega/rv32m1_sdk_riscv/rtos/freertos_9.0.0/Source/tasks.c:2195:46
	j	.LBB27_5
.LBB27_5:                               # %for.cond
                                        # =>This Inner Loop Header: Depth=1
.Ltmp517:
	.loc	2 2195 46                       # C:/Vega/rv32m1_sdk_riscv/rtos/freertos_9.0.0/Source/tasks.c:2195:46
	j	.LBB27_5
.Ltmp518:
.LBB27_6:                               # %if.end
	.loc	2 2196 12 is_stmt 1             # C:/Vega/rv32m1_sdk_riscv/rtos/freertos_9.0.0/Source/tasks.c:2196:12
	lw	a0, -16(s0)
	.loc	2 2196 19 is_stmt 0             # C:/Vega/rv32m1_sdk_riscv/rtos/freertos_9.0.0/Source/tasks.c:2196:19
	addi	a0, a0, 52
	.loc	2 2196 2                        # C:/Vega/rv32m1_sdk_riscv/rtos/freertos_9.0.0/Source/tasks.c:2196:2
	lw	s0, 24(sp)
	lw	ra, 28(sp)
	addi	sp, sp, 32
	ret
.Ltmp519:
.Lfunc_end27:
	.size	pcTaskGetName, .Lfunc_end27-pcTaskGetName
	.cfi_endproc
                                        # -- End function
	.section	.text.uxTaskGetSystemState,"ax",@progbits
	.globl	uxTaskGetSystemState            # -- Begin function uxTaskGetSystemState
	.p2align	2
	.type	uxTaskGetSystemState,@function
uxTaskGetSystemState:                   # @uxTaskGetSystemState
.Lfunc_begin28:
	.loc	2 2329 0 is_stmt 1              # C:/Vega/rv32m1_sdk_riscv/rtos/freertos_9.0.0/Source/tasks.c:2329:0
	.cfi_startproc
# %bb.0:                                # %entry
	addi	sp, sp, -64
	.cfi_def_cfa_offset 64
	sw	ra, 60(sp)
	sw	s0, 56(sp)
	.cfi_offset ra, -4
	.cfi_offset s0, -8
	addi	s0, sp, 64
	.cfi_def_cfa s0, 0
	sw	a0, -12(s0)
	sw	a1, -16(s0)
	sw	a2, -20(s0)
	mv	a0, zero
.Ltmp520:
	.loc	2 2330 14 prologue_end          # C:/Vega/rv32m1_sdk_riscv/rtos/freertos_9.0.0/Source/tasks.c:2330:14
	sw	a0, -24(s0)
	addi	a0, zero, 5
	.loc	2 2330 26 is_stmt 0             # C:/Vega/rv32m1_sdk_riscv/rtos/freertos_9.0.0/Source/tasks.c:2330:26
	sw	a0, -28(s0)
	.loc	2 2332 3 is_stmt 1              # C:/Vega/rv32m1_sdk_riscv/rtos/freertos_9.0.0/Source/tasks.c:2332:3
	call	vTaskSuspendAll
.Ltmp521:
	.loc	2 2335 8                        # C:/Vega/rv32m1_sdk_riscv/rtos/freertos_9.0.0/Source/tasks.c:2335:8
	lw	a0, -16(s0)
	.loc	2 2335 23 is_stmt 0             # C:/Vega/rv32m1_sdk_riscv/rtos/freertos_9.0.0/Source/tasks.c:2335:23
	lui	a1, %hi(uxCurrentNumberOfTasks)
	lw	a1, %lo(uxCurrentNumberOfTasks)(a1)
.Ltmp522:
	.loc	2 2335 8                        # C:/Vega/rv32m1_sdk_riscv/rtos/freertos_9.0.0/Source/tasks.c:2335:8
	bltu	a0, a1, .LBB28_7
	j	.LBB28_1
.LBB28_1:                               # %if.then
.Ltmp523:
	.loc	2 2339 5 is_stmt 1              # C:/Vega/rv32m1_sdk_riscv/rtos/freertos_9.0.0/Source/tasks.c:2339:5
	j	.LBB28_2
.LBB28_2:                               # %do.body
                                        # =>This Inner Loop Header: Depth=1
.Ltmp524:
	.loc	2 2341 13                       # C:/Vega/rv32m1_sdk_riscv/rtos/freertos_9.0.0/Source/tasks.c:2341:13
	lw	a0, -28(s0)
	addi	a0, a0, -1
	sw	a0, -28(s0)
	.loc	2 2342 49                       # C:/Vega/rv32m1_sdk_riscv/rtos/freertos_9.0.0/Source/tasks.c:2342:49
	lw	a0, -12(s0)
	.loc	2 2342 68 is_stmt 0             # C:/Vega/rv32m1_sdk_riscv/rtos/freertos_9.0.0/Source/tasks.c:2342:68
	lw	a1, -24(s0)
	addi	a2, zero, 36
	.loc	2 2342 49                       # C:/Vega/rv32m1_sdk_riscv/rtos/freertos_9.0.0/Source/tasks.c:2342:49
	sw	a0, -32(s0)
	mv	a0, a1
	mv	a1, a2
	call	__mulsi3
	lw	a1, -32(s0)
	add	a0, a1, a0
	.loc	2 2342 102                      # C:/Vega/rv32m1_sdk_riscv/rtos/freertos_9.0.0/Source/tasks.c:2342:102
	lw	a1, -28(s0)
	addi	a2, zero, 20
	.loc	2 2342 83                       # C:/Vega/rv32m1_sdk_riscv/rtos/freertos_9.0.0/Source/tasks.c:2342:83
	sw	a0, -36(s0)
	mv	a0, a1
	mv	a1, a2
	call	__mulsi3
	lui	a1, %hi(pxReadyTasksLists)
	addi	a1, a1, %lo(pxReadyTasksLists)
	add	a1, a0, a1
	addi	a2, zero, 1
	.loc	2 2342 16                       # C:/Vega/rv32m1_sdk_riscv/rtos/freertos_9.0.0/Source/tasks.c:2342:16
	lw	a0, -36(s0)
	call	prvListTasksWithinSingleList
	.loc	2 2342 13                       # C:/Vega/rv32m1_sdk_riscv/rtos/freertos_9.0.0/Source/tasks.c:2342:13
	lw	a1, -24(s0)
	add	a0, a1, a0
	sw	a0, -24(s0)
	.loc	2 2344 5 is_stmt 1              # C:/Vega/rv32m1_sdk_riscv/rtos/freertos_9.0.0/Source/tasks.c:2344:5
	j	.LBB28_3
.Ltmp525:
.LBB28_3:                               # %do.cond
                                        #   in Loop: Header=BB28_2 Depth=1
	.loc	2 2344 14 is_stmt 0             # C:/Vega/rv32m1_sdk_riscv/rtos/freertos_9.0.0/Source/tasks.c:2344:14
	lw	a0, -28(s0)
	mv	a1, zero
.Ltmp526:
	.loc	2 2344 5                        # C:/Vega/rv32m1_sdk_riscv/rtos/freertos_9.0.0/Source/tasks.c:2344:5
	bne	a0, a1, .LBB28_2
	j	.LBB28_4
.Ltmp527:
.LBB28_4:                               # %do.end
	.loc	2 2348 48 is_stmt 1             # C:/Vega/rv32m1_sdk_riscv/rtos/freertos_9.0.0/Source/tasks.c:2348:48
	lw	a0, -12(s0)
	.loc	2 2348 67 is_stmt 0             # C:/Vega/rv32m1_sdk_riscv/rtos/freertos_9.0.0/Source/tasks.c:2348:67
	lw	a1, -24(s0)
	addi	a2, zero, 36
	.loc	2 2348 48                       # C:/Vega/rv32m1_sdk_riscv/rtos/freertos_9.0.0/Source/tasks.c:2348:48
	sw	a0, -40(s0)
	mv	a0, a1
	mv	a1, a2
	sw	a2, -44(s0)
	call	__mulsi3
	lw	a1, -40(s0)
	add	a0, a1, a0
	.loc	2 2348 92                       # C:/Vega/rv32m1_sdk_riscv/rtos/freertos_9.0.0/Source/tasks.c:2348:92
	lui	a1, %hi(pxDelayedTaskList)
	lw	a1, %lo(pxDelayedTaskList)(a1)
	addi	a2, zero, 2
	.loc	2 2348 15                       # C:/Vega/rv32m1_sdk_riscv/rtos/freertos_9.0.0/Source/tasks.c:2348:15
	sw	a2, -48(s0)
	call	prvListTasksWithinSingleList
	.loc	2 2348 12                       # C:/Vega/rv32m1_sdk_riscv/rtos/freertos_9.0.0/Source/tasks.c:2348:12
	lw	a1, -24(s0)
	add	a0, a1, a0
	sw	a0, -24(s0)
	.loc	2 2349 48 is_stmt 1             # C:/Vega/rv32m1_sdk_riscv/rtos/freertos_9.0.0/Source/tasks.c:2349:48
	lw	a0, -12(s0)
	.loc	2 2349 67 is_stmt 0             # C:/Vega/rv32m1_sdk_riscv/rtos/freertos_9.0.0/Source/tasks.c:2349:67
	lw	a1, -24(s0)
	.loc	2 2349 48                       # C:/Vega/rv32m1_sdk_riscv/rtos/freertos_9.0.0/Source/tasks.c:2349:48
	sw	a0, -52(s0)
	mv	a0, a1
	lw	a1, -44(s0)
	call	__mulsi3
	lw	a1, -52(s0)
	add	a0, a1, a0
	.loc	2 2349 92                       # C:/Vega/rv32m1_sdk_riscv/rtos/freertos_9.0.0/Source/tasks.c:2349:92
	lui	a1, %hi(pxOverflowDelayedTaskList)
	lw	a1, %lo(pxOverflowDelayedTaskList)(a1)
	.loc	2 2349 15                       # C:/Vega/rv32m1_sdk_riscv/rtos/freertos_9.0.0/Source/tasks.c:2349:15
	lw	a2, -48(s0)
	call	prvListTasksWithinSingleList
	.loc	2 2349 12                       # C:/Vega/rv32m1_sdk_riscv/rtos/freertos_9.0.0/Source/tasks.c:2349:12
	lw	a1, -24(s0)
	add	a0, a1, a0
	sw	a0, -24(s0)
.Ltmp528:
	.loc	2 2355 49 is_stmt 1             # C:/Vega/rv32m1_sdk_riscv/rtos/freertos_9.0.0/Source/tasks.c:2355:49
	lw	a0, -12(s0)
	.loc	2 2355 68 is_stmt 0             # C:/Vega/rv32m1_sdk_riscv/rtos/freertos_9.0.0/Source/tasks.c:2355:68
	lw	a1, -24(s0)
	.loc	2 2355 49                       # C:/Vega/rv32m1_sdk_riscv/rtos/freertos_9.0.0/Source/tasks.c:2355:49
	sw	a0, -56(s0)
	mv	a0, a1
	lw	a1, -44(s0)
	call	__mulsi3
	lw	a1, -56(s0)
	add	a0, a1, a0
	.loc	2 2355 16                       # C:/Vega/rv32m1_sdk_riscv/rtos/freertos_9.0.0/Source/tasks.c:2355:16
	lui	a1, %hi(xTasksWaitingTermination)
	addi	a1, a1, %lo(xTasksWaitingTermination)
	addi	a2, zero, 4
	call	prvListTasksWithinSingleList
	.loc	2 2355 13                       # C:/Vega/rv32m1_sdk_riscv/rtos/freertos_9.0.0/Source/tasks.c:2355:13
	lw	a1, -24(s0)
	add	a0, a1, a0
	sw	a0, -24(s0)
.Ltmp529:
	.loc	2 2363 49 is_stmt 1             # C:/Vega/rv32m1_sdk_riscv/rtos/freertos_9.0.0/Source/tasks.c:2363:49
	lw	a0, -12(s0)
	.loc	2 2363 68 is_stmt 0             # C:/Vega/rv32m1_sdk_riscv/rtos/freertos_9.0.0/Source/tasks.c:2363:68
	lw	a1, -24(s0)
	.loc	2 2363 49                       # C:/Vega/rv32m1_sdk_riscv/rtos/freertos_9.0.0/Source/tasks.c:2363:49
	sw	a0, -60(s0)
	mv	a0, a1
	lw	a1, -44(s0)
	call	__mulsi3
	lw	a1, -60(s0)
	add	a0, a1, a0
	.loc	2 2363 16                       # C:/Vega/rv32m1_sdk_riscv/rtos/freertos_9.0.0/Source/tasks.c:2363:16
	lui	a1, %hi(xSuspendedTaskList)
	addi	a1, a1, %lo(xSuspendedTaskList)
	addi	a2, zero, 3
	call	prvListTasksWithinSingleList
	.loc	2 2363 13                       # C:/Vega/rv32m1_sdk_riscv/rtos/freertos_9.0.0/Source/tasks.c:2363:13
	lw	a1, -24(s0)
	add	a0, a1, a0
	sw	a0, -24(s0)
.Ltmp530:
	.loc	2 2380 10 is_stmt 1             # C:/Vega/rv32m1_sdk_riscv/rtos/freertos_9.0.0/Source/tasks.c:2380:10
	lw	a0, -20(s0)
	mv	a1, zero
.Ltmp531:
	.loc	2 2380 10 is_stmt 0             # C:/Vega/rv32m1_sdk_riscv/rtos/freertos_9.0.0/Source/tasks.c:2380:10
	beq	a0, a1, .LBB28_6
	j	.LBB28_5
.LBB28_5:                               # %if.then16
.Ltmp532:
	.loc	2 2382 8 is_stmt 1              # C:/Vega/rv32m1_sdk_riscv/rtos/freertos_9.0.0/Source/tasks.c:2382:8
	lw	a0, -20(s0)
	mv	a1, zero
	.loc	2 2382 24 is_stmt 0             # C:/Vega/rv32m1_sdk_riscv/rtos/freertos_9.0.0/Source/tasks.c:2382:24
	sw	a1, 0(a0)
	.loc	2 2383 6 is_stmt 1              # C:/Vega/rv32m1_sdk_riscv/rtos/freertos_9.0.0/Source/tasks.c:2383:6
	j	.LBB28_6
.Ltmp533:
.LBB28_6:                               # %if.end
	.loc	2 2386 4                        # C:/Vega/rv32m1_sdk_riscv/rtos/freertos_9.0.0/Source/tasks.c:2386:4
	j	.LBB28_8
.Ltmp534:
.LBB28_7:                               # %if.else
	.loc	2 0 4 is_stmt 0                 # C:/Vega/rv32m1_sdk_riscv/rtos/freertos_9.0.0/Source/tasks.c:0:4
	j	.LBB28_8
.LBB28_8:                               # %if.end17
	.loc	2 2392 12 is_stmt 1             # C:/Vega/rv32m1_sdk_riscv/rtos/freertos_9.0.0/Source/tasks.c:2392:12
	call	xTaskResumeAll
	.loc	2 2394 10                       # C:/Vega/rv32m1_sdk_riscv/rtos/freertos_9.0.0/Source/tasks.c:2394:10
	lw	a1, -24(s0)
	.loc	2 2394 3 is_stmt 0              # C:/Vega/rv32m1_sdk_riscv/rtos/freertos_9.0.0/Source/tasks.c:2394:3
	sw	a0, -64(s0)
	mv	a0, a1
	lw	s0, 56(sp)
	lw	ra, 60(sp)
	addi	sp, sp, 64
	ret
.Ltmp535:
.Lfunc_end28:
	.size	uxTaskGetSystemState, .Lfunc_end28-uxTaskGetSystemState
	.cfi_endproc
                                        # -- End function
	.section	.text.prvListTasksWithinSingleList,"ax",@progbits
	.p2align	2                               # -- Begin function prvListTasksWithinSingleList
	.type	prvListTasksWithinSingleList,@function
prvListTasksWithinSingleList:           # @prvListTasksWithinSingleList
.Lfunc_begin29:
	.loc	2 3508 0 is_stmt 1              # C:/Vega/rv32m1_sdk_riscv/rtos/freertos_9.0.0/Source/tasks.c:3508:0
	.cfi_startproc
# %bb.0:                                # %entry
	addi	sp, sp, -48
	.cfi_def_cfa_offset 48
	sw	ra, 44(sp)
	sw	s0, 40(sp)
	.cfi_offset ra, -4
	.cfi_offset s0, -8
	addi	s0, sp, 48
	.cfi_def_cfa s0, 0
	sw	a0, -12(s0)
	sw	a1, -16(s0)
	sw	a2, -20(s0)
	mv	a0, zero
.Ltmp536:
	.loc	2 3510 14 prologue_end          # C:/Vega/rv32m1_sdk_riscv/rtos/freertos_9.0.0/Source/tasks.c:3510:14
	sw	a0, -32(s0)
.Ltmp537:
	.loc	2 3512 11                       # C:/Vega/rv32m1_sdk_riscv/rtos/freertos_9.0.0/Source/tasks.c:3512:11
	lw	a1, -16(s0)
	.loc	2 3512 21 is_stmt 0             # C:/Vega/rv32m1_sdk_riscv/rtos/freertos_9.0.0/Source/tasks.c:3512:21
	lw	a1, 0(a1)
.Ltmp538:
	.loc	2 3512 7                        # C:/Vega/rv32m1_sdk_riscv/rtos/freertos_9.0.0/Source/tasks.c:3512:7
	beq	a1, a0, .LBB29_9
	j	.LBB29_1
.LBB29_1:                               # %if.then
.Ltmp539:
	.loc	2 3514 37 is_stmt 1             # C:/Vega/rv32m1_sdk_riscv/rtos/freertos_9.0.0/Source/tasks.c:3514:37
	lw	a0, -16(s0)
	.loc	2 3514 21 is_stmt 0             # C:/Vega/rv32m1_sdk_riscv/rtos/freertos_9.0.0/Source/tasks.c:3514:21
	sw	a0, -36(s0)
	.loc	2 3514 76                       # C:/Vega/rv32m1_sdk_riscv/rtos/freertos_9.0.0/Source/tasks.c:3514:76
	lw	a0, -36(s0)
	.loc	2 3514 91                       # C:/Vega/rv32m1_sdk_riscv/rtos/freertos_9.0.0/Source/tasks.c:3514:91
	lw	a1, 4(a0)
	.loc	2 3514 100                      # C:/Vega/rv32m1_sdk_riscv/rtos/freertos_9.0.0/Source/tasks.c:3514:100
	lw	a1, 4(a1)
	.loc	2 3514 72                       # C:/Vega/rv32m1_sdk_riscv/rtos/freertos_9.0.0/Source/tasks.c:3514:72
	sw	a1, 4(a0)
.Ltmp540:
	.loc	2 3514 125                      # C:/Vega/rv32m1_sdk_riscv/rtos/freertos_9.0.0/Source/tasks.c:3514:125
	lw	a0, -36(s0)
	.loc	2 3514 140                      # C:/Vega/rv32m1_sdk_riscv/rtos/freertos_9.0.0/Source/tasks.c:3514:140
	lw	a1, 4(a0)
	.loc	2 3514 182                      # C:/Vega/rv32m1_sdk_riscv/rtos/freertos_9.0.0/Source/tasks.c:3514:182
	addi	a0, a0, 8
.Ltmp541:
	.loc	2 3514 112                      # C:/Vega/rv32m1_sdk_riscv/rtos/freertos_9.0.0/Source/tasks.c:3514:112
	bne	a1, a0, .LBB29_3
	j	.LBB29_2
.LBB29_2:                               # %if.then4
.Ltmp542:
	.loc	2 3514 226                      # C:/Vega/rv32m1_sdk_riscv/rtos/freertos_9.0.0/Source/tasks.c:3514:226
	lw	a0, -36(s0)
	.loc	2 3514 241                      # C:/Vega/rv32m1_sdk_riscv/rtos/freertos_9.0.0/Source/tasks.c:3514:241
	lw	a1, 4(a0)
	.loc	2 3514 250                      # C:/Vega/rv32m1_sdk_riscv/rtos/freertos_9.0.0/Source/tasks.c:3514:250
	lw	a1, 4(a1)
	.loc	2 3514 222                      # C:/Vega/rv32m1_sdk_riscv/rtos/freertos_9.0.0/Source/tasks.c:3514:222
	sw	a1, 4(a0)
	.loc	2 3514 258                      # C:/Vega/rv32m1_sdk_riscv/rtos/freertos_9.0.0/Source/tasks.c:3514:258
	j	.LBB29_3
.Ltmp543:
.LBB29_3:                               # %if.end
	.loc	2 3514 279                      # C:/Vega/rv32m1_sdk_riscv/rtos/freertos_9.0.0/Source/tasks.c:3514:279
	lw	a0, -36(s0)
	.loc	2 3514 294                      # C:/Vega/rv32m1_sdk_riscv/rtos/freertos_9.0.0/Source/tasks.c:3514:294
	lw	a0, 4(a0)
	.loc	2 3514 303                      # C:/Vega/rv32m1_sdk_riscv/rtos/freertos_9.0.0/Source/tasks.c:3514:303
	lw	a0, 12(a0)
	.loc	2 3514 275                      # C:/Vega/rv32m1_sdk_riscv/rtos/freertos_9.0.0/Source/tasks.c:3514:275
	sw	a0, -28(s0)
.Ltmp544:
	.loc	2 3520 4 is_stmt 1              # C:/Vega/rv32m1_sdk_riscv/rtos/freertos_9.0.0/Source/tasks.c:3520:4
	j	.LBB29_4
.LBB29_4:                               # %do.body
                                        # =>This Inner Loop Header: Depth=1
.Ltmp545:
	.loc	2 3522 38                       # C:/Vega/rv32m1_sdk_riscv/rtos/freertos_9.0.0/Source/tasks.c:3522:38
	lw	a0, -16(s0)
	.loc	2 3522 22 is_stmt 0             # C:/Vega/rv32m1_sdk_riscv/rtos/freertos_9.0.0/Source/tasks.c:3522:22
	sw	a0, -40(s0)
	.loc	2 3522 77                       # C:/Vega/rv32m1_sdk_riscv/rtos/freertos_9.0.0/Source/tasks.c:3522:77
	lw	a0, -40(s0)
	.loc	2 3522 92                       # C:/Vega/rv32m1_sdk_riscv/rtos/freertos_9.0.0/Source/tasks.c:3522:92
	lw	a1, 4(a0)
	.loc	2 3522 101                      # C:/Vega/rv32m1_sdk_riscv/rtos/freertos_9.0.0/Source/tasks.c:3522:101
	lw	a1, 4(a1)
	.loc	2 3522 73                       # C:/Vega/rv32m1_sdk_riscv/rtos/freertos_9.0.0/Source/tasks.c:3522:73
	sw	a1, 4(a0)
.Ltmp546:
	.loc	2 3522 126                      # C:/Vega/rv32m1_sdk_riscv/rtos/freertos_9.0.0/Source/tasks.c:3522:126
	lw	a0, -40(s0)
	.loc	2 3522 141                      # C:/Vega/rv32m1_sdk_riscv/rtos/freertos_9.0.0/Source/tasks.c:3522:141
	lw	a1, 4(a0)
	.loc	2 3522 183                      # C:/Vega/rv32m1_sdk_riscv/rtos/freertos_9.0.0/Source/tasks.c:3522:183
	addi	a0, a0, 8
.Ltmp547:
	.loc	2 3522 113                      # C:/Vega/rv32m1_sdk_riscv/rtos/freertos_9.0.0/Source/tasks.c:3522:113
	bne	a1, a0, .LBB29_6
	j	.LBB29_5
.LBB29_5:                               # %if.then16
                                        #   in Loop: Header=BB29_4 Depth=1
.Ltmp548:
	.loc	2 3522 227                      # C:/Vega/rv32m1_sdk_riscv/rtos/freertos_9.0.0/Source/tasks.c:3522:227
	lw	a0, -40(s0)
	.loc	2 3522 242                      # C:/Vega/rv32m1_sdk_riscv/rtos/freertos_9.0.0/Source/tasks.c:3522:242
	lw	a1, 4(a0)
	.loc	2 3522 251                      # C:/Vega/rv32m1_sdk_riscv/rtos/freertos_9.0.0/Source/tasks.c:3522:251
	lw	a1, 4(a1)
	.loc	2 3522 223                      # C:/Vega/rv32m1_sdk_riscv/rtos/freertos_9.0.0/Source/tasks.c:3522:223
	sw	a1, 4(a0)
	.loc	2 3522 259                      # C:/Vega/rv32m1_sdk_riscv/rtos/freertos_9.0.0/Source/tasks.c:3522:259
	j	.LBB29_6
.Ltmp549:
.LBB29_6:                               # %if.end20
                                        #   in Loop: Header=BB29_4 Depth=1
	.loc	2 3522 279                      # C:/Vega/rv32m1_sdk_riscv/rtos/freertos_9.0.0/Source/tasks.c:3522:279
	lw	a0, -40(s0)
	.loc	2 3522 294                      # C:/Vega/rv32m1_sdk_riscv/rtos/freertos_9.0.0/Source/tasks.c:3522:294
	lw	a0, 4(a0)
	.loc	2 3522 303                      # C:/Vega/rv32m1_sdk_riscv/rtos/freertos_9.0.0/Source/tasks.c:3522:303
	lw	a0, 12(a0)
	.loc	2 3522 275                      # C:/Vega/rv32m1_sdk_riscv/rtos/freertos_9.0.0/Source/tasks.c:3522:275
	sw	a0, -24(s0)
.Ltmp550:
	.loc	2 3523 36 is_stmt 1             # C:/Vega/rv32m1_sdk_riscv/rtos/freertos_9.0.0/Source/tasks.c:3523:36
	lw	a0, -24(s0)
	.loc	2 3523 50 is_stmt 0             # C:/Vega/rv32m1_sdk_riscv/rtos/freertos_9.0.0/Source/tasks.c:3523:50
	lw	a1, -12(s0)
	.loc	2 3523 69                       # C:/Vega/rv32m1_sdk_riscv/rtos/freertos_9.0.0/Source/tasks.c:3523:69
	lw	a2, -32(s0)
	addi	a3, zero, 36
	.loc	2 3523 50                       # C:/Vega/rv32m1_sdk_riscv/rtos/freertos_9.0.0/Source/tasks.c:3523:50
	sw	a0, -44(s0)
	mv	a0, a2
	sw	a1, -48(s0)
	mv	a1, a3
	call	__mulsi3
	lw	a1, -48(s0)
	add	a1, a1, a0
	.loc	2 3523 103                      # C:/Vega/rv32m1_sdk_riscv/rtos/freertos_9.0.0/Source/tasks.c:3523:103
	lw	a3, -20(s0)
	addi	a2, zero, 1
	.loc	2 3523 5                        # C:/Vega/rv32m1_sdk_riscv/rtos/freertos_9.0.0/Source/tasks.c:3523:5
	lw	a0, -44(s0)
	call	vTaskGetInfo
	.loc	2 3524 11 is_stmt 1             # C:/Vega/rv32m1_sdk_riscv/rtos/freertos_9.0.0/Source/tasks.c:3524:11
	lw	a0, -32(s0)
	addi	a0, a0, 1
	sw	a0, -32(s0)
	.loc	2 3525 4                        # C:/Vega/rv32m1_sdk_riscv/rtos/freertos_9.0.0/Source/tasks.c:3525:4
	j	.LBB29_7
.Ltmp551:
.LBB29_7:                               # %do.cond
                                        #   in Loop: Header=BB29_4 Depth=1
	.loc	2 3525 13 is_stmt 0             # C:/Vega/rv32m1_sdk_riscv/rtos/freertos_9.0.0/Source/tasks.c:3525:13
	lw	a0, -24(s0)
	.loc	2 3525 26                       # C:/Vega/rv32m1_sdk_riscv/rtos/freertos_9.0.0/Source/tasks.c:3525:26
	lw	a1, -28(s0)
.Ltmp552:
	.loc	2 3525 4                        # C:/Vega/rv32m1_sdk_riscv/rtos/freertos_9.0.0/Source/tasks.c:3525:4
	bne	a0, a1, .LBB29_4
	j	.LBB29_8
.Ltmp553:
.LBB29_8:                               # %do.end
	.loc	2 3526 3 is_stmt 1              # C:/Vega/rv32m1_sdk_riscv/rtos/freertos_9.0.0/Source/tasks.c:3526:3
	j	.LBB29_10
.Ltmp554:
.LBB29_9:                               # %if.else
	.loc	2 0 3 is_stmt 0                 # C:/Vega/rv32m1_sdk_riscv/rtos/freertos_9.0.0/Source/tasks.c:0:3
	j	.LBB29_10
.LBB29_10:                              # %if.end24
	.loc	2 3532 10 is_stmt 1             # C:/Vega/rv32m1_sdk_riscv/rtos/freertos_9.0.0/Source/tasks.c:3532:10
	lw	a0, -32(s0)
	.loc	2 3532 3 is_stmt 0              # C:/Vega/rv32m1_sdk_riscv/rtos/freertos_9.0.0/Source/tasks.c:3532:3
	lw	s0, 40(sp)
	lw	ra, 44(sp)
	addi	sp, sp, 48
	ret
.Ltmp555:
.Lfunc_end29:
	.size	prvListTasksWithinSingleList, .Lfunc_end29-prvListTasksWithinSingleList
	.cfi_endproc
                                        # -- End function
	.section	.text.vTaskPlaceOnEventList,"ax",@progbits
	.globl	vTaskPlaceOnEventList           # -- Begin function vTaskPlaceOnEventList
	.p2align	2
	.type	vTaskPlaceOnEventList,@function
vTaskPlaceOnEventList:                  # @vTaskPlaceOnEventList
.Lfunc_begin30:
	.loc	2 2828 0 is_stmt 1              # C:/Vega/rv32m1_sdk_riscv/rtos/freertos_9.0.0/Source/tasks.c:2828:0
	.cfi_startproc
# %bb.0:                                # %entry
	addi	sp, sp, -16
	.cfi_def_cfa_offset 16
	sw	ra, 12(sp)
	sw	s0, 8(sp)
	.cfi_offset ra, -4
	.cfi_offset s0, -8
	addi	s0, sp, 16
	.cfi_def_cfa s0, 0
	sw	a0, -12(s0)
	sw	a1, -16(s0)
.Ltmp556:
	.loc	2 2829 7 prologue_end           # C:/Vega/rv32m1_sdk_riscv/rtos/freertos_9.0.0/Source/tasks.c:2829:7
	lw	a0, -12(s0)
	mv	a1, zero
.Ltmp557:
	.loc	2 2829 5 is_stmt 0              # C:/Vega/rv32m1_sdk_riscv/rtos/freertos_9.0.0/Source/tasks.c:2829:5
	bne	a0, a1, .LBB30_3
	j	.LBB30_1
.LBB30_1:                               # %if.then
.Ltmp558:
	.loc	2 2829 27                       # C:/Vega/rv32m1_sdk_riscv/rtos/freertos_9.0.0/Source/tasks.c:2829:27
	call	vPortSetInterruptMask
	.loc	2 2829 52                       # C:/Vega/rv32m1_sdk_riscv/rtos/freertos_9.0.0/Source/tasks.c:2829:52
	j	.LBB30_2
.LBB30_2:                               # %for.cond
                                        # =>This Inner Loop Header: Depth=1
.Ltmp559:
	.loc	2 2829 52                       # C:/Vega/rv32m1_sdk_riscv/rtos/freertos_9.0.0/Source/tasks.c:2829:52
	j	.LBB30_2
.Ltmp560:
.LBB30_3:                               # %if.end
	.loc	2 2838 15 is_stmt 1             # C:/Vega/rv32m1_sdk_riscv/rtos/freertos_9.0.0/Source/tasks.c:2838:15
	lw	a0, -12(s0)
	.loc	2 2838 31 is_stmt 0             # C:/Vega/rv32m1_sdk_riscv/rtos/freertos_9.0.0/Source/tasks.c:2838:31
	lui	a1, %hi(pxCurrentTCB)
	lw	a1, %lo(pxCurrentTCB)(a1)
	.loc	2 2838 45                       # C:/Vega/rv32m1_sdk_riscv/rtos/freertos_9.0.0/Source/tasks.c:2838:45
	addi	a1, a1, 24
	.loc	2 2838 2                        # C:/Vega/rv32m1_sdk_riscv/rtos/freertos_9.0.0/Source/tasks.c:2838:2
	call	vListInsert
	.loc	2 2840 34 is_stmt 1             # C:/Vega/rv32m1_sdk_riscv/rtos/freertos_9.0.0/Source/tasks.c:2840:34
	lw	a0, -16(s0)
	addi	a1, zero, 1
	.loc	2 2840 2 is_stmt 0              # C:/Vega/rv32m1_sdk_riscv/rtos/freertos_9.0.0/Source/tasks.c:2840:2
	call	prvAddCurrentTaskToDelayedList
	.loc	2 2841 1 is_stmt 1              # C:/Vega/rv32m1_sdk_riscv/rtos/freertos_9.0.0/Source/tasks.c:2841:1
	lw	s0, 8(sp)
	lw	ra, 12(sp)
	addi	sp, sp, 16
	ret
.Ltmp561:
.Lfunc_end30:
	.size	vTaskPlaceOnEventList, .Lfunc_end30-vTaskPlaceOnEventList
	.cfi_endproc
                                        # -- End function
	.section	.text.vTaskPlaceOnUnorderedEventList,"ax",@progbits
	.globl	vTaskPlaceOnUnorderedEventList  # -- Begin function vTaskPlaceOnUnorderedEventList
	.p2align	2
	.type	vTaskPlaceOnUnorderedEventList,@function
vTaskPlaceOnUnorderedEventList:         # @vTaskPlaceOnUnorderedEventList
.Lfunc_begin31:
	.loc	2 2845 0                        # C:/Vega/rv32m1_sdk_riscv/rtos/freertos_9.0.0/Source/tasks.c:2845:0
	.cfi_startproc
# %bb.0:                                # %entry
	addi	sp, sp, -32
	.cfi_def_cfa_offset 32
	sw	ra, 28(sp)
	sw	s0, 24(sp)
	.cfi_offset ra, -4
	.cfi_offset s0, -8
	addi	s0, sp, 32
	.cfi_def_cfa s0, 0
	sw	a0, -12(s0)
	sw	a1, -16(s0)
	sw	a2, -20(s0)
.Ltmp562:
	.loc	2 2846 7 prologue_end           # C:/Vega/rv32m1_sdk_riscv/rtos/freertos_9.0.0/Source/tasks.c:2846:7
	lw	a0, -12(s0)
	mv	a1, zero
.Ltmp563:
	.loc	2 2846 5 is_stmt 0              # C:/Vega/rv32m1_sdk_riscv/rtos/freertos_9.0.0/Source/tasks.c:2846:5
	bne	a0, a1, .LBB31_3
	j	.LBB31_1
.LBB31_1:                               # %if.then
.Ltmp564:
	.loc	2 2846 27                       # C:/Vega/rv32m1_sdk_riscv/rtos/freertos_9.0.0/Source/tasks.c:2846:27
	call	vPortSetInterruptMask
	.loc	2 2846 52                       # C:/Vega/rv32m1_sdk_riscv/rtos/freertos_9.0.0/Source/tasks.c:2846:52
	j	.LBB31_2
.LBB31_2:                               # %for.cond
                                        # =>This Inner Loop Header: Depth=1
.Ltmp565:
	.loc	2 2846 52                       # C:/Vega/rv32m1_sdk_riscv/rtos/freertos_9.0.0/Source/tasks.c:2846:52
	j	.LBB31_2
.Ltmp566:
.LBB31_3:                               # %if.end
	.loc	2 2850 7 is_stmt 1              # C:/Vega/rv32m1_sdk_riscv/rtos/freertos_9.0.0/Source/tasks.c:2850:7
	lui	a0, %hi(uxSchedulerSuspended)
	lw	a0, %lo(uxSchedulerSuspended)(a0)
	mv	a1, zero
.Ltmp567:
	.loc	2 2850 5 is_stmt 0              # C:/Vega/rv32m1_sdk_riscv/rtos/freertos_9.0.0/Source/tasks.c:2850:5
	bne	a0, a1, .LBB31_6
	j	.LBB31_4
.LBB31_4:                               # %if.then4
.Ltmp568:
	.loc	2 2850 41                       # C:/Vega/rv32m1_sdk_riscv/rtos/freertos_9.0.0/Source/tasks.c:2850:41
	call	vPortSetInterruptMask
	.loc	2 2850 66                       # C:/Vega/rv32m1_sdk_riscv/rtos/freertos_9.0.0/Source/tasks.c:2850:66
	j	.LBB31_5
.LBB31_5:                               # %for.cond6
                                        # =>This Inner Loop Header: Depth=1
.Ltmp569:
	.loc	2 2850 66                       # C:/Vega/rv32m1_sdk_riscv/rtos/freertos_9.0.0/Source/tasks.c:2850:66
	j	.LBB31_5
.Ltmp570:
.LBB31_6:                               # %if.end7
	.loc	2 2855 58 is_stmt 1             # C:/Vega/rv32m1_sdk_riscv/rtos/freertos_9.0.0/Source/tasks.c:2855:58
	lw	a0, -16(s0)
	lui	a1, 524288
	.loc	2 2855 69 is_stmt 0             # C:/Vega/rv32m1_sdk_riscv/rtos/freertos_9.0.0/Source/tasks.c:2855:69
	or	a0, a0, a1
	.loc	2 2855 9                        # C:/Vega/rv32m1_sdk_riscv/rtos/freertos_9.0.0/Source/tasks.c:2855:9
	lui	a1, %hi(pxCurrentTCB)
	lw	a2, %lo(pxCurrentTCB)(a1)
	.loc	2 2855 54                       # C:/Vega/rv32m1_sdk_riscv/rtos/freertos_9.0.0/Source/tasks.c:2855:54
	sw	a0, 24(a2)
	.loc	2 2862 18 is_stmt 1             # C:/Vega/rv32m1_sdk_riscv/rtos/freertos_9.0.0/Source/tasks.c:2862:18
	lw	a0, -12(s0)
	.loc	2 2862 34 is_stmt 0             # C:/Vega/rv32m1_sdk_riscv/rtos/freertos_9.0.0/Source/tasks.c:2862:34
	lw	a1, %lo(pxCurrentTCB)(a1)
	.loc	2 2862 48                       # C:/Vega/rv32m1_sdk_riscv/rtos/freertos_9.0.0/Source/tasks.c:2862:48
	addi	a1, a1, 24
	.loc	2 2862 2                        # C:/Vega/rv32m1_sdk_riscv/rtos/freertos_9.0.0/Source/tasks.c:2862:2
	call	vListInsertEnd
	.loc	2 2864 34 is_stmt 1             # C:/Vega/rv32m1_sdk_riscv/rtos/freertos_9.0.0/Source/tasks.c:2864:34
	lw	a0, -20(s0)
	addi	a1, zero, 1
	.loc	2 2864 2 is_stmt 0              # C:/Vega/rv32m1_sdk_riscv/rtos/freertos_9.0.0/Source/tasks.c:2864:2
	call	prvAddCurrentTaskToDelayedList
	.loc	2 2865 1 is_stmt 1              # C:/Vega/rv32m1_sdk_riscv/rtos/freertos_9.0.0/Source/tasks.c:2865:1
	lw	s0, 24(sp)
	lw	ra, 28(sp)
	addi	sp, sp, 32
	ret
.Ltmp571:
.Lfunc_end31:
	.size	vTaskPlaceOnUnorderedEventList, .Lfunc_end31-vTaskPlaceOnUnorderedEventList
	.cfi_endproc
                                        # -- End function
	.section	.text.vTaskPlaceOnEventListRestricted,"ax",@progbits
	.globl	vTaskPlaceOnEventListRestricted # -- Begin function vTaskPlaceOnEventListRestricted
	.p2align	2
	.type	vTaskPlaceOnEventListRestricted,@function
vTaskPlaceOnEventListRestricted:        # @vTaskPlaceOnEventListRestricted
.Lfunc_begin32:
	.loc	2 2871 0                        # C:/Vega/rv32m1_sdk_riscv/rtos/freertos_9.0.0/Source/tasks.c:2871:0
	.cfi_startproc
# %bb.0:                                # %entry
	addi	sp, sp, -32
	.cfi_def_cfa_offset 32
	sw	ra, 28(sp)
	sw	s0, 24(sp)
	.cfi_offset ra, -4
	.cfi_offset s0, -8
	addi	s0, sp, 32
	.cfi_def_cfa s0, 0
	sw	a0, -12(s0)
	sw	a1, -16(s0)
	sw	a2, -20(s0)
.Ltmp572:
	.loc	2 2872 8 prologue_end           # C:/Vega/rv32m1_sdk_riscv/rtos/freertos_9.0.0/Source/tasks.c:2872:8
	lw	a0, -12(s0)
	mv	a1, zero
.Ltmp573:
	.loc	2 2872 6 is_stmt 0              # C:/Vega/rv32m1_sdk_riscv/rtos/freertos_9.0.0/Source/tasks.c:2872:6
	bne	a0, a1, .LBB32_3
	j	.LBB32_1
.LBB32_1:                               # %if.then
.Ltmp574:
	.loc	2 2872 28                       # C:/Vega/rv32m1_sdk_riscv/rtos/freertos_9.0.0/Source/tasks.c:2872:28
	call	vPortSetInterruptMask
	.loc	2 2872 53                       # C:/Vega/rv32m1_sdk_riscv/rtos/freertos_9.0.0/Source/tasks.c:2872:53
	j	.LBB32_2
.LBB32_2:                               # %for.cond
                                        # =>This Inner Loop Header: Depth=1
.Ltmp575:
	.loc	2 2872 53                       # C:/Vega/rv32m1_sdk_riscv/rtos/freertos_9.0.0/Source/tasks.c:2872:53
	j	.LBB32_2
.Ltmp576:
.LBB32_3:                               # %if.end
	.loc	2 2884 19 is_stmt 1             # C:/Vega/rv32m1_sdk_riscv/rtos/freertos_9.0.0/Source/tasks.c:2884:19
	lw	a0, -12(s0)
	.loc	2 2884 35 is_stmt 0             # C:/Vega/rv32m1_sdk_riscv/rtos/freertos_9.0.0/Source/tasks.c:2884:35
	lui	a1, %hi(pxCurrentTCB)
	lw	a1, %lo(pxCurrentTCB)(a1)
	.loc	2 2884 49                       # C:/Vega/rv32m1_sdk_riscv/rtos/freertos_9.0.0/Source/tasks.c:2884:49
	addi	a1, a1, 24
	.loc	2 2884 3                        # C:/Vega/rv32m1_sdk_riscv/rtos/freertos_9.0.0/Source/tasks.c:2884:3
	call	vListInsertEnd
.Ltmp577:
	.loc	2 2889 7 is_stmt 1              # C:/Vega/rv32m1_sdk_riscv/rtos/freertos_9.0.0/Source/tasks.c:2889:7
	lw	a0, -20(s0)
	mv	a1, zero
.Ltmp578:
	.loc	2 2889 7 is_stmt 0              # C:/Vega/rv32m1_sdk_riscv/rtos/freertos_9.0.0/Source/tasks.c:2889:7
	beq	a0, a1, .LBB32_5
	j	.LBB32_4
.LBB32_4:                               # %if.then2
	.loc	2 0 7                           # C:/Vega/rv32m1_sdk_riscv/rtos/freertos_9.0.0/Source/tasks.c:0:7
	addi	a0, zero, -1
.Ltmp579:
	.loc	2 2891 17 is_stmt 1             # C:/Vega/rv32m1_sdk_riscv/rtos/freertos_9.0.0/Source/tasks.c:2891:17
	sw	a0, -16(s0)
	.loc	2 2892 3                        # C:/Vega/rv32m1_sdk_riscv/rtos/freertos_9.0.0/Source/tasks.c:2892:3
	j	.LBB32_5
.Ltmp580:
.LBB32_5:                               # %if.end3
	.loc	2 2895 35                       # C:/Vega/rv32m1_sdk_riscv/rtos/freertos_9.0.0/Source/tasks.c:2895:35
	lw	a0, -16(s0)
	.loc	2 2895 49 is_stmt 0             # C:/Vega/rv32m1_sdk_riscv/rtos/freertos_9.0.0/Source/tasks.c:2895:49
	lw	a1, -20(s0)
	.loc	2 2895 3                        # C:/Vega/rv32m1_sdk_riscv/rtos/freertos_9.0.0/Source/tasks.c:2895:3
	call	prvAddCurrentTaskToDelayedList
	.loc	2 2896 2 is_stmt 1              # C:/Vega/rv32m1_sdk_riscv/rtos/freertos_9.0.0/Source/tasks.c:2896:2
	lw	s0, 24(sp)
	lw	ra, 28(sp)
	addi	sp, sp, 32
	ret
.Ltmp581:
.Lfunc_end32:
	.size	vTaskPlaceOnEventListRestricted, .Lfunc_end32-vTaskPlaceOnEventListRestricted
	.cfi_endproc
                                        # -- End function
	.section	.text.xTaskRemoveFromEventList,"ax",@progbits
	.globl	xTaskRemoveFromEventList        # -- Begin function xTaskRemoveFromEventList
	.p2align	2
	.type	xTaskRemoveFromEventList,@function
xTaskRemoveFromEventList:               # @xTaskRemoveFromEventList
.Lfunc_begin33:
	.loc	2 2902 0                        # C:/Vega/rv32m1_sdk_riscv/rtos/freertos_9.0.0/Source/tasks.c:2902:0
	.cfi_startproc
# %bb.0:                                # %entry
	addi	sp, sp, -32
	.cfi_def_cfa_offset 32
	sw	ra, 28(sp)
	sw	s0, 24(sp)
	.cfi_offset ra, -4
	.cfi_offset s0, -8
	addi	s0, sp, 32
	.cfi_def_cfa s0, 0
	sw	a0, -12(s0)
.Ltmp582:
	.loc	2 2919 39 prologue_end          # C:/Vega/rv32m1_sdk_riscv/rtos/freertos_9.0.0/Source/tasks.c:2919:39
	lw	a0, -12(s0)
	.loc	2 2919 67 is_stmt 0             # C:/Vega/rv32m1_sdk_riscv/rtos/freertos_9.0.0/Source/tasks.c:2919:67
	lw	a0, 12(a0)
	.loc	2 2919 75                       # C:/Vega/rv32m1_sdk_riscv/rtos/freertos_9.0.0/Source/tasks.c:2919:75
	lw	a0, 12(a0)
	.loc	2 2919 17                       # C:/Vega/rv32m1_sdk_riscv/rtos/freertos_9.0.0/Source/tasks.c:2919:17
	sw	a0, -16(s0)
.Ltmp583:
	.loc	2 2920 7 is_stmt 1              # C:/Vega/rv32m1_sdk_riscv/rtos/freertos_9.0.0/Source/tasks.c:2920:7
	lw	a0, -16(s0)
	mv	a1, zero
.Ltmp584:
	.loc	2 2920 5 is_stmt 0              # C:/Vega/rv32m1_sdk_riscv/rtos/freertos_9.0.0/Source/tasks.c:2920:5
	bne	a0, a1, .LBB33_3
	j	.LBB33_1
.LBB33_1:                               # %if.then
.Ltmp585:
	.loc	2 2920 30                       # C:/Vega/rv32m1_sdk_riscv/rtos/freertos_9.0.0/Source/tasks.c:2920:30
	call	vPortSetInterruptMask
	.loc	2 2920 55                       # C:/Vega/rv32m1_sdk_riscv/rtos/freertos_9.0.0/Source/tasks.c:2920:55
	j	.LBB33_2
.LBB33_2:                               # %for.cond
                                        # =>This Inner Loop Header: Depth=1
.Ltmp586:
	.loc	2 2920 55                       # C:/Vega/rv32m1_sdk_riscv/rtos/freertos_9.0.0/Source/tasks.c:2920:55
	j	.LBB33_2
.Ltmp587:
.LBB33_3:                               # %if.end
	.loc	2 2921 28 is_stmt 1             # C:/Vega/rv32m1_sdk_riscv/rtos/freertos_9.0.0/Source/tasks.c:2921:28
	lw	a0, -16(s0)
	.loc	2 2921 44 is_stmt 0             # C:/Vega/rv32m1_sdk_riscv/rtos/freertos_9.0.0/Source/tasks.c:2921:44
	addi	a0, a0, 24
	.loc	2 2921 11                       # C:/Vega/rv32m1_sdk_riscv/rtos/freertos_9.0.0/Source/tasks.c:2921:11
	call	uxListRemove
.Ltmp588:
	.loc	2 2923 6 is_stmt 1              # C:/Vega/rv32m1_sdk_riscv/rtos/freertos_9.0.0/Source/tasks.c:2923:6
	lui	a1, %hi(uxSchedulerSuspended)
	lw	a1, %lo(uxSchedulerSuspended)(a1)
	mv	a2, zero
.Ltmp589:
	.loc	2 2923 6 is_stmt 0              # C:/Vega/rv32m1_sdk_riscv/rtos/freertos_9.0.0/Source/tasks.c:2923:6
	bne	a1, a2, .LBB33_7
	j	.LBB33_4
.LBB33_4:                               # %if.then3
.Ltmp590:
	.loc	2 2925 29 is_stmt 1             # C:/Vega/rv32m1_sdk_riscv/rtos/freertos_9.0.0/Source/tasks.c:2925:29
	lw	a0, -16(s0)
	.loc	2 2925 45 is_stmt 0             # C:/Vega/rv32m1_sdk_riscv/rtos/freertos_9.0.0/Source/tasks.c:2925:45
	addi	a0, a0, 4
	.loc	2 2925 12                       # C:/Vega/rv32m1_sdk_riscv/rtos/freertos_9.0.0/Source/tasks.c:2925:12
	call	uxListRemove
.Ltmp591:
	.loc	2 2926 15 is_stmt 1             # C:/Vega/rv32m1_sdk_riscv/rtos/freertos_9.0.0/Source/tasks.c:2926:15
	lw	a1, -16(s0)
	.loc	2 2926 33 is_stmt 0             # C:/Vega/rv32m1_sdk_riscv/rtos/freertos_9.0.0/Source/tasks.c:2926:33
	lw	a1, 44(a1)
	.loc	2 2926 48                       # C:/Vega/rv32m1_sdk_riscv/rtos/freertos_9.0.0/Source/tasks.c:2926:48
	lui	a2, %hi(uxTopReadyPriority)
	lw	a2, %lo(uxTopReadyPriority)(a2)
.Ltmp592:
	.loc	2 2926 11                       # C:/Vega/rv32m1_sdk_riscv/rtos/freertos_9.0.0/Source/tasks.c:2926:11
	bgeu	a2, a1, .LBB33_6
	j	.LBB33_5
.LBB33_5:                               # %if.then6
.Ltmp593:
	.loc	2 2926 96                       # C:/Vega/rv32m1_sdk_riscv/rtos/freertos_9.0.0/Source/tasks.c:2926:96
	lw	a0, -16(s0)
	.loc	2 2926 114                      # C:/Vega/rv32m1_sdk_riscv/rtos/freertos_9.0.0/Source/tasks.c:2926:114
	lw	a0, 44(a0)
	.loc	2 2926 90                       # C:/Vega/rv32m1_sdk_riscv/rtos/freertos_9.0.0/Source/tasks.c:2926:90
	lui	a1, %hi(uxTopReadyPriority)
	sw	a0, %lo(uxTopReadyPriority)(a1)
	.loc	2 2926 128                      # C:/Vega/rv32m1_sdk_riscv/rtos/freertos_9.0.0/Source/tasks.c:2926:128
	j	.LBB33_6
.Ltmp594:
.LBB33_6:                               # %if.end8
	.loc	2 2926 173                      # C:/Vega/rv32m1_sdk_riscv/rtos/freertos_9.0.0/Source/tasks.c:2926:173
	lw	a0, -16(s0)
	.loc	2 2926 191                      # C:/Vega/rv32m1_sdk_riscv/rtos/freertos_9.0.0/Source/tasks.c:2926:191
	lw	a1, 44(a0)
	addi	a2, zero, 20
	.loc	2 2926 152                      # C:/Vega/rv32m1_sdk_riscv/rtos/freertos_9.0.0/Source/tasks.c:2926:152
	sw	a0, -24(s0)
	mv	a0, a1
	mv	a1, a2
	call	__mulsi3
	lui	a1, %hi(pxReadyTasksLists)
	addi	a1, a1, %lo(pxReadyTasksLists)
	add	a0, a0, a1
	.loc	2 2926 230                      # C:/Vega/rv32m1_sdk_riscv/rtos/freertos_9.0.0/Source/tasks.c:2926:230
	lw	a1, -24(s0)
	addi	a1, a1, 4
	.loc	2 2926 133                      # C:/Vega/rv32m1_sdk_riscv/rtos/freertos_9.0.0/Source/tasks.c:2926:133
	call	vListInsertEnd
	.loc	2 2927 2 is_stmt 1              # C:/Vega/rv32m1_sdk_riscv/rtos/freertos_9.0.0/Source/tasks.c:2927:2
	j	.LBB33_8
.Ltmp595:
.LBB33_7:                               # %if.else
	.loc	2 2932 46                       # C:/Vega/rv32m1_sdk_riscv/rtos/freertos_9.0.0/Source/tasks.c:2932:46
	lw	a0, -16(s0)
	.loc	2 2932 62 is_stmt 0             # C:/Vega/rv32m1_sdk_riscv/rtos/freertos_9.0.0/Source/tasks.c:2932:62
	addi	a1, a0, 24
	.loc	2 2932 3                        # C:/Vega/rv32m1_sdk_riscv/rtos/freertos_9.0.0/Source/tasks.c:2932:3
	lui	a0, %hi(xPendingReadyList)
	addi	a0, a0, %lo(xPendingReadyList)
	call	vListInsertEnd
	j	.LBB33_8
.Ltmp596:
.LBB33_8:                               # %if.end12
	.loc	2 2935 6 is_stmt 1              # C:/Vega/rv32m1_sdk_riscv/rtos/freertos_9.0.0/Source/tasks.c:2935:6
	lw	a0, -16(s0)
	.loc	2 2935 22 is_stmt 0             # C:/Vega/rv32m1_sdk_riscv/rtos/freertos_9.0.0/Source/tasks.c:2935:22
	lw	a0, 44(a0)
	.loc	2 2935 35                       # C:/Vega/rv32m1_sdk_riscv/rtos/freertos_9.0.0/Source/tasks.c:2935:35
	lui	a1, %hi(pxCurrentTCB)
	lw	a1, %lo(pxCurrentTCB)(a1)
	.loc	2 2935 49                       # C:/Vega/rv32m1_sdk_riscv/rtos/freertos_9.0.0/Source/tasks.c:2935:49
	lw	a1, 44(a1)
.Ltmp597:
	.loc	2 2935 6                        # C:/Vega/rv32m1_sdk_riscv/rtos/freertos_9.0.0/Source/tasks.c:2935:6
	bgeu	a1, a0, .LBB33_10
	j	.LBB33_9
.LBB33_9:                               # %if.then16
	.loc	2 0 6                           # C:/Vega/rv32m1_sdk_riscv/rtos/freertos_9.0.0/Source/tasks.c:0:6
	addi	a0, zero, 1
.Ltmp598:
	.loc	2 2940 11 is_stmt 1             # C:/Vega/rv32m1_sdk_riscv/rtos/freertos_9.0.0/Source/tasks.c:2940:11
	sw	a0, -20(s0)
	.loc	2 2944 17                       # C:/Vega/rv32m1_sdk_riscv/rtos/freertos_9.0.0/Source/tasks.c:2944:17
	lui	a1, %hi(xYieldPending)
	sw	a0, %lo(xYieldPending)(a1)
	.loc	2 2945 2                        # C:/Vega/rv32m1_sdk_riscv/rtos/freertos_9.0.0/Source/tasks.c:2945:2
	j	.LBB33_11
.Ltmp599:
.LBB33_10:                              # %if.else17
	.loc	2 0 2 is_stmt 0                 # C:/Vega/rv32m1_sdk_riscv/rtos/freertos_9.0.0/Source/tasks.c:0:2
	mv	a0, zero
.Ltmp600:
	.loc	2 2948 11 is_stmt 1             # C:/Vega/rv32m1_sdk_riscv/rtos/freertos_9.0.0/Source/tasks.c:2948:11
	sw	a0, -20(s0)
	j	.LBB33_11
.Ltmp601:
.LBB33_11:                              # %if.end18
	.loc	2 2965 9                        # C:/Vega/rv32m1_sdk_riscv/rtos/freertos_9.0.0/Source/tasks.c:2965:9
	lw	a0, -20(s0)
	.loc	2 2965 2 is_stmt 0              # C:/Vega/rv32m1_sdk_riscv/rtos/freertos_9.0.0/Source/tasks.c:2965:2
	lw	s0, 24(sp)
	lw	ra, 28(sp)
	addi	sp, sp, 32
	ret
.Ltmp602:
.Lfunc_end33:
	.size	xTaskRemoveFromEventList, .Lfunc_end33-xTaskRemoveFromEventList
	.cfi_endproc
                                        # -- End function
	.section	.text.xTaskRemoveFromUnorderedEventList,"ax",@progbits
	.globl	xTaskRemoveFromUnorderedEventList # -- Begin function xTaskRemoveFromUnorderedEventList
	.p2align	2
	.type	xTaskRemoveFromUnorderedEventList,@function
xTaskRemoveFromUnorderedEventList:      # @xTaskRemoveFromUnorderedEventList
.Lfunc_begin34:
	.loc	2 2970 0 is_stmt 1              # C:/Vega/rv32m1_sdk_riscv/rtos/freertos_9.0.0/Source/tasks.c:2970:0
	.cfi_startproc
# %bb.0:                                # %entry
	addi	sp, sp, -32
	.cfi_def_cfa_offset 32
	sw	ra, 28(sp)
	sw	s0, 24(sp)
	.cfi_offset ra, -4
	.cfi_offset s0, -8
	addi	s0, sp, 32
	.cfi_def_cfa s0, 0
	sw	a0, -12(s0)
	sw	a1, -16(s0)
.Ltmp603:
	.loc	2 2976 7 prologue_end           # C:/Vega/rv32m1_sdk_riscv/rtos/freertos_9.0.0/Source/tasks.c:2976:7
	lui	a0, %hi(uxSchedulerSuspended)
	lw	a0, %lo(uxSchedulerSuspended)(a0)
	mv	a1, zero
.Ltmp604:
	.loc	2 2976 5 is_stmt 0              # C:/Vega/rv32m1_sdk_riscv/rtos/freertos_9.0.0/Source/tasks.c:2976:5
	bne	a0, a1, .LBB34_3
	j	.LBB34_1
.LBB34_1:                               # %if.then
.Ltmp605:
	.loc	2 2976 60                       # C:/Vega/rv32m1_sdk_riscv/rtos/freertos_9.0.0/Source/tasks.c:2976:60
	call	vPortSetInterruptMask
	.loc	2 2976 85                       # C:/Vega/rv32m1_sdk_riscv/rtos/freertos_9.0.0/Source/tasks.c:2976:85
	j	.LBB34_2
.LBB34_2:                               # %for.cond
                                        # =>This Inner Loop Header: Depth=1
.Ltmp606:
	.loc	2 2976 85                       # C:/Vega/rv32m1_sdk_riscv/rtos/freertos_9.0.0/Source/tasks.c:2976:85
	j	.LBB34_2
.Ltmp607:
.LBB34_3:                               # %if.end
	.loc	2 2979 40 is_stmt 1             # C:/Vega/rv32m1_sdk_riscv/rtos/freertos_9.0.0/Source/tasks.c:2979:40
	lw	a0, -16(s0)
	lui	a1, 524288
	.loc	2 2979 51 is_stmt 0             # C:/Vega/rv32m1_sdk_riscv/rtos/freertos_9.0.0/Source/tasks.c:2979:51
	or	a0, a0, a1
	.loc	2 2979 6                        # C:/Vega/rv32m1_sdk_riscv/rtos/freertos_9.0.0/Source/tasks.c:2979:6
	lw	a1, -12(s0)
	.loc	2 2979 36                       # C:/Vega/rv32m1_sdk_riscv/rtos/freertos_9.0.0/Source/tasks.c:2979:36
	sw	a0, 0(a1)
	.loc	2 2983 35 is_stmt 1             # C:/Vega/rv32m1_sdk_riscv/rtos/freertos_9.0.0/Source/tasks.c:2983:35
	lw	a0, -12(s0)
	.loc	2 2983 54 is_stmt 0             # C:/Vega/rv32m1_sdk_riscv/rtos/freertos_9.0.0/Source/tasks.c:2983:54
	lw	a0, 12(a0)
	.loc	2 2983 17                       # C:/Vega/rv32m1_sdk_riscv/rtos/freertos_9.0.0/Source/tasks.c:2983:17
	sw	a0, -20(s0)
.Ltmp608:
	.loc	2 2984 7 is_stmt 1              # C:/Vega/rv32m1_sdk_riscv/rtos/freertos_9.0.0/Source/tasks.c:2984:7
	lw	a0, -20(s0)
	mv	a1, zero
.Ltmp609:
	.loc	2 2984 5 is_stmt 0              # C:/Vega/rv32m1_sdk_riscv/rtos/freertos_9.0.0/Source/tasks.c:2984:5
	bne	a0, a1, .LBB34_6
	j	.LBB34_4
.LBB34_4:                               # %if.then6
.Ltmp610:
	.loc	2 2984 30                       # C:/Vega/rv32m1_sdk_riscv/rtos/freertos_9.0.0/Source/tasks.c:2984:30
	call	vPortSetInterruptMask
	.loc	2 2984 55                       # C:/Vega/rv32m1_sdk_riscv/rtos/freertos_9.0.0/Source/tasks.c:2984:55
	j	.LBB34_5
.LBB34_5:                               # %for.cond8
                                        # =>This Inner Loop Header: Depth=1
.Ltmp611:
	.loc	2 2984 55                       # C:/Vega/rv32m1_sdk_riscv/rtos/freertos_9.0.0/Source/tasks.c:2984:55
	j	.LBB34_5
.Ltmp612:
.LBB34_6:                               # %if.end9
	.loc	2 2985 25 is_stmt 1             # C:/Vega/rv32m1_sdk_riscv/rtos/freertos_9.0.0/Source/tasks.c:2985:25
	lw	a0, -12(s0)
	.loc	2 2985 11 is_stmt 0             # C:/Vega/rv32m1_sdk_riscv/rtos/freertos_9.0.0/Source/tasks.c:2985:11
	call	uxListRemove
	.loc	2 2990 28 is_stmt 1             # C:/Vega/rv32m1_sdk_riscv/rtos/freertos_9.0.0/Source/tasks.c:2990:28
	lw	a1, -20(s0)
	.loc	2 2990 44 is_stmt 0             # C:/Vega/rv32m1_sdk_riscv/rtos/freertos_9.0.0/Source/tasks.c:2990:44
	addi	a1, a1, 4
	.loc	2 2990 11                       # C:/Vega/rv32m1_sdk_riscv/rtos/freertos_9.0.0/Source/tasks.c:2990:11
	sw	a0, -28(s0)
	mv	a0, a1
	call	uxListRemove
.Ltmp613:
	.loc	2 2991 14 is_stmt 1             # C:/Vega/rv32m1_sdk_riscv/rtos/freertos_9.0.0/Source/tasks.c:2991:14
	lw	a1, -20(s0)
	.loc	2 2991 32 is_stmt 0             # C:/Vega/rv32m1_sdk_riscv/rtos/freertos_9.0.0/Source/tasks.c:2991:32
	lw	a1, 44(a1)
	.loc	2 2991 47                       # C:/Vega/rv32m1_sdk_riscv/rtos/freertos_9.0.0/Source/tasks.c:2991:47
	lui	a2, %hi(uxTopReadyPriority)
	lw	a2, %lo(uxTopReadyPriority)(a2)
.Ltmp614:
	.loc	2 2991 10                       # C:/Vega/rv32m1_sdk_riscv/rtos/freertos_9.0.0/Source/tasks.c:2991:10
	bgeu	a2, a1, .LBB34_8
	j	.LBB34_7
.LBB34_7:                               # %if.then14
.Ltmp615:
	.loc	2 2991 95                       # C:/Vega/rv32m1_sdk_riscv/rtos/freertos_9.0.0/Source/tasks.c:2991:95
	lw	a0, -20(s0)
	.loc	2 2991 113                      # C:/Vega/rv32m1_sdk_riscv/rtos/freertos_9.0.0/Source/tasks.c:2991:113
	lw	a0, 44(a0)
	.loc	2 2991 89                       # C:/Vega/rv32m1_sdk_riscv/rtos/freertos_9.0.0/Source/tasks.c:2991:89
	lui	a1, %hi(uxTopReadyPriority)
	sw	a0, %lo(uxTopReadyPriority)(a1)
	.loc	2 2991 127                      # C:/Vega/rv32m1_sdk_riscv/rtos/freertos_9.0.0/Source/tasks.c:2991:127
	j	.LBB34_8
.Ltmp616:
.LBB34_8:                               # %if.end16
	.loc	2 2991 172                      # C:/Vega/rv32m1_sdk_riscv/rtos/freertos_9.0.0/Source/tasks.c:2991:172
	lw	a0, -20(s0)
	.loc	2 2991 190                      # C:/Vega/rv32m1_sdk_riscv/rtos/freertos_9.0.0/Source/tasks.c:2991:190
	lw	a1, 44(a0)
	addi	a2, zero, 20
	.loc	2 2991 151                      # C:/Vega/rv32m1_sdk_riscv/rtos/freertos_9.0.0/Source/tasks.c:2991:151
	sw	a0, -32(s0)
	mv	a0, a1
	mv	a1, a2
	call	__mulsi3
	lui	a1, %hi(pxReadyTasksLists)
	addi	a1, a1, %lo(pxReadyTasksLists)
	add	a0, a0, a1
	.loc	2 2991 229                      # C:/Vega/rv32m1_sdk_riscv/rtos/freertos_9.0.0/Source/tasks.c:2991:229
	lw	a1, -32(s0)
	addi	a1, a1, 4
	.loc	2 2991 132                      # C:/Vega/rv32m1_sdk_riscv/rtos/freertos_9.0.0/Source/tasks.c:2991:132
	call	vListInsertEnd
.Ltmp617:
	.loc	2 2993 6 is_stmt 1              # C:/Vega/rv32m1_sdk_riscv/rtos/freertos_9.0.0/Source/tasks.c:2993:6
	lw	a0, -20(s0)
	.loc	2 2993 22 is_stmt 0             # C:/Vega/rv32m1_sdk_riscv/rtos/freertos_9.0.0/Source/tasks.c:2993:22
	lw	a0, 44(a0)
	.loc	2 2993 35                       # C:/Vega/rv32m1_sdk_riscv/rtos/freertos_9.0.0/Source/tasks.c:2993:35
	lui	a1, %hi(pxCurrentTCB)
	lw	a1, %lo(pxCurrentTCB)(a1)
	.loc	2 2993 49                       # C:/Vega/rv32m1_sdk_riscv/rtos/freertos_9.0.0/Source/tasks.c:2993:49
	lw	a1, 44(a1)
.Ltmp618:
	.loc	2 2993 6                        # C:/Vega/rv32m1_sdk_riscv/rtos/freertos_9.0.0/Source/tasks.c:2993:6
	bgeu	a1, a0, .LBB34_10
	j	.LBB34_9
.LBB34_9:                               # %if.then23
	.loc	2 0 6                           # C:/Vega/rv32m1_sdk_riscv/rtos/freertos_9.0.0/Source/tasks.c:0:6
	addi	a0, zero, 1
.Ltmp619:
	.loc	2 2999 11 is_stmt 1             # C:/Vega/rv32m1_sdk_riscv/rtos/freertos_9.0.0/Source/tasks.c:2999:11
	sw	a0, -24(s0)
	.loc	2 3003 17                       # C:/Vega/rv32m1_sdk_riscv/rtos/freertos_9.0.0/Source/tasks.c:3003:17
	lui	a1, %hi(xYieldPending)
	sw	a0, %lo(xYieldPending)(a1)
	.loc	2 3004 2                        # C:/Vega/rv32m1_sdk_riscv/rtos/freertos_9.0.0/Source/tasks.c:3004:2
	j	.LBB34_11
.Ltmp620:
.LBB34_10:                              # %if.else
	.loc	2 0 2 is_stmt 0                 # C:/Vega/rv32m1_sdk_riscv/rtos/freertos_9.0.0/Source/tasks.c:0:2
	mv	a0, zero
.Ltmp621:
	.loc	2 3007 11 is_stmt 1             # C:/Vega/rv32m1_sdk_riscv/rtos/freertos_9.0.0/Source/tasks.c:3007:11
	sw	a0, -24(s0)
	j	.LBB34_11
.Ltmp622:
.LBB34_11:                              # %if.end24
	.loc	2 3010 9                        # C:/Vega/rv32m1_sdk_riscv/rtos/freertos_9.0.0/Source/tasks.c:3010:9
	lw	a0, -24(s0)
	.loc	2 3010 2 is_stmt 0              # C:/Vega/rv32m1_sdk_riscv/rtos/freertos_9.0.0/Source/tasks.c:3010:2
	lw	s0, 24(sp)
	lw	ra, 28(sp)
	addi	sp, sp, 32
	ret
.Ltmp623:
.Lfunc_end34:
	.size	xTaskRemoveFromUnorderedEventList, .Lfunc_end34-xTaskRemoveFromUnorderedEventList
	.cfi_endproc
                                        # -- End function
	.section	.text.vTaskSetTimeOutState,"ax",@progbits
	.globl	vTaskSetTimeOutState            # -- Begin function vTaskSetTimeOutState
	.p2align	2
	.type	vTaskSetTimeOutState,@function
vTaskSetTimeOutState:                   # @vTaskSetTimeOutState
.Lfunc_begin35:
	.loc	2 3015 0 is_stmt 1              # C:/Vega/rv32m1_sdk_riscv/rtos/freertos_9.0.0/Source/tasks.c:3015:0
	.cfi_startproc
# %bb.0:                                # %entry
	addi	sp, sp, -16
	.cfi_def_cfa_offset 16
	sw	ra, 12(sp)
	sw	s0, 8(sp)
	.cfi_offset ra, -4
	.cfi_offset s0, -8
	addi	s0, sp, 16
	.cfi_def_cfa s0, 0
	sw	a0, -12(s0)
.Ltmp624:
	.loc	2 3016 7 prologue_end           # C:/Vega/rv32m1_sdk_riscv/rtos/freertos_9.0.0/Source/tasks.c:3016:7
	lw	a0, -12(s0)
	mv	a1, zero
.Ltmp625:
	.loc	2 3016 5 is_stmt 0              # C:/Vega/rv32m1_sdk_riscv/rtos/freertos_9.0.0/Source/tasks.c:3016:5
	bne	a0, a1, .LBB35_3
	j	.LBB35_1
.LBB35_1:                               # %if.then
.Ltmp626:
	.loc	2 3016 25                       # C:/Vega/rv32m1_sdk_riscv/rtos/freertos_9.0.0/Source/tasks.c:3016:25
	call	vPortSetInterruptMask
	.loc	2 3016 50                       # C:/Vega/rv32m1_sdk_riscv/rtos/freertos_9.0.0/Source/tasks.c:3016:50
	j	.LBB35_2
.LBB35_2:                               # %for.cond
                                        # =>This Inner Loop Header: Depth=1
.Ltmp627:
	.loc	2 3016 50                       # C:/Vega/rv32m1_sdk_riscv/rtos/freertos_9.0.0/Source/tasks.c:3016:50
	j	.LBB35_2
.Ltmp628:
.LBB35_3:                               # %if.end
	.loc	2 3017 30 is_stmt 1             # C:/Vega/rv32m1_sdk_riscv/rtos/freertos_9.0.0/Source/tasks.c:3017:30
	lui	a0, %hi(xNumOfOverflows)
	lw	a0, %lo(xNumOfOverflows)(a0)
	.loc	2 3017 2 is_stmt 0              # C:/Vega/rv32m1_sdk_riscv/rtos/freertos_9.0.0/Source/tasks.c:3017:2
	lw	a1, -12(s0)
	.loc	2 3017 28                       # C:/Vega/rv32m1_sdk_riscv/rtos/freertos_9.0.0/Source/tasks.c:3017:28
	sw	a0, 0(a1)
	.loc	2 3018 31 is_stmt 1             # C:/Vega/rv32m1_sdk_riscv/rtos/freertos_9.0.0/Source/tasks.c:3018:31
	lui	a0, %hi(xTickCount)
	lw	a0, %lo(xTickCount)(a0)
	.loc	2 3018 2 is_stmt 0              # C:/Vega/rv32m1_sdk_riscv/rtos/freertos_9.0.0/Source/tasks.c:3018:2
	lw	a1, -12(s0)
	.loc	2 3018 29                       # C:/Vega/rv32m1_sdk_riscv/rtos/freertos_9.0.0/Source/tasks.c:3018:29
	sw	a0, 4(a1)
	.loc	2 3019 1 is_stmt 1              # C:/Vega/rv32m1_sdk_riscv/rtos/freertos_9.0.0/Source/tasks.c:3019:1
	lw	s0, 8(sp)
	lw	ra, 12(sp)
	addi	sp, sp, 16
	ret
.Ltmp629:
.Lfunc_end35:
	.size	vTaskSetTimeOutState, .Lfunc_end35-vTaskSetTimeOutState
	.cfi_endproc
                                        # -- End function
	.section	.text.xTaskCheckForTimeOut,"ax",@progbits
	.globl	xTaskCheckForTimeOut            # -- Begin function xTaskCheckForTimeOut
	.p2align	2
	.type	xTaskCheckForTimeOut,@function
xTaskCheckForTimeOut:                   # @xTaskCheckForTimeOut
.Lfunc_begin36:
	.loc	2 3023 0                        # C:/Vega/rv32m1_sdk_riscv/rtos/freertos_9.0.0/Source/tasks.c:3023:0
	.cfi_startproc
# %bb.0:                                # %entry
	addi	sp, sp, -32
	.cfi_def_cfa_offset 32
	sw	ra, 28(sp)
	sw	s0, 24(sp)
	.cfi_offset ra, -4
	.cfi_offset s0, -8
	addi	s0, sp, 32
	.cfi_def_cfa s0, 0
	sw	a0, -12(s0)
	sw	a1, -16(s0)
.Ltmp630:
	.loc	2 3026 7 prologue_end           # C:/Vega/rv32m1_sdk_riscv/rtos/freertos_9.0.0/Source/tasks.c:3026:7
	lw	a0, -12(s0)
	mv	a1, zero
.Ltmp631:
	.loc	2 3026 5 is_stmt 0              # C:/Vega/rv32m1_sdk_riscv/rtos/freertos_9.0.0/Source/tasks.c:3026:5
	bne	a0, a1, .LBB36_3
	j	.LBB36_1
.LBB36_1:                               # %if.then
.Ltmp632:
	.loc	2 3026 25                       # C:/Vega/rv32m1_sdk_riscv/rtos/freertos_9.0.0/Source/tasks.c:3026:25
	call	vPortSetInterruptMask
	.loc	2 3026 50                       # C:/Vega/rv32m1_sdk_riscv/rtos/freertos_9.0.0/Source/tasks.c:3026:50
	j	.LBB36_2
.LBB36_2:                               # %for.cond
                                        # =>This Inner Loop Header: Depth=1
.Ltmp633:
	.loc	2 3026 50                       # C:/Vega/rv32m1_sdk_riscv/rtos/freertos_9.0.0/Source/tasks.c:3026:50
	j	.LBB36_2
.Ltmp634:
.LBB36_3:                               # %if.end
	.loc	2 3027 7 is_stmt 1              # C:/Vega/rv32m1_sdk_riscv/rtos/freertos_9.0.0/Source/tasks.c:3027:7
	lw	a0, -16(s0)
	mv	a1, zero
.Ltmp635:
	.loc	2 3027 5 is_stmt 0              # C:/Vega/rv32m1_sdk_riscv/rtos/freertos_9.0.0/Source/tasks.c:3027:5
	bne	a0, a1, .LBB36_6
	j	.LBB36_4
.LBB36_4:                               # %if.then2
.Ltmp636:
	.loc	2 3027 29                       # C:/Vega/rv32m1_sdk_riscv/rtos/freertos_9.0.0/Source/tasks.c:3027:29
	call	vPortSetInterruptMask
	.loc	2 3027 54                       # C:/Vega/rv32m1_sdk_riscv/rtos/freertos_9.0.0/Source/tasks.c:3027:54
	j	.LBB36_5
.LBB36_5:                               # %for.cond4
                                        # =>This Inner Loop Header: Depth=1
.Ltmp637:
	.loc	2 3027 54                       # C:/Vega/rv32m1_sdk_riscv/rtos/freertos_9.0.0/Source/tasks.c:3027:54
	j	.LBB36_5
.Ltmp638:
.LBB36_6:                               # %if.end5
	.loc	2 3029 2 is_stmt 1              # C:/Vega/rv32m1_sdk_riscv/rtos/freertos_9.0.0/Source/tasks.c:3029:2
	call	vPortEnterCritical
.Ltmp639:
	.loc	2 3032 38                       # C:/Vega/rv32m1_sdk_riscv/rtos/freertos_9.0.0/Source/tasks.c:3032:38
	lui	a0, %hi(xTickCount)
	lw	a0, %lo(xTickCount)(a0)
	.loc	2 3032 20 is_stmt 0             # C:/Vega/rv32m1_sdk_riscv/rtos/freertos_9.0.0/Source/tasks.c:3032:20
	sw	a0, -24(s0)
.Ltmp640:
	.loc	2 3046 9 is_stmt 1              # C:/Vega/rv32m1_sdk_riscv/rtos/freertos_9.0.0/Source/tasks.c:3046:9
	lw	a0, -16(s0)
	.loc	2 3046 8 is_stmt 0              # C:/Vega/rv32m1_sdk_riscv/rtos/freertos_9.0.0/Source/tasks.c:3046:8
	lw	a0, 0(a0)
	addi	a1, zero, -1
.Ltmp641:
	.loc	2 3046 8                        # C:/Vega/rv32m1_sdk_riscv/rtos/freertos_9.0.0/Source/tasks.c:3046:8
	bne	a0, a1, .LBB36_8
	j	.LBB36_7
.LBB36_7:                               # %if.then7
	.loc	2 0 8                           # C:/Vega/rv32m1_sdk_riscv/rtos/freertos_9.0.0/Source/tasks.c:0:8
	mv	a0, zero
.Ltmp642:
	.loc	2 3051 13 is_stmt 1             # C:/Vega/rv32m1_sdk_riscv/rtos/freertos_9.0.0/Source/tasks.c:3051:13
	sw	a0, -20(s0)
	.loc	2 3052 4                        # C:/Vega/rv32m1_sdk_riscv/rtos/freertos_9.0.0/Source/tasks.c:3052:4
	j	.LBB36_16
.Ltmp643:
.LBB36_8:                               # %if.else
	.loc	2 3056 9                        # C:/Vega/rv32m1_sdk_riscv/rtos/freertos_9.0.0/Source/tasks.c:3056:9
	lui	a0, %hi(xNumOfOverflows)
	lw	a0, %lo(xNumOfOverflows)(a0)
	.loc	2 3056 28 is_stmt 0             # C:/Vega/rv32m1_sdk_riscv/rtos/freertos_9.0.0/Source/tasks.c:3056:28
	lw	a1, -12(s0)
	.loc	2 3056 39                       # C:/Vega/rv32m1_sdk_riscv/rtos/freertos_9.0.0/Source/tasks.c:3056:39
	lw	a1, 0(a1)
	.loc	2 3056 56                       # C:/Vega/rv32m1_sdk_riscv/rtos/freertos_9.0.0/Source/tasks.c:3056:56
	beq	a0, a1, .LBB36_11
	j	.LBB36_9
.LBB36_9:                               # %land.lhs.true
	.loc	2 3056 61                       # C:/Vega/rv32m1_sdk_riscv/rtos/freertos_9.0.0/Source/tasks.c:3056:61
	lw	a0, -24(s0)
	.loc	2 3056 80                       # C:/Vega/rv32m1_sdk_riscv/rtos/freertos_9.0.0/Source/tasks.c:3056:80
	lw	a1, -12(s0)
	.loc	2 3056 91                       # C:/Vega/rv32m1_sdk_riscv/rtos/freertos_9.0.0/Source/tasks.c:3056:91
	lw	a1, 4(a1)
.Ltmp644:
	.loc	2 3056 7                        # C:/Vega/rv32m1_sdk_riscv/rtos/freertos_9.0.0/Source/tasks.c:3056:7
	bltu	a0, a1, .LBB36_11
	j	.LBB36_10
.LBB36_10:                              # %if.then10
	.loc	2 0 7                           # C:/Vega/rv32m1_sdk_riscv/rtos/freertos_9.0.0/Source/tasks.c:0:7
	addi	a0, zero, 1
.Ltmp645:
	.loc	2 3063 12 is_stmt 1             # C:/Vega/rv32m1_sdk_riscv/rtos/freertos_9.0.0/Source/tasks.c:3063:12
	sw	a0, -20(s0)
	.loc	2 3064 3                        # C:/Vega/rv32m1_sdk_riscv/rtos/freertos_9.0.0/Source/tasks.c:3064:3
	j	.LBB36_15
.Ltmp646:
.LBB36_11:                              # %if.else11
	.loc	2 3065 31                       # C:/Vega/rv32m1_sdk_riscv/rtos/freertos_9.0.0/Source/tasks.c:3065:31
	lw	a0, -24(s0)
	.loc	2 3065 49 is_stmt 0             # C:/Vega/rv32m1_sdk_riscv/rtos/freertos_9.0.0/Source/tasks.c:3065:49
	lw	a1, -12(s0)
	.loc	2 3065 60                       # C:/Vega/rv32m1_sdk_riscv/rtos/freertos_9.0.0/Source/tasks.c:3065:60
	lw	a1, 4(a1)
	.loc	2 3065 47                       # C:/Vega/rv32m1_sdk_riscv/rtos/freertos_9.0.0/Source/tasks.c:3065:47
	sub	a0, a0, a1
	.loc	2 3065 83                       # C:/Vega/rv32m1_sdk_riscv/rtos/freertos_9.0.0/Source/tasks.c:3065:83
	lw	a1, -16(s0)
	.loc	2 3065 82                       # C:/Vega/rv32m1_sdk_riscv/rtos/freertos_9.0.0/Source/tasks.c:3065:82
	lw	a1, 0(a1)
.Ltmp647:
	.loc	2 3065 12                       # C:/Vega/rv32m1_sdk_riscv/rtos/freertos_9.0.0/Source/tasks.c:3065:12
	bgeu	a0, a1, .LBB36_13
	j	.LBB36_12
.LBB36_12:                              # %if.then14
.Ltmp648:
	.loc	2 3068 24 is_stmt 1             # C:/Vega/rv32m1_sdk_riscv/rtos/freertos_9.0.0/Source/tasks.c:3068:24
	lw	a0, -24(s0)
	.loc	2 3068 42 is_stmt 0             # C:/Vega/rv32m1_sdk_riscv/rtos/freertos_9.0.0/Source/tasks.c:3068:42
	lw	a1, -12(s0)
	.loc	2 3068 53                       # C:/Vega/rv32m1_sdk_riscv/rtos/freertos_9.0.0/Source/tasks.c:3068:53
	lw	a1, 4(a1)
	.loc	2 3068 5                        # C:/Vega/rv32m1_sdk_riscv/rtos/freertos_9.0.0/Source/tasks.c:3068:5
	lw	a2, -16(s0)
	.loc	2 3068 19                       # C:/Vega/rv32m1_sdk_riscv/rtos/freertos_9.0.0/Source/tasks.c:3068:19
	lw	a3, 0(a2)
	sub	a0, a1, a0
	add	a0, a3, a0
	sw	a0, 0(a2)
	.loc	2 3069 26 is_stmt 1             # C:/Vega/rv32m1_sdk_riscv/rtos/freertos_9.0.0/Source/tasks.c:3069:26
	lw	a0, -12(s0)
	.loc	2 3069 4 is_stmt 0              # C:/Vega/rv32m1_sdk_riscv/rtos/freertos_9.0.0/Source/tasks.c:3069:4
	call	vTaskSetTimeOutState
	mv	a0, zero
	.loc	2 3070 12 is_stmt 1             # C:/Vega/rv32m1_sdk_riscv/rtos/freertos_9.0.0/Source/tasks.c:3070:12
	sw	a0, -20(s0)
	.loc	2 3071 3                        # C:/Vega/rv32m1_sdk_riscv/rtos/freertos_9.0.0/Source/tasks.c:3071:3
	j	.LBB36_14
.Ltmp649:
.LBB36_13:                              # %if.else18
	.loc	2 0 3 is_stmt 0                 # C:/Vega/rv32m1_sdk_riscv/rtos/freertos_9.0.0/Source/tasks.c:0:3
	addi	a0, zero, 1
.Ltmp650:
	.loc	2 3074 12 is_stmt 1             # C:/Vega/rv32m1_sdk_riscv/rtos/freertos_9.0.0/Source/tasks.c:3074:12
	sw	a0, -20(s0)
	j	.LBB36_14
.Ltmp651:
.LBB36_14:                              # %if.end19
	.loc	2 0 12 is_stmt 0                # C:/Vega/rv32m1_sdk_riscv/rtos/freertos_9.0.0/Source/tasks.c:0:12
	j	.LBB36_15
.LBB36_15:                              # %if.end20
	j	.LBB36_16
.LBB36_16:                              # %if.end21
	.loc	2 3077 2 is_stmt 1              # C:/Vega/rv32m1_sdk_riscv/rtos/freertos_9.0.0/Source/tasks.c:3077:2
	call	vPortExitCritical
	.loc	2 3079 9                        # C:/Vega/rv32m1_sdk_riscv/rtos/freertos_9.0.0/Source/tasks.c:3079:9
	lw	a0, -20(s0)
	.loc	2 3079 2 is_stmt 0              # C:/Vega/rv32m1_sdk_riscv/rtos/freertos_9.0.0/Source/tasks.c:3079:2
	lw	s0, 24(sp)
	lw	ra, 28(sp)
	addi	sp, sp, 32
	ret
.Ltmp652:
.Lfunc_end36:
	.size	xTaskCheckForTimeOut, .Lfunc_end36-xTaskCheckForTimeOut
	.cfi_endproc
                                        # -- End function
	.section	.text.vTaskMissedYield,"ax",@progbits
	.globl	vTaskMissedYield                # -- Begin function vTaskMissedYield
	.p2align	2
	.type	vTaskMissedYield,@function
vTaskMissedYield:                       # @vTaskMissedYield
.Lfunc_begin37:
	.loc	2 3084 0 is_stmt 1              # C:/Vega/rv32m1_sdk_riscv/rtos/freertos_9.0.0/Source/tasks.c:3084:0
	.cfi_startproc
# %bb.0:                                # %entry
	addi	sp, sp, -16
	.cfi_def_cfa_offset 16
.Ltmp653:
	.loc	2 3085 16 prologue_end          # C:/Vega/rv32m1_sdk_riscv/rtos/freertos_9.0.0/Source/tasks.c:3085:16
	sw	ra, 12(sp)
