	.text
	.attribute	4, 16
	.attribute	5, "rv32i2p0"
	.file	"timers.c"
	.file	1 "C:/Vega/rv32m1_sdk_riscv/boards/rv32m1_vega/rtos_examples/freertos_hello/ri5cy/riscvgcc/../../../../../../rtos/freertos_9.0.0/Source/include" "queue.h"
	.file	2 "C:/Vega/rv32m1_sdk_riscv/rtos/freertos_9.0.0/Source" "timers.c"
	.file	3 "C:/Vega/rv32m1_sdk_riscv/boards/rv32m1_vega/rtos_examples/freertos_hello/ri5cy/riscvgcc/../../../../../../rtos/freertos_9.0.0/Source/include" "task.h"
	.file	4 "C:/Vega/rv32m1_sdk_riscv/boards/rv32m1_vega/rtos_examples/freertos_hello/ri5cy/riscvgcc/../../../../../../rtos/freertos_9.0.0/Source/portable/GCC/RISCY" "portmacro.h"
	.file	5 "C:/Vega/rv32m1_sdk_riscv/boards/rv32m1_vega/rtos_examples/freertos_hello/ri5cy/riscvgcc/../../../../../../rtos/freertos_9.0.0/Source/include" "list.h"
	.file	6 "C:\\Vega" "riscv32-unknown-elf-gcc\\riscv32-unknown-elf\\include\\machine\\_default_types.h"
	.file	7 "C:\\Vega" "riscv32-unknown-elf-gcc\\riscv32-unknown-elf\\include\\sys\\_stdint.h"
	.file	8 "C:/Vega/rv32m1_sdk_riscv/boards/rv32m1_vega/rtos_examples/freertos_hello/ri5cy/riscvgcc/../../../../../../rtos/freertos_9.0.0/Source/include" "timers.h"
	.section	.text.xTimerCreateTimerTask,"ax",@progbits
	.globl	xTimerCreateTimerTask           # -- Begin function xTimerCreateTimerTask
	.p2align	2
	.type	xTimerCreateTimerTask,@function
xTimerCreateTimerTask:                  # @xTimerCreateTimerTask
.Lfunc_begin0:
	.loc	2 260 0                         # C:/Vega/rv32m1_sdk_riscv/rtos/freertos_9.0.0/Source/timers.c:260:0
	.cfi_sections .debug_frame
	.cfi_startproc
# %bb.0:                                # %entry
	addi	sp, sp, -16
	.cfi_def_cfa_offset 16
	sw	ra, 12(sp)
	sw	s0, 8(sp)
	.cfi_offset ra, -4
	.cfi_offset s0, -8
	addi	s0, sp, 16
	.cfi_def_cfa s0, 0
	mv	a0, zero
.Ltmp0:
	.loc	2 261 12 prologue_end           # C:/Vega/rv32m1_sdk_riscv/rtos/freertos_9.0.0/Source/timers.c:261:12
	sw	a0, -12(s0)
	.loc	2 267 2                         # C:/Vega/rv32m1_sdk_riscv/rtos/freertos_9.0.0/Source/timers.c:267:2
	sw	a0, -16(s0)
	call	prvCheckForValidListAndQueue
.Ltmp1:
	.loc	2 269 6                         # C:/Vega/rv32m1_sdk_riscv/rtos/freertos_9.0.0/Source/timers.c:269:6
	lui	a0, %hi(xTimerQueue)
	lw	a0, %lo(xTimerQueue)(a0)
.Ltmp2:
	.loc	2 269 6 is_stmt 0               # C:/Vega/rv32m1_sdk_riscv/rtos/freertos_9.0.0/Source/timers.c:269:6
	lw	a1, -16(s0)
	beq	a0, a1, .LBB0_2
	j	.LBB0_1
.LBB0_1:                                # %if.then
.Ltmp3:
	.loc	2 293 14 is_stmt 1              # C:/Vega/rv32m1_sdk_riscv/rtos/freertos_9.0.0/Source/timers.c:293:14
	lui	a0, %hi(prvTimerTask)
	addi	a0, a0, %lo(prvTimerTask)
	lui	a1, %hi(.L.str)
	addi	a1, a1, %lo(.L.str)
	lui	a2, %hi(xTimerTaskHandle)
	addi	a5, a2, %lo(xTimerTaskHandle)
	addi	a2, zero, 512
	mv	a3, zero
	addi	a4, zero, 4
	call	xTaskCreate
	.loc	2 293 12 is_stmt 0              # C:/Vega/rv32m1_sdk_riscv/rtos/freertos_9.0.0/Source/timers.c:293:12
	sw	a0, -12(s0)
.Ltmp4:
	.loc	2 301 2 is_stmt 1               # C:/Vega/rv32m1_sdk_riscv/rtos/freertos_9.0.0/Source/timers.c:301:2
	j	.LBB0_3
.Ltmp5:
.LBB0_2:                                # %if.else
	.loc	2 0 2 is_stmt 0                 # C:/Vega/rv32m1_sdk_riscv/rtos/freertos_9.0.0/Source/timers.c:0:2
	j	.LBB0_3
.LBB0_3:                                # %if.end
.Ltmp6:
	.loc	2 307 7 is_stmt 1               # C:/Vega/rv32m1_sdk_riscv/rtos/freertos_9.0.0/Source/timers.c:307:7
	lw	a0, -12(s0)
	mv	a1, zero
.Ltmp7:
	.loc	2 307 5 is_stmt 0               # C:/Vega/rv32m1_sdk_riscv/rtos/freertos_9.0.0/Source/timers.c:307:5
	bne	a0, a1, .LBB0_6
	j	.LBB0_4
.LBB0_4:                                # %if.then2
.Ltmp8:
	.loc	2 307 23                        # C:/Vega/rv32m1_sdk_riscv/rtos/freertos_9.0.0/Source/timers.c:307:23
	call	vPortSetInterruptMask
	.loc	2 307 48                        # C:/Vega/rv32m1_sdk_riscv/rtos/freertos_9.0.0/Source/timers.c:307:48
	j	.LBB0_5
.LBB0_5:                                # %for.cond
                                        # =>This Inner Loop Header: Depth=1
.Ltmp9:
	.loc	2 307 48                        # C:/Vega/rv32m1_sdk_riscv/rtos/freertos_9.0.0/Source/timers.c:307:48
	j	.LBB0_5
.Ltmp10:
.LBB0_6:                                # %if.end4
	.loc	2 308 9 is_stmt 1               # C:/Vega/rv32m1_sdk_riscv/rtos/freertos_9.0.0/Source/timers.c:308:9
	lw	a0, -12(s0)
	.loc	2 308 2 is_stmt 0               # C:/Vega/rv32m1_sdk_riscv/rtos/freertos_9.0.0/Source/timers.c:308:2
	lw	s0, 8(sp)
	lw	ra, 12(sp)
	addi	sp, sp, 16
	ret
.Ltmp11:
.Lfunc_end0:
	.size	xTimerCreateTimerTask, .Lfunc_end0-xTimerCreateTimerTask
	.cfi_endproc
                                        # -- End function
	.section	.text.prvCheckForValidListAndQueue,"ax",@progbits
	.p2align	2                               # -- Begin function prvCheckForValidListAndQueue
	.type	prvCheckForValidListAndQueue,@function
prvCheckForValidListAndQueue:           # @prvCheckForValidListAndQueue
.Lfunc_begin1:
	.loc	2 931 0 is_stmt 1               # C:/Vega/rv32m1_sdk_riscv/rtos/freertos_9.0.0/Source/timers.c:931:0
	.cfi_startproc
# %bb.0:                                # %entry
	addi	sp, sp, -32
	.cfi_def_cfa_offset 32
.Ltmp12:
	.loc	2 935 2 prologue_end            # C:/Vega/rv32m1_sdk_riscv/rtos/freertos_9.0.0/Source/timers.c:935:2
	sw	ra, 28(sp)
	sw	s0, 24(sp)
	.cfi_offset ra, -4
	.cfi_offset s0, -8
	addi	s0, sp, 32
	.cfi_def_cfa s0, 0
	call	vPortEnterCritical
.Ltmp13:
	.loc	2 937 7                         # C:/Vega/rv32m1_sdk_riscv/rtos/freertos_9.0.0/Source/timers.c:937:7
	lui	a0, %hi(xTimerQueue)
	lw	a0, %lo(xTimerQueue)(a0)
	mv	a1, zero
.Ltmp14:
	.loc	2 937 7 is_stmt 0               # C:/Vega/rv32m1_sdk_riscv/rtos/freertos_9.0.0/Source/timers.c:937:7
	bne	a0, a1, .LBB1_5
	j	.LBB1_1
.LBB1_1:                                # %if.then
.Ltmp15:
	.loc	2 939 4 is_stmt 1               # C:/Vega/rv32m1_sdk_riscv/rtos/freertos_9.0.0/Source/timers.c:939:4
	lui	a0, %hi(xActiveTimerList1)
	addi	a0, a0, %lo(xActiveTimerList1)
	sw	a0, -12(s0)
	call	vListInitialise
	.loc	2 940 4                         # C:/Vega/rv32m1_sdk_riscv/rtos/freertos_9.0.0/Source/timers.c:940:4
	lui	a0, %hi(xActiveTimerList2)
	addi	a0, a0, %lo(xActiveTimerList2)
	sw	a0, -16(s0)
	call	vListInitialise
	.loc	2 941 23                        # C:/Vega/rv32m1_sdk_riscv/rtos/freertos_9.0.0/Source/timers.c:941:23
	lui	a0, %hi(pxCurrentTimerList)
	lw	a1, -12(s0)
	sw	a1, %lo(pxCurrentTimerList)(a0)
	.loc	2 942 24                        # C:/Vega/rv32m1_sdk_riscv/rtos/freertos_9.0.0/Source/timers.c:942:24
	lui	a0, %hi(pxOverflowTimerList)
	lw	a2, -16(s0)
	sw	a2, %lo(pxOverflowTimerList)(a0)
	addi	a0, zero, 10
	addi	a1, zero, 16
	mv	a3, zero
.Ltmp16:
	.loc	2 955 19                        # C:/Vega/rv32m1_sdk_riscv/rtos/freertos_9.0.0/Source/timers.c:955:19
	mv	a2, a3
	sw	a3, -20(s0)
	call	xQueueGenericCreate
	.loc	2 955 17 is_stmt 0              # C:/Vega/rv32m1_sdk_riscv/rtos/freertos_9.0.0/Source/timers.c:955:17
	lui	a1, %hi(xTimerQueue)
	sw	a0, %lo(xTimerQueue)(a1)
.Ltmp17:
	.loc	2 961 9 is_stmt 1               # C:/Vega/rv32m1_sdk_riscv/rtos/freertos_9.0.0/Source/timers.c:961:9
	lw	a0, %lo(xTimerQueue)(a1)
.Ltmp18:
	.loc	2 961 9 is_stmt 0               # C:/Vega/rv32m1_sdk_riscv/rtos/freertos_9.0.0/Source/timers.c:961:9
	lw	a1, -20(s0)
	beq	a0, a1, .LBB1_3
	j	.LBB1_2
.LBB1_2:                                # %if.then2
.Ltmp19:
	.loc	2 963 27 is_stmt 1              # C:/Vega/rv32m1_sdk_riscv/rtos/freertos_9.0.0/Source/timers.c:963:27
	lui	a0, %hi(xTimerQueue)
	lw	a0, %lo(xTimerQueue)(a0)
	.loc	2 963 6 is_stmt 0               # C:/Vega/rv32m1_sdk_riscv/rtos/freertos_9.0.0/Source/timers.c:963:6
	lui	a1, %hi(.L.str.1)
	addi	a1, a1, %lo(.L.str.1)
	call	vQueueAddToRegistry
	.loc	2 964 5 is_stmt 1               # C:/Vega/rv32m1_sdk_riscv/rtos/freertos_9.0.0/Source/timers.c:964:5
	j	.LBB1_4
.Ltmp20:
.LBB1_3:                                # %if.else
	.loc	2 0 5 is_stmt 0                 # C:/Vega/rv32m1_sdk_riscv/rtos/freertos_9.0.0/Source/timers.c:0:5
	j	.LBB1_4
.LBB1_4:                                # %if.end
	.loc	2 971 3 is_stmt 1               # C:/Vega/rv32m1_sdk_riscv/rtos/freertos_9.0.0/Source/timers.c:971:3
	j	.LBB1_6
.Ltmp21:
.LBB1_5:                                # %if.else3
	.loc	2 0 3 is_stmt 0                 # C:/Vega/rv32m1_sdk_riscv/rtos/freertos_9.0.0/Source/timers.c:0:3
	j	.LBB1_6
.LBB1_6:                                # %if.end4
	.loc	2 977 2 is_stmt 1               # C:/Vega/rv32m1_sdk_riscv/rtos/freertos_9.0.0/Source/timers.c:977:2
	call	vPortExitCritical
	.loc	2 978 1                         # C:/Vega/rv32m1_sdk_riscv/rtos/freertos_9.0.0/Source/timers.c:978:1
	lw	s0, 24(sp)
	lw	ra, 28(sp)
	addi	sp, sp, 32
	ret
.Ltmp22:
.Lfunc_end1:
	.size	prvCheckForValidListAndQueue, .Lfunc_end1-prvCheckForValidListAndQueue
	.cfi_endproc
                                        # -- End function
	.section	.text.prvTimerTask,"ax",@progbits
	.p2align	2                               # -- Begin function prvTimerTask
	.type	prvTimerTask,@function
prvTimerTask:                           # @prvTimerTask
.Lfunc_begin2:
	.loc	2 539 0                         # C:/Vega/rv32m1_sdk_riscv/rtos/freertos_9.0.0/Source/timers.c:539:0
	.cfi_startproc
# %bb.0:                                # %entry
	addi	sp, sp, -32
	.cfi_def_cfa_offset 32
	sw	ra, 28(sp)
	sw	s0, 24(sp)
	.cfi_offset ra, -4
	.cfi_offset s0, -8
	addi	s0, sp, 32
	.cfi_def_cfa s0, 0
	sw	a0, -12(s0)
.Ltmp23:
	.loc	2 558 2 prologue_end            # C:/Vega/rv32m1_sdk_riscv/rtos/freertos_9.0.0/Source/timers.c:558:2
	j	.LBB2_1
.LBB2_1:                                # %for.cond
                                        # =>This Inner Loop Header: Depth=1
	.loc	2 0 2 is_stmt 0                 # C:/Vega/rv32m1_sdk_riscv/rtos/freertos_9.0.0/Source/timers.c:0:2
	addi	a0, s0, -20
.Ltmp24:
	.loc	2 562 21 is_stmt 1              # C:/Vega/rv32m1_sdk_riscv/rtos/freertos_9.0.0/Source/timers.c:562:21
	call	prvGetNextExpireTime
	.loc	2 562 19 is_stmt 0              # C:/Vega/rv32m1_sdk_riscv/rtos/freertos_9.0.0/Source/timers.c:562:19
	sw	a0, -16(s0)
	.loc	2 566 31 is_stmt 1              # C:/Vega/rv32m1_sdk_riscv/rtos/freertos_9.0.0/Source/timers.c:566:31
	lw	a0, -16(s0)
	.loc	2 566 48 is_stmt 0              # C:/Vega/rv32m1_sdk_riscv/rtos/freertos_9.0.0/Source/timers.c:566:48
	lw	a1, -20(s0)
	.loc	2 566 3                         # C:/Vega/rv32m1_sdk_riscv/rtos/freertos_9.0.0/Source/timers.c:566:3
	call	prvProcessTimerOrBlockTask
	.loc	2 569 3 is_stmt 1               # C:/Vega/rv32m1_sdk_riscv/rtos/freertos_9.0.0/Source/timers.c:569:3
	call	prvProcessReceivedCommands
.Ltmp25:
	.loc	2 558 2                         # C:/Vega/rv32m1_sdk_riscv/rtos/freertos_9.0.0/Source/timers.c:558:2
	j	.LBB2_1
.Ltmp26:
.Lfunc_end2:
	.size	prvTimerTask, .Lfunc_end2-prvTimerTask
	.cfi_endproc
                                        # -- End function
	.section	.text.xTimerCreate,"ax",@progbits
	.globl	xTimerCreate                    # -- Begin function xTimerCreate
	.p2align	2
	.type	xTimerCreate,@function
xTimerCreate:                           # @xTimerCreate
.Lfunc_begin3:
	.loc	2 319 0                         # C:/Vega/rv32m1_sdk_riscv/rtos/freertos_9.0.0/Source/timers.c:319:0
	.cfi_startproc
# %bb.0:                                # %entry
	addi	sp, sp, -32
	.cfi_def_cfa_offset 32
	sw	ra, 28(sp)
	sw	s0, 24(sp)
	.cfi_offset ra, -4
	.cfi_offset s0, -8
	addi	s0, sp, 32
	.cfi_def_cfa s0, 0
	sw	a0, -12(s0)
	sw	a1, -16(s0)
	sw	a2, -20(s0)
	sw	a3, -24(s0)
	sw	a4, -28(s0)
	addi	a0, zero, 44
.Ltmp27:
	.loc	2 322 30 prologue_end           # C:/Vega/rv32m1_sdk_riscv/rtos/freertos_9.0.0/Source/timers.c:322:30
	call	pvPortMalloc
	.loc	2 322 14 is_stmt 0              # C:/Vega/rv32m1_sdk_riscv/rtos/freertos_9.0.0/Source/timers.c:322:14
	sw	a0, -32(s0)
.Ltmp28:
	.loc	2 324 7 is_stmt 1               # C:/Vega/rv32m1_sdk_riscv/rtos/freertos_9.0.0/Source/timers.c:324:7
	lw	a0, -32(s0)
	mv	a1, zero
.Ltmp29:
	.loc	2 324 7 is_stmt 0               # C:/Vega/rv32m1_sdk_riscv/rtos/freertos_9.0.0/Source/timers.c:324:7
	beq	a0, a1, .LBB3_2
	j	.LBB3_1
.LBB3_1:                                # %if.then
.Ltmp30:
	.loc	2 326 27 is_stmt 1              # C:/Vega/rv32m1_sdk_riscv/rtos/freertos_9.0.0/Source/timers.c:326:27
	lw	a0, -12(s0)
	.loc	2 326 40 is_stmt 0              # C:/Vega/rv32m1_sdk_riscv/rtos/freertos_9.0.0/Source/timers.c:326:40
	lw	a1, -16(s0)
	.loc	2 326 61                        # C:/Vega/rv32m1_sdk_riscv/rtos/freertos_9.0.0/Source/timers.c:326:61
	lw	a2, -20(s0)
	.loc	2 326 75                        # C:/Vega/rv32m1_sdk_riscv/rtos/freertos_9.0.0/Source/timers.c:326:75
	lw	a3, -24(s0)
	.loc	2 326 86                        # C:/Vega/rv32m1_sdk_riscv/rtos/freertos_9.0.0/Source/timers.c:326:86
	lw	a4, -28(s0)
	.loc	2 326 106                       # C:/Vega/rv32m1_sdk_riscv/rtos/freertos_9.0.0/Source/timers.c:326:106
	lw	a5, -32(s0)
	.loc	2 326 4                         # C:/Vega/rv32m1_sdk_riscv/rtos/freertos_9.0.0/Source/timers.c:326:4
	call	prvInitialiseNewTimer
	.loc	2 336 3 is_stmt 1               # C:/Vega/rv32m1_sdk_riscv/rtos/freertos_9.0.0/Source/timers.c:336:3
	j	.LBB3_2
.Ltmp31:
.LBB3_2:                                # %if.end
	.loc	2 338 10                        # C:/Vega/rv32m1_sdk_riscv/rtos/freertos_9.0.0/Source/timers.c:338:10
	lw	a0, -32(s0)
	.loc	2 338 3 is_stmt 0               # C:/Vega/rv32m1_sdk_riscv/rtos/freertos_9.0.0/Source/timers.c:338:3
	lw	s0, 24(sp)
	lw	ra, 28(sp)
	addi	sp, sp, 32
	ret
.Ltmp32:
.Lfunc_end3:
	.size	xTimerCreate, .Lfunc_end3-xTimerCreate
	.cfi_endproc
                                        # -- End function
	.section	.text.prvInitialiseNewTimer,"ax",@progbits
	.p2align	2                               # -- Begin function prvInitialiseNewTimer
	.type	prvInitialiseNewTimer,@function
prvInitialiseNewTimer:                  # @prvInitialiseNewTimer
.Lfunc_begin4:
	.loc	2 394 0 is_stmt 1               # C:/Vega/rv32m1_sdk_riscv/rtos/freertos_9.0.0/Source/timers.c:394:0
	.cfi_startproc
# %bb.0:                                # %entry
	addi	sp, sp, -32
	.cfi_def_cfa_offset 32
	sw	ra, 28(sp)
	sw	s0, 24(sp)
	.cfi_offset ra, -4
	.cfi_offset s0, -8
	addi	s0, sp, 32
	.cfi_def_cfa s0, 0
	sw	a0, -12(s0)
	sw	a1, -16(s0)
	sw	a2, -20(s0)
	sw	a3, -24(s0)
	sw	a4, -28(s0)
	sw	a5, -32(s0)
.Ltmp33:
	.loc	2 396 9 prologue_end            # C:/Vega/rv32m1_sdk_riscv/rtos/freertos_9.0.0/Source/timers.c:396:9
	lw	a0, -16(s0)
	mv	a1, zero
.Ltmp34:
	.loc	2 396 5 is_stmt 0               # C:/Vega/rv32m1_sdk_riscv/rtos/freertos_9.0.0/Source/timers.c:396:5
	bne	a0, a1, .LBB4_3
	j	.LBB4_1
.LBB4_1:                                # %if.then
.Ltmp35:
	.loc	2 396 43                        # C:/Vega/rv32m1_sdk_riscv/rtos/freertos_9.0.0/Source/timers.c:396:43
	call	vPortSetInterruptMask
	.loc	2 396 68                        # C:/Vega/rv32m1_sdk_riscv/rtos/freertos_9.0.0/Source/timers.c:396:68
	j	.LBB4_2
.LBB4_2:                                # %for.cond
                                        # =>This Inner Loop Header: Depth=1
.Ltmp36:
	.loc	2 396 68                        # C:/Vega/rv32m1_sdk_riscv/rtos/freertos_9.0.0/Source/timers.c:396:68
	j	.LBB4_2
.Ltmp37:
.LBB4_3:                                # %if.end
	.loc	2 398 6 is_stmt 1               # C:/Vega/rv32m1_sdk_riscv/rtos/freertos_9.0.0/Source/timers.c:398:6
	lw	a0, -32(s0)
	mv	a1, zero
.Ltmp38:
	.loc	2 398 6 is_stmt 0               # C:/Vega/rv32m1_sdk_riscv/rtos/freertos_9.0.0/Source/timers.c:398:6
	beq	a0, a1, .LBB4_5
	j	.LBB4_4
.LBB4_4:                                # %if.then5
.Ltmp39:
	.loc	2 402 3 is_stmt 1               # C:/Vega/rv32m1_sdk_riscv/rtos/freertos_9.0.0/Source/timers.c:402:3
	call	prvCheckForValidListAndQueue
	.loc	2 406 29                        # C:/Vega/rv32m1_sdk_riscv/rtos/freertos_9.0.0/Source/timers.c:406:29
	lw	a0, -12(s0)
	.loc	2 406 3 is_stmt 0               # C:/Vega/rv32m1_sdk_riscv/rtos/freertos_9.0.0/Source/timers.c:406:3
	lw	a1, -32(s0)
	.loc	2 406 27                        # C:/Vega/rv32m1_sdk_riscv/rtos/freertos_9.0.0/Source/timers.c:406:27
	sw	a0, 0(a1)
	.loc	2 407 37 is_stmt 1              # C:/Vega/rv32m1_sdk_riscv/rtos/freertos_9.0.0/Source/timers.c:407:37
	lw	a0, -16(s0)
	.loc	2 407 3 is_stmt 0               # C:/Vega/rv32m1_sdk_riscv/rtos/freertos_9.0.0/Source/timers.c:407:3
	lw	a1, -32(s0)
	.loc	2 407 35                        # C:/Vega/rv32m1_sdk_riscv/rtos/freertos_9.0.0/Source/timers.c:407:35
	sw	a0, 24(a1)
	.loc	2 408 30 is_stmt 1              # C:/Vega/rv32m1_sdk_riscv/rtos/freertos_9.0.0/Source/timers.c:408:30
	lw	a0, -20(s0)
	.loc	2 408 3 is_stmt 0               # C:/Vega/rv32m1_sdk_riscv/rtos/freertos_9.0.0/Source/timers.c:408:3
	lw	a1, -32(s0)
	.loc	2 408 28                        # C:/Vega/rv32m1_sdk_riscv/rtos/freertos_9.0.0/Source/timers.c:408:28
	sw	a0, 28(a1)
	.loc	2 409 27 is_stmt 1              # C:/Vega/rv32m1_sdk_riscv/rtos/freertos_9.0.0/Source/timers.c:409:27
	lw	a0, -24(s0)
	.loc	2 409 3 is_stmt 0               # C:/Vega/rv32m1_sdk_riscv/rtos/freertos_9.0.0/Source/timers.c:409:3
	lw	a1, -32(s0)
	.loc	2 409 25                        # C:/Vega/rv32m1_sdk_riscv/rtos/freertos_9.0.0/Source/timers.c:409:25
	sw	a0, 32(a1)
	.loc	2 410 36 is_stmt 1              # C:/Vega/rv32m1_sdk_riscv/rtos/freertos_9.0.0/Source/timers.c:410:36
	lw	a0, -28(s0)
	.loc	2 410 3 is_stmt 0               # C:/Vega/rv32m1_sdk_riscv/rtos/freertos_9.0.0/Source/timers.c:410:3
	lw	a1, -32(s0)
	.loc	2 410 34                        # C:/Vega/rv32m1_sdk_riscv/rtos/freertos_9.0.0/Source/timers.c:410:34
	sw	a0, 36(a1)
	.loc	2 411 27 is_stmt 1              # C:/Vega/rv32m1_sdk_riscv/rtos/freertos_9.0.0/Source/timers.c:411:27
	lw	a0, -32(s0)
	.loc	2 411 39 is_stmt 0              # C:/Vega/rv32m1_sdk_riscv/rtos/freertos_9.0.0/Source/timers.c:411:39
	addi	a0, a0, 4
	.loc	2 411 3                         # C:/Vega/rv32m1_sdk_riscv/rtos/freertos_9.0.0/Source/timers.c:411:3
	call	vListInitialiseItem
	.loc	2 413 2 is_stmt 1               # C:/Vega/rv32m1_sdk_riscv/rtos/freertos_9.0.0/Source/timers.c:413:2
	j	.LBB4_5
.Ltmp40:
.LBB4_5:                                # %if.end11
	.loc	2 414 1                         # C:/Vega/rv32m1_sdk_riscv/rtos/freertos_9.0.0/Source/timers.c:414:1
	lw	s0, 24(sp)
	lw	ra, 28(sp)
	addi	sp, sp, 32
	ret
.Ltmp41:
.Lfunc_end4:
	.size	prvInitialiseNewTimer, .Lfunc_end4-prvInitialiseNewTimer
	.cfi_endproc
                                        # -- End function
	.section	.text.xTimerGenericCommand,"ax",@progbits
	.globl	xTimerGenericCommand            # -- Begin function xTimerGenericCommand
	.p2align	2
	.type	xTimerGenericCommand,@function
xTimerGenericCommand:                   # @xTimerGenericCommand
.Lfunc_begin5:
	.loc	2 418 0                         # C:/Vega/rv32m1_sdk_riscv/rtos/freertos_9.0.0/Source/timers.c:418:0
	.cfi_startproc
# %bb.0:                                # %entry
	addi	sp, sp, -64
	.cfi_def_cfa_offset 64
	sw	ra, 60(sp)
	sw	s0, 56(sp)
	.cfi_offset ra, -4
	.cfi_offset s0, -8
	addi	s0, sp, 64
	.cfi_def_cfa s0, 0
	sw	a0, -12(s0)
	sw	a1, -16(s0)
	sw	a2, -20(s0)
	sw	a3, -24(s0)
	sw	a4, -28(s0)
	mv	a0, zero
.Ltmp42:
	.loc	2 419 12 prologue_end           # C:/Vega/rv32m1_sdk_riscv/rtos/freertos_9.0.0/Source/timers.c:419:12
	sw	a0, -32(s0)
.Ltmp43:
	.loc	2 422 7                         # C:/Vega/rv32m1_sdk_riscv/rtos/freertos_9.0.0/Source/timers.c:422:7
	lw	a1, -12(s0)
.Ltmp44:
	.loc	2 422 5 is_stmt 0               # C:/Vega/rv32m1_sdk_riscv/rtos/freertos_9.0.0/Source/timers.c:422:5
	bne	a1, a0, .LBB5_3
	j	.LBB5_1
.LBB5_1:                                # %if.then
.Ltmp45:
	.loc	2 422 22                        # C:/Vega/rv32m1_sdk_riscv/rtos/freertos_9.0.0/Source/timers.c:422:22
	call	vPortSetInterruptMask
	.loc	2 422 47                        # C:/Vega/rv32m1_sdk_riscv/rtos/freertos_9.0.0/Source/timers.c:422:47
	j	.LBB5_2
.LBB5_2:                                # %for.cond
                                        # =>This Inner Loop Header: Depth=1
.Ltmp46:
	.loc	2 422 47                        # C:/Vega/rv32m1_sdk_riscv/rtos/freertos_9.0.0/Source/timers.c:422:47
	j	.LBB5_2
.Ltmp47:
.LBB5_3:                                # %if.end
	.loc	2 426 6 is_stmt 1               # C:/Vega/rv32m1_sdk_riscv/rtos/freertos_9.0.0/Source/timers.c:426:6
	lui	a0, %hi(xTimerQueue)
	lw	a0, %lo(xTimerQueue)(a0)
	mv	a1, zero
.Ltmp48:
	.loc	2 426 6 is_stmt 0               # C:/Vega/rv32m1_sdk_riscv/rtos/freertos_9.0.0/Source/timers.c:426:6
	beq	a0, a1, .LBB5_11
	j	.LBB5_4
.LBB5_4:                                # %if.then2
.Ltmp49:
	.loc	2 429 25 is_stmt 1              # C:/Vega/rv32m1_sdk_riscv/rtos/freertos_9.0.0/Source/timers.c:429:25
	lw	a0, -16(s0)
	.loc	2 429 23 is_stmt 0              # C:/Vega/rv32m1_sdk_riscv/rtos/freertos_9.0.0/Source/timers.c:429:23
	sw	a0, -48(s0)
	.loc	2 430 47 is_stmt 1              # C:/Vega/rv32m1_sdk_riscv/rtos/freertos_9.0.0/Source/timers.c:430:47
	lw	a0, -20(s0)
	.loc	2 430 45 is_stmt 0              # C:/Vega/rv32m1_sdk_riscv/rtos/freertos_9.0.0/Source/timers.c:430:45
	sw	a0, -44(s0)
	.loc	2 431 55 is_stmt 1              # C:/Vega/rv32m1_sdk_riscv/rtos/freertos_9.0.0/Source/timers.c:431:55
	lw	a0, -12(s0)
	.loc	2 431 39 is_stmt 0              # C:/Vega/rv32m1_sdk_riscv/rtos/freertos_9.0.0/Source/timers.c:431:39
	sw	a0, -40(s0)
.Ltmp50:
	.loc	2 433 7 is_stmt 1               # C:/Vega/rv32m1_sdk_riscv/rtos/freertos_9.0.0/Source/timers.c:433:7
	lw	a0, -16(s0)
	addi	a1, zero, 5
.Ltmp51:
	.loc	2 433 7 is_stmt 0               # C:/Vega/rv32m1_sdk_riscv/rtos/freertos_9.0.0/Source/timers.c:433:7
	blt	a1, a0, .LBB5_9
	j	.LBB5_5
.LBB5_5:                                # %if.then6
.Ltmp52:
	.loc	2 435 8 is_stmt 1               # C:/Vega/rv32m1_sdk_riscv/rtos/freertos_9.0.0/Source/timers.c:435:8
	call	xTaskGetSchedulerState
	addi	a1, zero, 2
.Ltmp53:
	.loc	2 435 8 is_stmt 0               # C:/Vega/rv32m1_sdk_riscv/rtos/freertos_9.0.0/Source/timers.c:435:8
	bne	a0, a1, .LBB5_7
	j	.LBB5_6
.LBB5_6:                                # %if.then9
.Ltmp54:
	.loc	2 437 36 is_stmt 1              # C:/Vega/rv32m1_sdk_riscv/rtos/freertos_9.0.0/Source/timers.c:437:36
	lui	a0, %hi(xTimerQueue)
	lw	a0, %lo(xTimerQueue)(a0)
	.loc	2 437 68 is_stmt 0              # C:/Vega/rv32m1_sdk_riscv/rtos/freertos_9.0.0/Source/timers.c:437:68
	lw	a2, -28(s0)
	addi	a1, s0, -48
	mv	a3, zero
	.loc	2 437 15                        # C:/Vega/rv32m1_sdk_riscv/rtos/freertos_9.0.0/Source/timers.c:437:15
	call	xQueueGenericSend
	.loc	2 437 13                        # C:/Vega/rv32m1_sdk_riscv/rtos/freertos_9.0.0/Source/timers.c:437:13
	sw	a0, -32(s0)
	.loc	2 438 4 is_stmt 1               # C:/Vega/rv32m1_sdk_riscv/rtos/freertos_9.0.0/Source/timers.c:438:4
	j	.LBB5_8
.Ltmp55:
.LBB5_7:                                # %if.else
	.loc	2 441 36                        # C:/Vega/rv32m1_sdk_riscv/rtos/freertos_9.0.0/Source/timers.c:441:36
	lui	a0, %hi(xTimerQueue)
	lw	a0, %lo(xTimerQueue)(a0)
	addi	a1, s0, -48
	mv	a2, zero
	.loc	2 441 15 is_stmt 0              # C:/Vega/rv32m1_sdk_riscv/rtos/freertos_9.0.0/Source/timers.c:441:15
	sw	a2, -52(s0)
	lw	a3, -52(s0)
	call	xQueueGenericSend
	.loc	2 441 13                        # C:/Vega/rv32m1_sdk_riscv/rtos/freertos_9.0.0/Source/timers.c:441:13
	sw	a0, -32(s0)
	j	.LBB5_8
.Ltmp56:
.LBB5_8:                                # %if.end12
	.loc	2 443 3 is_stmt 1               # C:/Vega/rv32m1_sdk_riscv/rtos/freertos_9.0.0/Source/timers.c:443:3
	j	.LBB5_10
.Ltmp57:
.LBB5_9:                                # %if.else13
	.loc	2 446 42                        # C:/Vega/rv32m1_sdk_riscv/rtos/freertos_9.0.0/Source/timers.c:446:42
	lui	a0, %hi(xTimerQueue)
	lw	a0, %lo(xTimerQueue)(a0)
	.loc	2 446 74 is_stmt 0              # C:/Vega/rv32m1_sdk_riscv/rtos/freertos_9.0.0/Source/timers.c:446:74
	lw	a2, -24(s0)
	addi	a1, s0, -48
	mv	a3, zero
	.loc	2 446 14                        # C:/Vega/rv32m1_sdk_riscv/rtos/freertos_9.0.0/Source/timers.c:446:14
	call	xQueueGenericSendFromISR
	.loc	2 446 12                        # C:/Vega/rv32m1_sdk_riscv/rtos/freertos_9.0.0/Source/timers.c:446:12
	sw	a0, -32(s0)
	j	.LBB5_10
.Ltmp58:
.LBB5_10:                               # %if.end15
	.loc	2 450 2 is_stmt 1               # C:/Vega/rv32m1_sdk_riscv/rtos/freertos_9.0.0/Source/timers.c:450:2
	j	.LBB5_12
.Ltmp59:
.LBB5_11:                               # %if.else16
	.loc	2 0 2 is_stmt 0                 # C:/Vega/rv32m1_sdk_riscv/rtos/freertos_9.0.0/Source/timers.c:0:2
	j	.LBB5_12
.LBB5_12:                               # %if.end17
	.loc	2 456 9 is_stmt 1               # C:/Vega/rv32m1_sdk_riscv/rtos/freertos_9.0.0/Source/timers.c:456:9
	lw	a0, -32(s0)
	.loc	2 456 2 is_stmt 0               # C:/Vega/rv32m1_sdk_riscv/rtos/freertos_9.0.0/Source/timers.c:456:2
	lw	s0, 56(sp)
	lw	ra, 60(sp)
	addi	sp, sp, 64
	ret
.Ltmp60:
.Lfunc_end5:
	.size	xTimerGenericCommand, .Lfunc_end5-xTimerGenericCommand
	.cfi_endproc
                                        # -- End function
	.section	.text.xTimerGetTimerDaemonTaskHandle,"ax",@progbits
	.globl	xTimerGetTimerDaemonTaskHandle  # -- Begin function xTimerGetTimerDaemonTaskHandle
	.p2align	2
	.type	xTimerGetTimerDaemonTaskHandle,@function
xTimerGetTimerDaemonTaskHandle:         # @xTimerGetTimerDaemonTaskHandle
.Lfunc_begin6:
	.loc	2 461 0 is_stmt 1               # C:/Vega/rv32m1_sdk_riscv/rtos/freertos_9.0.0/Source/timers.c:461:0
	.cfi_startproc
# %bb.0:                                # %entry
	addi	sp, sp, -16
	.cfi_def_cfa_offset 16
.Ltmp61:
	.loc	2 464 9 prologue_end            # C:/Vega/rv32m1_sdk_riscv/rtos/freertos_9.0.0/Source/timers.c:464:9
	sw	ra, 12(sp)
	sw	s0, 8(sp)
	.cfi_offset ra, -4
	.cfi_offset s0, -8
	addi	s0, sp, 16
	.cfi_def_cfa s0, 0
	lui	a0, %hi(xTimerTaskHandle)
	lw	a0, %lo(xTimerTaskHandle)(a0)
	mv	a1, zero
.Ltmp62:
	.loc	2 464 5 is_stmt 0               # C:/Vega/rv32m1_sdk_riscv/rtos/freertos_9.0.0/Source/timers.c:464:5
	bne	a0, a1, .LBB6_3
	j	.LBB6_1
.LBB6_1:                                # %if.then
.Ltmp63:
	.loc	2 464 50                        # C:/Vega/rv32m1_sdk_riscv/rtos/freertos_9.0.0/Source/timers.c:464:50
	call	vPortSetInterruptMask
	.loc	2 464 75                        # C:/Vega/rv32m1_sdk_riscv/rtos/freertos_9.0.0/Source/timers.c:464:75
	j	.LBB6_2
.LBB6_2:                                # %for.cond
                                        # =>This Inner Loop Header: Depth=1
.Ltmp64:
	.loc	2 464 75                        # C:/Vega/rv32m1_sdk_riscv/rtos/freertos_9.0.0/Source/timers.c:464:75
	j	.LBB6_2
.Ltmp65:
.LBB6_3:                                # %if.end
	.loc	2 465 9 is_stmt 1               # C:/Vega/rv32m1_sdk_riscv/rtos/freertos_9.0.0/Source/timers.c:465:9
	lui	a0, %hi(xTimerTaskHandle)
	lw	a0, %lo(xTimerTaskHandle)(a0)
	.loc	2 465 2 is_stmt 0               # C:/Vega/rv32m1_sdk_riscv/rtos/freertos_9.0.0/Source/timers.c:465:2
	lw	s0, 8(sp)
	lw	ra, 12(sp)
	addi	sp, sp, 16
	ret
.Ltmp66:
.Lfunc_end6:
	.size	xTimerGetTimerDaemonTaskHandle, .Lfunc_end6-xTimerGetTimerDaemonTaskHandle
	.cfi_endproc
                                        # -- End function
	.section	.text.xTimerGetPeriod,"ax",@progbits
	.globl	xTimerGetPeriod                 # -- Begin function xTimerGetPeriod
	.p2align	2
	.type	xTimerGetPeriod,@function
xTimerGetPeriod:                        # @xTimerGetPeriod
.Lfunc_begin7:
	.loc	2 470 0 is_stmt 1               # C:/Vega/rv32m1_sdk_riscv/rtos/freertos_9.0.0/Source/timers.c:470:0
	.cfi_startproc
# %bb.0:                                # %entry
	addi	sp, sp, -16
	.cfi_def_cfa_offset 16
	sw	ra, 12(sp)
	sw	s0, 8(sp)
	.cfi_offset ra, -4
	.cfi_offset s0, -8
	addi	s0, sp, 16
	.cfi_def_cfa s0, 0
	sw	a0, -12(s0)
.Ltmp67:
	.loc	2 471 34 prologue_end           # C:/Vega/rv32m1_sdk_riscv/rtos/freertos_9.0.0/Source/timers.c:471:34
	lw	a0, -12(s0)
	.loc	2 471 10 is_stmt 0              # C:/Vega/rv32m1_sdk_riscv/rtos/freertos_9.0.0/Source/timers.c:471:10
	sw	a0, -16(s0)
.Ltmp68:
	.loc	2 473 7 is_stmt 1               # C:/Vega/rv32m1_sdk_riscv/rtos/freertos_9.0.0/Source/timers.c:473:7
	lw	a0, -12(s0)
	mv	a1, zero
.Ltmp69:
	.loc	2 473 5 is_stmt 0               # C:/Vega/rv32m1_sdk_riscv/rtos/freertos_9.0.0/Source/timers.c:473:5
	bne	a0, a1, .LBB7_3
	j	.LBB7_1
.LBB7_1:                                # %if.then
.Ltmp70:
	.loc	2 473 22                        # C:/Vega/rv32m1_sdk_riscv/rtos/freertos_9.0.0/Source/timers.c:473:22
	call	vPortSetInterruptMask
	.loc	2 473 47                        # C:/Vega/rv32m1_sdk_riscv/rtos/freertos_9.0.0/Source/timers.c:473:47
	j	.LBB7_2
.LBB7_2:                                # %for.cond
                                        # =>This Inner Loop Header: Depth=1
.Ltmp71:
	.loc	2 473 47                        # C:/Vega/rv32m1_sdk_riscv/rtos/freertos_9.0.0/Source/timers.c:473:47
	j	.LBB7_2
.Ltmp72:
.LBB7_3:                                # %if.end
	.loc	2 474 9 is_stmt 1               # C:/Vega/rv32m1_sdk_riscv/rtos/freertos_9.0.0/Source/timers.c:474:9
	lw	a0, -16(s0)
	.loc	2 474 18 is_stmt 0              # C:/Vega/rv32m1_sdk_riscv/rtos/freertos_9.0.0/Source/timers.c:474:18
	lw	a0, 24(a0)
	.loc	2 474 2                         # C:/Vega/rv32m1_sdk_riscv/rtos/freertos_9.0.0/Source/timers.c:474:2
	lw	s0, 8(sp)
	lw	ra, 12(sp)
	addi	sp, sp, 16
	ret
.Ltmp73:
.Lfunc_end7:
	.size	xTimerGetPeriod, .Lfunc_end7-xTimerGetPeriod
	.cfi_endproc
                                        # -- End function
	.section	.text.xTimerGetExpiryTime,"ax",@progbits
	.globl	xTimerGetExpiryTime             # -- Begin function xTimerGetExpiryTime
	.p2align	2
	.type	xTimerGetExpiryTime,@function
xTimerGetExpiryTime:                    # @xTimerGetExpiryTime
.Lfunc_begin8:
	.loc	2 479 0 is_stmt 1               # C:/Vega/rv32m1_sdk_riscv/rtos/freertos_9.0.0/Source/timers.c:479:0
	.cfi_startproc
# %bb.0:                                # %entry
	addi	sp, sp, -32
	.cfi_def_cfa_offset 32
	sw	ra, 28(sp)
	sw	s0, 24(sp)
	.cfi_offset ra, -4
	.cfi_offset s0, -8
	addi	s0, sp, 32
	.cfi_def_cfa s0, 0
	sw	a0, -12(s0)
.Ltmp74:
	.loc	2 480 35 prologue_end           # C:/Vega/rv32m1_sdk_riscv/rtos/freertos_9.0.0/Source/timers.c:480:35
	lw	a0, -12(s0)
	.loc	2 480 11 is_stmt 0              # C:/Vega/rv32m1_sdk_riscv/rtos/freertos_9.0.0/Source/timers.c:480:11
	sw	a0, -16(s0)
.Ltmp75:
	.loc	2 483 7 is_stmt 1               # C:/Vega/rv32m1_sdk_riscv/rtos/freertos_9.0.0/Source/timers.c:483:7
	lw	a0, -12(s0)
	mv	a1, zero
.Ltmp76:
	.loc	2 483 5 is_stmt 0               # C:/Vega/rv32m1_sdk_riscv/rtos/freertos_9.0.0/Source/timers.c:483:5
	bne	a0, a1, .LBB8_3
	j	.LBB8_1
.LBB8_1:                                # %if.then
.Ltmp77:
	.loc	2 483 22                        # C:/Vega/rv32m1_sdk_riscv/rtos/freertos_9.0.0/Source/timers.c:483:22
	call	vPortSetInterruptMask
	.loc	2 483 47                        # C:/Vega/rv32m1_sdk_riscv/rtos/freertos_9.0.0/Source/timers.c:483:47
	j	.LBB8_2
.LBB8_2:                                # %for.cond
                                        # =>This Inner Loop Header: Depth=1
.Ltmp78:
	.loc	2 483 47                        # C:/Vega/rv32m1_sdk_riscv/rtos/freertos_9.0.0/Source/timers.c:483:47
	j	.LBB8_2
.Ltmp79:
.LBB8_3:                                # %if.end
	.loc	2 484 19 is_stmt 1              # C:/Vega/rv32m1_sdk_riscv/rtos/freertos_9.0.0/Source/timers.c:484:19
	lw	a0, -16(s0)
	.loc	2 484 48 is_stmt 0              # C:/Vega/rv32m1_sdk_riscv/rtos/freertos_9.0.0/Source/timers.c:484:48
	lw	a0, 4(a0)
	.loc	2 484 10                        # C:/Vega/rv32m1_sdk_riscv/rtos/freertos_9.0.0/Source/timers.c:484:10
	sw	a0, -20(s0)
	.loc	2 485 9 is_stmt 1               # C:/Vega/rv32m1_sdk_riscv/rtos/freertos_9.0.0/Source/timers.c:485:9
	lw	a0, -20(s0)
	.loc	2 485 2 is_stmt 0               # C:/Vega/rv32m1_sdk_riscv/rtos/freertos_9.0.0/Source/timers.c:485:2
	lw	s0, 24(sp)
	lw	ra, 28(sp)
	addi	sp, sp, 32
	ret
.Ltmp80:
.Lfunc_end8:
	.size	xTimerGetExpiryTime, .Lfunc_end8-xTimerGetExpiryTime
	.cfi_endproc
                                        # -- End function
	.section	.text.pcTimerGetName,"ax",@progbits
	.globl	pcTimerGetName                  # -- Begin function pcTimerGetName
	.p2align	2
	.type	pcTimerGetName,@function
pcTimerGetName:                         # @pcTimerGetName
.Lfunc_begin9:
	.loc	2 490 0 is_stmt 1               # C:/Vega/rv32m1_sdk_riscv/rtos/freertos_9.0.0/Source/timers.c:490:0
	.cfi_startproc
# %bb.0:                                # %entry
	addi	sp, sp, -16
	.cfi_def_cfa_offset 16
	sw	ra, 12(sp)
	sw	s0, 8(sp)
	.cfi_offset ra, -4
	.cfi_offset s0, -8
	addi	s0, sp, 16
	.cfi_def_cfa s0, 0
	sw	a0, -12(s0)
.Ltmp81:
	.loc	2 491 34 prologue_end           # C:/Vega/rv32m1_sdk_riscv/rtos/freertos_9.0.0/Source/timers.c:491:34
	lw	a0, -12(s0)
	.loc	2 491 10 is_stmt 0              # C:/Vega/rv32m1_sdk_riscv/rtos/freertos_9.0.0/Source/timers.c:491:10
	sw	a0, -16(s0)
.Ltmp82:
	.loc	2 493 7 is_stmt 1               # C:/Vega/rv32m1_sdk_riscv/rtos/freertos_9.0.0/Source/timers.c:493:7
	lw	a0, -12(s0)
	mv	a1, zero
.Ltmp83:
	.loc	2 493 5 is_stmt 0               # C:/Vega/rv32m1_sdk_riscv/rtos/freertos_9.0.0/Source/timers.c:493:5
	bne	a0, a1, .LBB9_3
	j	.LBB9_1
.LBB9_1:                                # %if.then
.Ltmp84:
	.loc	2 493 22                        # C:/Vega/rv32m1_sdk_riscv/rtos/freertos_9.0.0/Source/timers.c:493:22
	call	vPortSetInterruptMask
	.loc	2 493 47                        # C:/Vega/rv32m1_sdk_riscv/rtos/freertos_9.0.0/Source/timers.c:493:47
	j	.LBB9_2
.LBB9_2:                                # %for.cond
                                        # =>This Inner Loop Header: Depth=1
.Ltmp85:
	.loc	2 493 47                        # C:/Vega/rv32m1_sdk_riscv/rtos/freertos_9.0.0/Source/timers.c:493:47
	j	.LBB9_2
.Ltmp86:
.LBB9_3:                                # %if.end
	.loc	2 494 9 is_stmt 1               # C:/Vega/rv32m1_sdk_riscv/rtos/freertos_9.0.0/Source/timers.c:494:9
	lw	a0, -16(s0)
	.loc	2 494 18 is_stmt 0              # C:/Vega/rv32m1_sdk_riscv/rtos/freertos_9.0.0/Source/timers.c:494:18
	lw	a0, 0(a0)
	.loc	2 494 2                         # C:/Vega/rv32m1_sdk_riscv/rtos/freertos_9.0.0/Source/timers.c:494:2
	lw	s0, 8(sp)
	lw	ra, 12(sp)
	addi	sp, sp, 16
	ret
.Ltmp87:
.Lfunc_end9:
	.size	pcTimerGetName, .Lfunc_end9-pcTimerGetName
	.cfi_endproc
                                        # -- End function
	.section	.text.xTimerIsTimerActive,"ax",@progbits
	.globl	xTimerIsTimerActive             # -- Begin function xTimerIsTimerActive
	.p2align	2
	.type	xTimerIsTimerActive,@function
xTimerIsTimerActive:                    # @xTimerIsTimerActive
.Lfunc_begin10:
	.loc	2 982 0 is_stmt 1               # C:/Vega/rv32m1_sdk_riscv/rtos/freertos_9.0.0/Source/timers.c:982:0
	.cfi_startproc
# %bb.0:                                # %entry
	addi	sp, sp, -32
	.cfi_def_cfa_offset 32
	sw	ra, 28(sp)
	sw	s0, 24(sp)
	.cfi_offset ra, -4
	.cfi_offset s0, -8
	addi	s0, sp, 32
	.cfi_def_cfa s0, 0
	sw	a0, -12(s0)
.Ltmp88:
	.loc	2 984 34 prologue_end           # C:/Vega/rv32m1_sdk_riscv/rtos/freertos_9.0.0/Source/timers.c:984:34
	lw	a0, -12(s0)
	.loc	2 984 10 is_stmt 0              # C:/Vega/rv32m1_sdk_riscv/rtos/freertos_9.0.0/Source/timers.c:984:10
	sw	a0, -20(s0)
.Ltmp89:
	.loc	2 986 7 is_stmt 1               # C:/Vega/rv32m1_sdk_riscv/rtos/freertos_9.0.0/Source/timers.c:986:7
	lw	a0, -12(s0)
	mv	a1, zero
.Ltmp90:
	.loc	2 986 5 is_stmt 0               # C:/Vega/rv32m1_sdk_riscv/rtos/freertos_9.0.0/Source/timers.c:986:5
	bne	a0, a1, .LBB10_3
	j	.LBB10_1
.LBB10_1:                               # %if.then
.Ltmp91:
	.loc	2 986 22                        # C:/Vega/rv32m1_sdk_riscv/rtos/freertos_9.0.0/Source/timers.c:986:22
	call	vPortSetInterruptMask
	.loc	2 986 47                        # C:/Vega/rv32m1_sdk_riscv/rtos/freertos_9.0.0/Source/timers.c:986:47
	j	.LBB10_2
.LBB10_2:                               # %for.cond
                                        # =>This Inner Loop Header: Depth=1
.Ltmp92:
	.loc	2 986 47                        # C:/Vega/rv32m1_sdk_riscv/rtos/freertos_9.0.0/Source/timers.c:986:47
	j	.LBB10_2
.Ltmp93:
.LBB10_3:                               # %if.end
	.loc	2 989 2 is_stmt 1               # C:/Vega/rv32m1_sdk_riscv/rtos/freertos_9.0.0/Source/timers.c:989:2
	call	vPortEnterCritical
.Ltmp94:
	.loc	2 994 68                        # C:/Vega/rv32m1_sdk_riscv/rtos/freertos_9.0.0/Source/timers.c:994:68
	lw	a0, -20(s0)
	.loc	2 994 97 is_stmt 0              # C:/Vega/rv32m1_sdk_riscv/rtos/freertos_9.0.0/Source/timers.c:994:97
	lw	a0, 20(a0)
	.loc	2 994 109                       # C:/Vega/rv32m1_sdk_riscv/rtos/freertos_9.0.0/Source/timers.c:994:109
	snez	a0, a0
	.loc	2 994 24                        # C:/Vega/rv32m1_sdk_riscv/rtos/freertos_9.0.0/Source/timers.c:994:24
	sw	a0, -16(s0)
.Ltmp95:
	.loc	2 996 2 is_stmt 1               # C:/Vega/rv32m1_sdk_riscv/rtos/freertos_9.0.0/Source/timers.c:996:2
	call	vPortExitCritical
	.loc	2 998 9                         # C:/Vega/rv32m1_sdk_riscv/rtos/freertos_9.0.0/Source/timers.c:998:9
	lw	a0, -16(s0)
	.loc	2 998 2 is_stmt 0               # C:/Vega/rv32m1_sdk_riscv/rtos/freertos_9.0.0/Source/timers.c:998:2
	lw	s0, 24(sp)
	lw	ra, 28(sp)
	addi	sp, sp, 32
	ret
.Ltmp96:
.Lfunc_end10:
	.size	xTimerIsTimerActive, .Lfunc_end10-xTimerIsTimerActive
	.cfi_endproc
                                        # -- End function
	.section	.text.pvTimerGetTimerID,"ax",@progbits
	.globl	pvTimerGetTimerID               # -- Begin function pvTimerGetTimerID
	.p2align	2
	.type	pvTimerGetTimerID,@function
pvTimerGetTimerID:                      # @pvTimerGetTimerID
.Lfunc_begin11:
	.loc	2 1003 0 is_stmt 1              # C:/Vega/rv32m1_sdk_riscv/rtos/freertos_9.0.0/Source/timers.c:1003:0
	.cfi_startproc
# %bb.0:                                # %entry
	addi	sp, sp, -32
	.cfi_def_cfa_offset 32
	sw	ra, 28(sp)
	sw	s0, 24(sp)
	.cfi_offset ra, -4
	.cfi_offset s0, -8
	addi	s0, sp, 32
	.cfi_def_cfa s0, 0
	sw	a0, -12(s0)
.Ltmp97:
	.loc	2 1004 41 prologue_end          # C:/Vega/rv32m1_sdk_riscv/rtos/freertos_9.0.0/Source/timers.c:1004:41
	lw	a0, -12(s0)
	.loc	2 1004 17 is_stmt 0             # C:/Vega/rv32m1_sdk_riscv/rtos/freertos_9.0.0/Source/timers.c:1004:17
	sw	a0, -16(s0)
.Ltmp98:
	.loc	2 1007 7 is_stmt 1              # C:/Vega/rv32m1_sdk_riscv/rtos/freertos_9.0.0/Source/timers.c:1007:7
	lw	a0, -12(s0)
	mv	a1, zero
.Ltmp99:
	.loc	2 1007 5 is_stmt 0              # C:/Vega/rv32m1_sdk_riscv/rtos/freertos_9.0.0/Source/timers.c:1007:5
	bne	a0, a1, .LBB11_3
	j	.LBB11_1
.LBB11_1:                               # %if.then
.Ltmp100:
	.loc	2 1007 22                       # C:/Vega/rv32m1_sdk_riscv/rtos/freertos_9.0.0/Source/timers.c:1007:22
	call	vPortSetInterruptMask
	.loc	2 1007 47                       # C:/Vega/rv32m1_sdk_riscv/rtos/freertos_9.0.0/Source/timers.c:1007:47
	j	.LBB11_2
.LBB11_2:                               # %for.cond
                                        # =>This Inner Loop Header: Depth=1
.Ltmp101:
	.loc	2 1007 47                       # C:/Vega/rv32m1_sdk_riscv/rtos/freertos_9.0.0/Source/timers.c:1007:47
	j	.LBB11_2
.Ltmp102:
.LBB11_3:                               # %if.end
	.loc	2 1009 2 is_stmt 1              # C:/Vega/rv32m1_sdk_riscv/rtos/freertos_9.0.0/Source/timers.c:1009:2
	call	vPortEnterCritical
.Ltmp103:
	.loc	2 1011 14                       # C:/Vega/rv32m1_sdk_riscv/rtos/freertos_9.0.0/Source/timers.c:1011:14
	lw	a0, -16(s0)
	.loc	2 1011 23 is_stmt 0             # C:/Vega/rv32m1_sdk_riscv/rtos/freertos_9.0.0/Source/timers.c:1011:23
	lw	a0, 32(a0)
	.loc	2 1011 12                       # C:/Vega/rv32m1_sdk_riscv/rtos/freertos_9.0.0/Source/timers.c:1011:12
	sw	a0, -20(s0)
.Ltmp104:
	.loc	2 1013 2 is_stmt 1              # C:/Vega/rv32m1_sdk_riscv/rtos/freertos_9.0.0/Source/timers.c:1013:2
	call	vPortExitCritical
	.loc	2 1015 9                        # C:/Vega/rv32m1_sdk_riscv/rtos/freertos_9.0.0/Source/timers.c:1015:9
	lw	a0, -20(s0)
	.loc	2 1015 2 is_stmt 0              # C:/Vega/rv32m1_sdk_riscv/rtos/freertos_9.0.0/Source/timers.c:1015:2
	lw	s0, 24(sp)
	lw	ra, 28(sp)
	addi	sp, sp, 32
	ret
.Ltmp105:
.Lfunc_end11:
	.size	pvTimerGetTimerID, .Lfunc_end11-pvTimerGetTimerID
	.cfi_endproc
                                        # -- End function
	.section	.text.vTimerSetTimerID,"ax",@progbits
	.globl	vTimerSetTimerID                # -- Begin function vTimerSetTimerID
	.p2align	2
	.type	vTimerSetTimerID,@function
vTimerSetTimerID:                       # @vTimerSetTimerID
.Lfunc_begin12:
	.loc	2 1020 0 is_stmt 1              # C:/Vega/rv32m1_sdk_riscv/rtos/freertos_9.0.0/Source/timers.c:1020:0
	.cfi_startproc
# %bb.0:                                # %entry
	addi	sp, sp, -32
	.cfi_def_cfa_offset 32
	sw	ra, 28(sp)
	sw	s0, 24(sp)
	.cfi_offset ra, -4
	.cfi_offset s0, -8
	addi	s0, sp, 32
	.cfi_def_cfa s0, 0
	sw	a0, -12(s0)
	sw	a1, -16(s0)
.Ltmp106:
	.loc	2 1021 41 prologue_end          # C:/Vega/rv32m1_sdk_riscv/rtos/freertos_9.0.0/Source/timers.c:1021:41
	lw	a0, -12(s0)
	.loc	2 1021 17 is_stmt 0             # C:/Vega/rv32m1_sdk_riscv/rtos/freertos_9.0.0/Source/timers.c:1021:17
	sw	a0, -20(s0)
.Ltmp107:
	.loc	2 1023 7 is_stmt 1              # C:/Vega/rv32m1_sdk_riscv/rtos/freertos_9.0.0/Source/timers.c:1023:7
	lw	a0, -12(s0)
	mv	a1, zero
.Ltmp108:
	.loc	2 1023 5 is_stmt 0              # C:/Vega/rv32m1_sdk_riscv/rtos/freertos_9.0.0/Source/timers.c:1023:5
	bne	a0, a1, .LBB12_3
	j	.LBB12_1
.LBB12_1:                               # %if.then
.Ltmp109:
	.loc	2 1023 22                       # C:/Vega/rv32m1_sdk_riscv/rtos/freertos_9.0.0/Source/timers.c:1023:22
	call	vPortSetInterruptMask
	.loc	2 1023 47                       # C:/Vega/rv32m1_sdk_riscv/rtos/freertos_9.0.0/Source/timers.c:1023:47
	j	.LBB12_2
.LBB12_2:                               # %for.cond
                                        # =>This Inner Loop Header: Depth=1
.Ltmp110:
	.loc	2 1023 47                       # C:/Vega/rv32m1_sdk_riscv/rtos/freertos_9.0.0/Source/timers.c:1023:47
	j	.LBB12_2
.Ltmp111:
.LBB12_3:                               # %if.end
	.loc	2 1025 2 is_stmt 1              # C:/Vega/rv32m1_sdk_riscv/rtos/freertos_9.0.0/Source/timers.c:1025:2
	call	vPortEnterCritical
.Ltmp112:
	.loc	2 1027 24                       # C:/Vega/rv32m1_sdk_riscv/rtos/freertos_9.0.0/Source/timers.c:1027:24
	lw	a0, -16(s0)
	.loc	2 1027 3 is_stmt 0              # C:/Vega/rv32m1_sdk_riscv/rtos/freertos_9.0.0/Source/timers.c:1027:3
	lw	a1, -20(s0)
	.loc	2 1027 22                       # C:/Vega/rv32m1_sdk_riscv/rtos/freertos_9.0.0/Source/timers.c:1027:22
	sw	a0, 32(a1)
.Ltmp113:
	.loc	2 1029 2 is_stmt 1              # C:/Vega/rv32m1_sdk_riscv/rtos/freertos_9.0.0/Source/timers.c:1029:2
	call	vPortExitCritical
	.loc	2 1030 1                        # C:/Vega/rv32m1_sdk_riscv/rtos/freertos_9.0.0/Source/timers.c:1030:1
	lw	s0, 24(sp)
	lw	ra, 28(sp)
	addi	sp, sp, 32
	ret
.Ltmp114:
.Lfunc_end12:
	.size	vTimerSetTimerID, .Lfunc_end12-vTimerSetTimerID
	.cfi_endproc
                                        # -- End function
	.section	.text.xTimerPendFunctionCallFromISR,"ax",@progbits
	.globl	xTimerPendFunctionCallFromISR   # -- Begin function xTimerPendFunctionCallFromISR
	.p2align	2
	.type	xTimerPendFunctionCallFromISR,@function
xTimerPendFunctionCallFromISR:          # @xTimerPendFunctionCallFromISR
.Lfunc_begin13:
	.loc	2 1036 0                        # C:/Vega/rv32m1_sdk_riscv/rtos/freertos_9.0.0/Source/timers.c:1036:0
	.cfi_startproc
# %bb.0:                                # %entry
	addi	sp, sp, -48
	.cfi_def_cfa_offset 48
	sw	ra, 44(sp)
	sw	s0, 40(sp)
	.cfi_offset ra, -4
	.cfi_offset s0, -8
	addi	s0, sp, 48
	.cfi_def_cfa s0, 0
	sw	a0, -12(s0)
	sw	a1, -16(s0)
	sw	a2, -20(s0)
	sw	a3, -24(s0)
	addi	a0, zero, -2
.Ltmp115:
	.loc	2 1042 23 prologue_end          # C:/Vega/rv32m1_sdk_riscv/rtos/freertos_9.0.0/Source/timers.c:1042:23
	sw	a0, -40(s0)
	.loc	2 1043 55                       # C:/Vega/rv32m1_sdk_riscv/rtos/freertos_9.0.0/Source/timers.c:1043:55
	lw	a0, -12(s0)
	.loc	2 1043 53 is_stmt 0             # C:/Vega/rv32m1_sdk_riscv/rtos/freertos_9.0.0/Source/timers.c:1043:53
	sw	a0, -36(s0)
	.loc	2 1044 49 is_stmt 1             # C:/Vega/rv32m1_sdk_riscv/rtos/freertos_9.0.0/Source/timers.c:1044:49
	lw	a0, -16(s0)
	.loc	2 1044 47 is_stmt 0             # C:/Vega/rv32m1_sdk_riscv/rtos/freertos_9.0.0/Source/timers.c:1044:47
	sw	a0, -32(s0)
	.loc	2 1045 49 is_stmt 1             # C:/Vega/rv32m1_sdk_riscv/rtos/freertos_9.0.0/Source/timers.c:1045:49
	lw	a0, -20(s0)
	.loc	2 1045 47 is_stmt 0             # C:/Vega/rv32m1_sdk_riscv/rtos/freertos_9.0.0/Source/timers.c:1045:47
	sw	a0, -28(s0)
	.loc	2 1047 41 is_stmt 1             # C:/Vega/rv32m1_sdk_riscv/rtos/freertos_9.0.0/Source/timers.c:1047:41
	lui	a0, %hi(xTimerQueue)
	lw	a0, %lo(xTimerQueue)(a0)
	.loc	2 1047 73 is_stmt 0             # C:/Vega/rv32m1_sdk_riscv/rtos/freertos_9.0.0/Source/timers.c:1047:73
	lw	a2, -24(s0)
	addi	a1, s0, -40
	mv	a3, zero
	.loc	2 1047 13                       # C:/Vega/rv32m1_sdk_riscv/rtos/freertos_9.0.0/Source/timers.c:1047:13
	call	xQueueGenericSendFromISR
	.loc	2 1047 11                       # C:/Vega/rv32m1_sdk_riscv/rtos/freertos_9.0.0/Source/timers.c:1047:11
	sw	a0, -44(s0)
	.loc	2 1051 10 is_stmt 1             # C:/Vega/rv32m1_sdk_riscv/rtos/freertos_9.0.0/Source/timers.c:1051:10
	lw	a0, -44(s0)
	.loc	2 1051 3 is_stmt 0              # C:/Vega/rv32m1_sdk_riscv/rtos/freertos_9.0.0/Source/timers.c:1051:3
	lw	s0, 40(sp)
	lw	ra, 44(sp)
	addi	sp, sp, 48
	ret
.Ltmp116:
.Lfunc_end13:
	.size	xTimerPendFunctionCallFromISR, .Lfunc_end13-xTimerPendFunctionCallFromISR
	.cfi_endproc
                                        # -- End function
	.section	.text.xTimerPendFunctionCall,"ax",@progbits
	.globl	xTimerPendFunctionCall          # -- Begin function xTimerPendFunctionCall
	.p2align	2
	.type	xTimerPendFunctionCall,@function
xTimerPendFunctionCall:                 # @xTimerPendFunctionCall
.Lfunc_begin14:
	.loc	2 1060 0 is_stmt 1              # C:/Vega/rv32m1_sdk_riscv/rtos/freertos_9.0.0/Source/timers.c:1060:0
	.cfi_startproc
# %bb.0:                                # %entry
	addi	sp, sp, -48
	.cfi_def_cfa_offset 48
	sw	ra, 44(sp)
	sw	s0, 40(sp)
	.cfi_offset ra, -4
	.cfi_offset s0, -8
	addi	s0, sp, 48
	.cfi_def_cfa s0, 0
	sw	a0, -12(s0)
	sw	a1, -16(s0)
	sw	a2, -20(s0)
	sw	a3, -24(s0)
.Ltmp117:
	.loc	2 1067 8 prologue_end           # C:/Vega/rv32m1_sdk_riscv/rtos/freertos_9.0.0/Source/timers.c:1067:8
	lui	a0, %hi(xTimerQueue)
	lw	a0, %lo(xTimerQueue)(a0)
	mv	a1, zero
.Ltmp118:
	.loc	2 1067 6 is_stmt 0              # C:/Vega/rv32m1_sdk_riscv/rtos/freertos_9.0.0/Source/timers.c:1067:6
	bne	a0, a1, .LBB14_3
	j	.LBB14_1
.LBB14_1:                               # %if.then
.Ltmp119:
	.loc	2 1067 28                       # C:/Vega/rv32m1_sdk_riscv/rtos/freertos_9.0.0/Source/timers.c:1067:28
	call	vPortSetInterruptMask
	.loc	2 1067 53                       # C:/Vega/rv32m1_sdk_riscv/rtos/freertos_9.0.0/Source/timers.c:1067:53
	j	.LBB14_2
.LBB14_2:                               # %for.cond
                                        # =>This Inner Loop Header: Depth=1
.Ltmp120:
	.loc	2 1067 53                       # C:/Vega/rv32m1_sdk_riscv/rtos/freertos_9.0.0/Source/timers.c:1067:53
	j	.LBB14_2
.Ltmp121:
.LBB14_3:                               # %if.end
	.loc	2 0 53                          # C:/Vega/rv32m1_sdk_riscv/rtos/freertos_9.0.0/Source/timers.c:0:53
	addi	a0, zero, -1
	.loc	2 1071 23 is_stmt 1             # C:/Vega/rv32m1_sdk_riscv/rtos/freertos_9.0.0/Source/timers.c:1071:23
	sw	a0, -40(s0)
	.loc	2 1072 55                       # C:/Vega/rv32m1_sdk_riscv/rtos/freertos_9.0.0/Source/timers.c:1072:55
	lw	a0, -12(s0)
	.loc	2 1072 53 is_stmt 0             # C:/Vega/rv32m1_sdk_riscv/rtos/freertos_9.0.0/Source/timers.c:1072:53
	sw	a0, -36(s0)
	.loc	2 1073 49 is_stmt 1             # C:/Vega/rv32m1_sdk_riscv/rtos/freertos_9.0.0/Source/timers.c:1073:49
	lw	a0, -16(s0)
	.loc	2 1073 47 is_stmt 0             # C:/Vega/rv32m1_sdk_riscv/rtos/freertos_9.0.0/Source/timers.c:1073:47
	sw	a0, -32(s0)
	.loc	2 1074 49 is_stmt 1             # C:/Vega/rv32m1_sdk_riscv/rtos/freertos_9.0.0/Source/timers.c:1074:49
	lw	a0, -20(s0)
	.loc	2 1074 47 is_stmt 0             # C:/Vega/rv32m1_sdk_riscv/rtos/freertos_9.0.0/Source/timers.c:1074:47
	sw	a0, -28(s0)
	.loc	2 1076 34 is_stmt 1             # C:/Vega/rv32m1_sdk_riscv/rtos/freertos_9.0.0/Source/timers.c:1076:34
	lui	a0, %hi(xTimerQueue)
	lw	a0, %lo(xTimerQueue)(a0)
	.loc	2 1076 66 is_stmt 0             # C:/Vega/rv32m1_sdk_riscv/rtos/freertos_9.0.0/Source/timers.c:1076:66
	lw	a2, -24(s0)
	addi	a1, s0, -40
	mv	a3, zero
	.loc	2 1076 13                       # C:/Vega/rv32m1_sdk_riscv/rtos/freertos_9.0.0/Source/timers.c:1076:13
	call	xQueueGenericSend
	.loc	2 1076 11                       # C:/Vega/rv32m1_sdk_riscv/rtos/freertos_9.0.0/Source/timers.c:1076:11
	sw	a0, -44(s0)
	.loc	2 1080 10 is_stmt 1             # C:/Vega/rv32m1_sdk_riscv/rtos/freertos_9.0.0/Source/timers.c:1080:10
	lw	a0, -44(s0)
	.loc	2 1080 3 is_stmt 0              # C:/Vega/rv32m1_sdk_riscv/rtos/freertos_9.0.0/Source/timers.c:1080:3
	lw	s0, 40(sp)
	lw	ra, 44(sp)
	addi	sp, sp, 48
	ret
.Ltmp122:
.Lfunc_end14:
	.size	xTimerPendFunctionCall, .Lfunc_end14-xTimerPendFunctionCall
	.cfi_endproc
                                        # -- End function
	.section	.text.prvGetNextExpireTime,"ax",@progbits
	.p2align	2                               # -- Begin function prvGetNextExpireTime
	.type	prvGetNextExpireTime,@function
prvGetNextExpireTime:                   # @prvGetNextExpireTime
.Lfunc_begin15:
	.loc	2 635 0 is_stmt 1               # C:/Vega/rv32m1_sdk_riscv/rtos/freertos_9.0.0/Source/timers.c:635:0
	.cfi_startproc
# %bb.0:                                # %entry
	addi	sp, sp, -16
	.cfi_def_cfa_offset 16
	sw	ra, 12(sp)
	sw	s0, 8(sp)
	.cfi_offset ra, -4
	.cfi_offset s0, -8
	addi	s0, sp, 16
	.cfi_def_cfa s0, 0
	sw	a0, -12(s0)
.Ltmp123:
	.loc	2 645 41 prologue_end           # C:/Vega/rv32m1_sdk_riscv/rtos/freertos_9.0.0/Source/timers.c:645:41
	lui	a0, %hi(pxCurrentTimerList)
	lw	a0, %lo(pxCurrentTimerList)(a0)
	.loc	2 645 63 is_stmt 0              # C:/Vega/rv32m1_sdk_riscv/rtos/freertos_9.0.0/Source/timers.c:645:63
	lw	a0, 0(a0)
	.loc	2 645 79                        # C:/Vega/rv32m1_sdk_riscv/rtos/freertos_9.0.0/Source/timers.c:645:79
	seqz	a0, a0
	.loc	2 645 3                         # C:/Vega/rv32m1_sdk_riscv/rtos/freertos_9.0.0/Source/timers.c:645:3
	lw	a1, -12(s0)
	.loc	2 645 18                        # C:/Vega/rv32m1_sdk_riscv/rtos/freertos_9.0.0/Source/timers.c:645:18
	sw	a0, 0(a1)
.Ltmp124:
	.loc	2 646 7 is_stmt 1               # C:/Vega/rv32m1_sdk_riscv/rtos/freertos_9.0.0/Source/timers.c:646:7
	lw	a0, -12(s0)
	.loc	2 646 6 is_stmt 0               # C:/Vega/rv32m1_sdk_riscv/rtos/freertos_9.0.0/Source/timers.c:646:6
	lw	a0, 0(a0)
	mv	a1, zero
.Ltmp125:
	.loc	2 646 6                         # C:/Vega/rv32m1_sdk_riscv/rtos/freertos_9.0.0/Source/timers.c:646:6
	bne	a0, a1, .LBB15_2
	j	.LBB15_1
.LBB15_1:                               # %if.then
.Ltmp126:
	.loc	2 648 27 is_stmt 1              # C:/Vega/rv32m1_sdk_riscv/rtos/freertos_9.0.0/Source/timers.c:648:27
	lui	a0, %hi(pxCurrentTimerList)
	lw	a0, %lo(pxCurrentTimerList)(a0)
	.loc	2 648 60 is_stmt 0              # C:/Vega/rv32m1_sdk_riscv/rtos/freertos_9.0.0/Source/timers.c:648:60
	lw	a0, 12(a0)
	.loc	2 648 68                        # C:/Vega/rv32m1_sdk_riscv/rtos/freertos_9.0.0/Source/timers.c:648:68
	lw	a0, 0(a0)
	.loc	2 648 19                        # C:/Vega/rv32m1_sdk_riscv/rtos/freertos_9.0.0/Source/timers.c:648:19
	sw	a0, -16(s0)
	.loc	2 649 2 is_stmt 1               # C:/Vega/rv32m1_sdk_riscv/rtos/freertos_9.0.0/Source/timers.c:649:2
	j	.LBB15_3
.Ltmp127:
.LBB15_2:                               # %if.else
	.loc	2 0 2 is_stmt 0                 # C:/Vega/rv32m1_sdk_riscv/rtos/freertos_9.0.0/Source/timers.c:0:2
	mv	a0, zero
.Ltmp128:
	.loc	2 653 19 is_stmt 1              # C:/Vega/rv32m1_sdk_riscv/rtos/freertos_9.0.0/Source/timers.c:653:19
	sw	a0, -16(s0)
	j	.LBB15_3
.Ltmp129:
.LBB15_3:                               # %if.end
	.loc	2 656 9                         # C:/Vega/rv32m1_sdk_riscv/rtos/freertos_9.0.0/Source/timers.c:656:9
	lw	a0, -16(s0)
	.loc	2 656 2 is_stmt 0               # C:/Vega/rv32m1_sdk_riscv/rtos/freertos_9.0.0/Source/timers.c:656:2
	lw	s0, 8(sp)
	lw	ra, 12(sp)
	addi	sp, sp, 16
	ret
.Ltmp130:
.Lfunc_end15:
	.size	prvGetNextExpireTime, .Lfunc_end15-prvGetNextExpireTime
	.cfi_endproc
                                        # -- End function
	.section	.text.prvProcessTimerOrBlockTask,"ax",@progbits
	.p2align	2                               # -- Begin function prvProcessTimerOrBlockTask
	.type	prvProcessTimerOrBlockTask,@function
prvProcessTimerOrBlockTask:             # @prvProcessTimerOrBlockTask
.Lfunc_begin16:
	.loc	2 575 0 is_stmt 1               # C:/Vega/rv32m1_sdk_riscv/rtos/freertos_9.0.0/Source/timers.c:575:0
	.cfi_startproc
# %bb.0:                                # %entry
	addi	sp, sp, -32
	.cfi_def_cfa_offset 32
	sw	ra, 28(sp)
	sw	s0, 24(sp)
	.cfi_offset ra, -4
	.cfi_offset s0, -8
	addi	s0, sp, 32
	.cfi_def_cfa s0, 0
	sw	a0, -12(s0)
	sw	a1, -16(s0)
.Ltmp131:
	.loc	2 579 2 prologue_end            # C:/Vega/rv32m1_sdk_riscv/rtos/freertos_9.0.0/Source/timers.c:579:2
	call	vTaskSuspendAll
	addi	a0, s0, -24
.Ltmp132:
	.loc	2 586 14                        # C:/Vega/rv32m1_sdk_riscv/rtos/freertos_9.0.0/Source/timers.c:586:14
	call	prvSampleTimeNow
	.loc	2 586 12 is_stmt 0              # C:/Vega/rv32m1_sdk_riscv/rtos/freertos_9.0.0/Source/timers.c:586:12
	sw	a0, -20(s0)
.Ltmp133:
	.loc	2 587 7 is_stmt 1               # C:/Vega/rv32m1_sdk_riscv/rtos/freertos_9.0.0/Source/timers.c:587:7
	lw	a0, -24(s0)
	mv	a1, zero
.Ltmp134:
	.loc	2 587 7 is_stmt 0               # C:/Vega/rv32m1_sdk_riscv/rtos/freertos_9.0.0/Source/timers.c:587:7
	bne	a0, a1, .LBB16_11
	j	.LBB16_1
.LBB16_1:                               # %if.then
.Ltmp135:
	.loc	2 590 10 is_stmt 1              # C:/Vega/rv32m1_sdk_riscv/rtos/freertos_9.0.0/Source/timers.c:590:10
	lw	a0, -16(s0)
	mv	a1, zero
	.loc	2 590 50 is_stmt 0              # C:/Vega/rv32m1_sdk_riscv/rtos/freertos_9.0.0/Source/timers.c:590:50
	bne	a0, a1, .LBB16_4
	j	.LBB16_2
.LBB16_2:                               # %land.lhs.true
	.loc	2 590 55                        # C:/Vega/rv32m1_sdk_riscv/rtos/freertos_9.0.0/Source/timers.c:590:55
	lw	a0, -12(s0)
	.loc	2 590 74                        # C:/Vega/rv32m1_sdk_riscv/rtos/freertos_9.0.0/Source/timers.c:590:74
	lw	a1, -20(s0)
.Ltmp136:
	.loc	2 590 8                         # C:/Vega/rv32m1_sdk_riscv/rtos/freertos_9.0.0/Source/timers.c:590:8
	bltu	a1, a0, .LBB16_4
	j	.LBB16_3
.LBB16_3:                               # %if.then3
.Ltmp137:
	.loc	2 592 14 is_stmt 1              # C:/Vega/rv32m1_sdk_riscv/rtos/freertos_9.0.0/Source/timers.c:592:14
	call	xTaskResumeAll
	.loc	2 593 29                        # C:/Vega/rv32m1_sdk_riscv/rtos/freertos_9.0.0/Source/timers.c:593:29
	lw	a1, -12(s0)
	.loc	2 593 46 is_stmt 0              # C:/Vega/rv32m1_sdk_riscv/rtos/freertos_9.0.0/Source/timers.c:593:46
	lw	a2, -20(s0)
	.loc	2 593 5                         # C:/Vega/rv32m1_sdk_riscv/rtos/freertos_9.0.0/Source/timers.c:593:5
	sw	a0, -28(s0)
	mv	a0, a1
	mv	a1, a2
	call	prvProcessExpiredTimer
	.loc	2 594 4 is_stmt 1               # C:/Vega/rv32m1_sdk_riscv/rtos/freertos_9.0.0/Source/timers.c:594:4
	j	.LBB16_10
.Ltmp138:
.LBB16_4:                               # %if.else
	.loc	2 603 9                         # C:/Vega/rv32m1_sdk_riscv/rtos/freertos_9.0.0/Source/timers.c:603:9
	lw	a0, -16(s0)
	mv	a1, zero
.Ltmp139:
	.loc	2 603 9 is_stmt 0               # C:/Vega/rv32m1_sdk_riscv/rtos/freertos_9.0.0/Source/timers.c:603:9
	beq	a0, a1, .LBB16_6
	j	.LBB16_5
.LBB16_5:                               # %if.then6
.Ltmp140:
	.loc	2 607 43 is_stmt 1              # C:/Vega/rv32m1_sdk_riscv/rtos/freertos_9.0.0/Source/timers.c:607:43
	lui	a0, %hi(pxOverflowTimerList)
	lw	a0, %lo(pxOverflowTimerList)(a0)
	.loc	2 607 66 is_stmt 0              # C:/Vega/rv32m1_sdk_riscv/rtos/freertos_9.0.0/Source/timers.c:607:66
	lw	a0, 0(a0)
	.loc	2 607 82                        # C:/Vega/rv32m1_sdk_riscv/rtos/freertos_9.0.0/Source/timers.c:607:82
	seqz	a0, a0
	.loc	2 607 20                        # C:/Vega/rv32m1_sdk_riscv/rtos/freertos_9.0.0/Source/timers.c:607:20
	sw	a0, -16(s0)
	.loc	2 608 5 is_stmt 1               # C:/Vega/rv32m1_sdk_riscv/rtos/freertos_9.0.0/Source/timers.c:608:5
	j	.LBB16_6
.Ltmp141:
.LBB16_6:                               # %if.end
	.loc	2 610 37                        # C:/Vega/rv32m1_sdk_riscv/rtos/freertos_9.0.0/Source/timers.c:610:37
	lui	a0, %hi(xTimerQueue)
	lw	a0, %lo(xTimerQueue)(a0)
	.loc	2 610 52 is_stmt 0              # C:/Vega/rv32m1_sdk_riscv/rtos/freertos_9.0.0/Source/timers.c:610:52
	lw	a1, -12(s0)
	.loc	2 610 70                        # C:/Vega/rv32m1_sdk_riscv/rtos/freertos_9.0.0/Source/timers.c:610:70
	lw	a2, -20(s0)
	.loc	2 610 68                        # C:/Vega/rv32m1_sdk_riscv/rtos/freertos_9.0.0/Source/timers.c:610:68
	sub	a1, a1, a2
	.loc	2 610 82                        # C:/Vega/rv32m1_sdk_riscv/rtos/freertos_9.0.0/Source/timers.c:610:82
	lw	a2, -16(s0)
	.loc	2 610 5                         # C:/Vega/rv32m1_sdk_riscv/rtos/freertos_9.0.0/Source/timers.c:610:5
	call	vQueueWaitForMessageRestricted
.Ltmp142:
	.loc	2 612 9 is_stmt 1               # C:/Vega/rv32m1_sdk_riscv/rtos/freertos_9.0.0/Source/timers.c:612:9
	call	xTaskResumeAll
	mv	a1, zero
.Ltmp143:
	.loc	2 612 9 is_stmt 0               # C:/Vega/rv32m1_sdk_riscv/rtos/freertos_9.0.0/Source/timers.c:612:9
	bne	a0, a1, .LBB16_8
	j	.LBB16_7
.LBB16_7:                               # %if.then11
.Ltmp144:
	.loc	2 618 6 is_stmt 1               # C:/Vega/rv32m1_sdk_riscv/rtos/freertos_9.0.0/Source/timers.c:618:6
	call	portYIELD
	.loc	2 619 5                         # C:/Vega/rv32m1_sdk_riscv/rtos/freertos_9.0.0/Source/timers.c:619:5
	j	.LBB16_9
.Ltmp145:
.LBB16_8:                               # %if.else12
	.loc	2 0 5 is_stmt 0                 # C:/Vega/rv32m1_sdk_riscv/rtos/freertos_9.0.0/Source/timers.c:0:5
	j	.LBB16_9
.LBB16_9:                               # %if.end13
	j	.LBB16_10
.LBB16_10:                              # %if.end14
	.loc	2 625 3 is_stmt 1               # C:/Vega/rv32m1_sdk_riscv/rtos/freertos_9.0.0/Source/timers.c:625:3
	j	.LBB16_12
.Ltmp146:
.LBB16_11:                              # %if.else15
	.loc	2 628 13                        # C:/Vega/rv32m1_sdk_riscv/rtos/freertos_9.0.0/Source/timers.c:628:13
	call	xTaskResumeAll
	j	.LBB16_12
.Ltmp147:
.LBB16_12:                              # %if.end17
	.loc	2 631 1                         # C:/Vega/rv32m1_sdk_riscv/rtos/freertos_9.0.0/Source/timers.c:631:1
	lw	s0, 24(sp)
	lw	ra, 28(sp)
	addi	sp, sp, 32
	ret
.Ltmp148:
.Lfunc_end16:
	.size	prvProcessTimerOrBlockTask, .Lfunc_end16-prvProcessTimerOrBlockTask
	.cfi_endproc
                                        # -- End function
	.section	.text.prvProcessReceivedCommands,"ax",@progbits
	.p2align	2                               # -- Begin function prvProcessReceivedCommands
	.type	prvProcessReceivedCommands,@function
prvProcessReceivedCommands:             # @prvProcessReceivedCommands
.Lfunc_begin17:
	.loc	2 725 0                         # C:/Vega/rv32m1_sdk_riscv/rtos/freertos_9.0.0/Source/timers.c:725:0
	.cfi_startproc
# %bb.0:                                # %entry
	addi	sp, sp, -80
	.cfi_def_cfa_offset 80
.Ltmp149:
	.loc	2 731 2 prologue_end            # C:/Vega/rv32m1_sdk_riscv/rtos/freertos_9.0.0/Source/timers.c:731:2
	sw	ra, 76(sp)
	sw	s0, 72(sp)
	.cfi_offset ra, -4
	.cfi_offset s0, -8
	addi	s0, sp, 80
	.cfi_def_cfa s0, 0
	j	.LBB17_1
.LBB17_1:                               # %while.cond
                                        # =>This Inner Loop Header: Depth=1
	.loc	2 731 33 is_stmt 0              # C:/Vega/rv32m1_sdk_riscv/rtos/freertos_9.0.0/Source/timers.c:731:33
	lui	a0, %hi(xTimerQueue)
	lw	a0, %lo(xTimerQueue)(a0)
	addi	a1, s0, -24
	mv	a2, zero
	.loc	2 731 9                         # C:/Vega/rv32m1_sdk_riscv/rtos/freertos_9.0.0/Source/timers.c:731:9
	sw	a2, -48(s0)
	lw	a3, -48(s0)
	call	xQueueGenericReceive
	.loc	2 731 2                         # C:/Vega/rv32m1_sdk_riscv/rtos/freertos_9.0.0/Source/timers.c:731:2
	lw	a1, -48(s0)
	beq	a0, a1, .LBB17_38
	j	.LBB17_2
.LBB17_2:                               # %while.body
                                        #   in Loop: Header=BB17_1 Depth=1
.Ltmp150:
	.loc	2 737 17 is_stmt 1              # C:/Vega/rv32m1_sdk_riscv/rtos/freertos_9.0.0/Source/timers.c:737:17
	lw	a0, -24(s0)
	addi	a1, zero, -1
.Ltmp151:
	.loc	2 737 8 is_stmt 0               # C:/Vega/rv32m1_sdk_riscv/rtos/freertos_9.0.0/Source/timers.c:737:8
	blt	a1, a0, .LBB17_7
	j	.LBB17_3
.LBB17_3:                               # %if.then
                                        #   in Loop: Header=BB17_1 Depth=1
.Ltmp152:
	.loc	2 739 65 is_stmt 1              # C:/Vega/rv32m1_sdk_riscv/rtos/freertos_9.0.0/Source/timers.c:739:65
	addi	a0, s0, -20
	.loc	2 739 40 is_stmt 0              # C:/Vega/rv32m1_sdk_riscv/rtos/freertos_9.0.0/Source/timers.c:739:40
	sw	a0, -44(s0)
.Ltmp153:
	.loc	2 743 10 is_stmt 1              # C:/Vega/rv32m1_sdk_riscv/rtos/freertos_9.0.0/Source/timers.c:743:10
	lw	a0, -44(s0)
	mv	a1, zero
.Ltmp154:
	.loc	2 743 8 is_stmt 0               # C:/Vega/rv32m1_sdk_riscv/rtos/freertos_9.0.0/Source/timers.c:743:8
	bne	a0, a1, .LBB17_6
	j	.LBB17_4
.LBB17_4:                               # %if.then3
.Ltmp155:
	.loc	2 743 29                        # C:/Vega/rv32m1_sdk_riscv/rtos/freertos_9.0.0/Source/timers.c:743:29
	call	vPortSetInterruptMask
	.loc	2 743 54                        # C:/Vega/rv32m1_sdk_riscv/rtos/freertos_9.0.0/Source/timers.c:743:54
	j	.LBB17_5
.LBB17_5:                               # %for.cond
                                        # =>This Inner Loop Header: Depth=1
.Ltmp156:
	.loc	2 743 54                        # C:/Vega/rv32m1_sdk_riscv/rtos/freertos_9.0.0/Source/timers.c:743:54
	j	.LBB17_5
.Ltmp157:
.LBB17_6:                               # %if.end
                                        #   in Loop: Header=BB17_1 Depth=1
	.loc	2 746 5 is_stmt 1               # C:/Vega/rv32m1_sdk_riscv/rtos/freertos_9.0.0/Source/timers.c:746:5
	lw	a0, -44(s0)
	.loc	2 746 17 is_stmt 0              # C:/Vega/rv32m1_sdk_riscv/rtos/freertos_9.0.0/Source/timers.c:746:17
	lw	a1, 0(a0)
	.loc	2 746 49                        # C:/Vega/rv32m1_sdk_riscv/rtos/freertos_9.0.0/Source/timers.c:746:49
	lw	a2, 4(a0)
	.loc	2 746 75                        # C:/Vega/rv32m1_sdk_riscv/rtos/freertos_9.0.0/Source/timers.c:746:75
	lw	a0, 8(a0)
	.loc	2 746 5                         # C:/Vega/rv32m1_sdk_riscv/rtos/freertos_9.0.0/Source/timers.c:746:5
	sw	a0, -52(s0)
	mv	a0, a2
	lw	a2, -52(s0)
	sw	a1, -56(s0)
	mv	a1, a2
	lw	a3, -56(s0)
	jalr	a3
	.loc	2 747 4 is_stmt 1               # C:/Vega/rv32m1_sdk_riscv/rtos/freertos_9.0.0/Source/timers.c:747:4
	j	.LBB17_8
.Ltmp158:
.LBB17_7:                               # %if.else
                                        #   in Loop: Header=BB17_1 Depth=1
	.loc	2 0 4 is_stmt 0                 # C:/Vega/rv32m1_sdk_riscv/rtos/freertos_9.0.0/Source/timers.c:0:4
	j	.LBB17_8
.LBB17_8:                               # %if.end5
                                        #   in Loop: Header=BB17_1 Depth=1
.Ltmp159:
	.loc	2 757 16 is_stmt 1              # C:/Vega/rv32m1_sdk_riscv/rtos/freertos_9.0.0/Source/timers.c:757:16
	lw	a0, -24(s0)
	mv	a1, zero
.Ltmp160:
	.loc	2 757 7 is_stmt 0               # C:/Vega/rv32m1_sdk_riscv/rtos/freertos_9.0.0/Source/timers.c:757:7
	blt	a0, a1, .LBB17_37
	j	.LBB17_9
.LBB17_9:                               # %if.then8
                                        #   in Loop: Header=BB17_1 Depth=1
.Ltmp161:
	.loc	2 761 42 is_stmt 1              # C:/Vega/rv32m1_sdk_riscv/rtos/freertos_9.0.0/Source/timers.c:761:42
	lw	a0, -16(s0)
	.loc	2 761 12 is_stmt 0              # C:/Vega/rv32m1_sdk_riscv/rtos/freertos_9.0.0/Source/timers.c:761:12
	sw	a0, -28(s0)
.Ltmp162:
	.loc	2 763 32 is_stmt 1              # C:/Vega/rv32m1_sdk_riscv/rtos/freertos_9.0.0/Source/timers.c:763:32
	lw	a0, -28(s0)
	.loc	2 763 61 is_stmt 0              # C:/Vega/rv32m1_sdk_riscv/rtos/freertos_9.0.0/Source/timers.c:763:61
	lw	a0, 20(a0)
	mv	a1, zero
.Ltmp163:
	.loc	2 763 8                         # C:/Vega/rv32m1_sdk_riscv/rtos/freertos_9.0.0/Source/timers.c:763:8
	beq	a0, a1, .LBB17_11
	j	.LBB17_10
.LBB17_10:                              # %if.then14
                                        #   in Loop: Header=BB17_1 Depth=1
.Ltmp164:
	.loc	2 766 31 is_stmt 1              # C:/Vega/rv32m1_sdk_riscv/rtos/freertos_9.0.0/Source/timers.c:766:31
	lw	a0, -28(s0)
	.loc	2 766 40 is_stmt 0              # C:/Vega/rv32m1_sdk_riscv/rtos/freertos_9.0.0/Source/timers.c:766:40
	addi	a0, a0, 4
	.loc	2 766 14                        # C:/Vega/rv32m1_sdk_riscv/rtos/freertos_9.0.0/Source/timers.c:766:14
	call	uxListRemove
	.loc	2 767 4 is_stmt 1               # C:/Vega/rv32m1_sdk_riscv/rtos/freertos_9.0.0/Source/timers.c:767:4
	j	.LBB17_12
.Ltmp165:
.LBB17_11:                              # %if.else17
                                        #   in Loop: Header=BB17_1 Depth=1
	.loc	2 0 4 is_stmt 0                 # C:/Vega/rv32m1_sdk_riscv/rtos/freertos_9.0.0/Source/timers.c:0:4
	j	.LBB17_12
.LBB17_12:                              # %if.end18
                                        #   in Loop: Header=BB17_1 Depth=1
	addi	a0, s0, -32
	.loc	2 781 15 is_stmt 1              # C:/Vega/rv32m1_sdk_riscv/rtos/freertos_9.0.0/Source/timers.c:781:15
	call	prvSampleTimeNow
	.loc	2 781 13 is_stmt 0              # C:/Vega/rv32m1_sdk_riscv/rtos/freertos_9.0.0/Source/timers.c:781:13
	sw	a0, -40(s0)
	.loc	2 783 21 is_stmt 1              # C:/Vega/rv32m1_sdk_riscv/rtos/freertos_9.0.0/Source/timers.c:783:21
	lw	a0, -24(s0)
	addi	a1, zero, 3
	.loc	2 783 4 is_stmt 0               # C:/Vega/rv32m1_sdk_riscv/rtos/freertos_9.0.0/Source/timers.c:783:4
	sw	a0, -60(s0)
	bltu	a0, a1, .LBB17_19
	j	.LBB17_13
.LBB17_13:                              # %if.end18
                                        #   in Loop: Header=BB17_1 Depth=1
	.loc	2 0 4                           # C:/Vega/rv32m1_sdk_riscv/rtos/freertos_9.0.0/Source/timers.c:0:4
	addi	a0, zero, 3
	.loc	2 783 4                         # C:/Vega/rv32m1_sdk_riscv/rtos/freertos_9.0.0/Source/timers.c:783:4
	lw	a1, -60(s0)
	beq	a1, a0, .LBB17_29
	j	.LBB17_14
.LBB17_14:                              # %if.end18
                                        #   in Loop: Header=BB17_1 Depth=1
	.loc	2 0 4                           # C:/Vega/rv32m1_sdk_riscv/rtos/freertos_9.0.0/Source/timers.c:0:4
	addi	a0, zero, 4
	.loc	2 783 4                         # C:/Vega/rv32m1_sdk_riscv/rtos/freertos_9.0.0/Source/timers.c:783:4
	lw	a1, -60(s0)
	beq	a1, a0, .LBB17_30
	j	.LBB17_15
.LBB17_15:                              # %if.end18
                                        #   in Loop: Header=BB17_1 Depth=1
	.loc	2 0 4                           # C:/Vega/rv32m1_sdk_riscv/rtos/freertos_9.0.0/Source/timers.c:0:4
	addi	a0, zero, 5
	.loc	2 783 4                         # C:/Vega/rv32m1_sdk_riscv/rtos/freertos_9.0.0/Source/timers.c:783:4
	lw	a1, -60(s0)
	beq	a1, a0, .LBB17_34
	j	.LBB17_16
.LBB17_16:                              # %if.end18
                                        #   in Loop: Header=BB17_1 Depth=1
	lw	a0, -60(s0)
	addi	a1, a0, -6
	addi	a2, zero, 2
	bltu	a1, a2, .LBB17_19
	j	.LBB17_17
.LBB17_17:                              # %if.end18
                                        #   in Loop: Header=BB17_1 Depth=1
	.loc	2 0 4                           # C:/Vega/rv32m1_sdk_riscv/rtos/freertos_9.0.0/Source/timers.c:0:4
	addi	a0, zero, 8
	.loc	2 783 4                         # C:/Vega/rv32m1_sdk_riscv/rtos/freertos_9.0.0/Source/timers.c:783:4
	lw	a1, -60(s0)
	beq	a1, a0, .LBB17_29
	j	.LBB17_18
.LBB17_18:                              # %if.end18
                                        #   in Loop: Header=BB17_1 Depth=1
	.loc	2 0 4                           # C:/Vega/rv32m1_sdk_riscv/rtos/freertos_9.0.0/Source/timers.c:0:4
	addi	a0, zero, 9
	.loc	2 783 4                         # C:/Vega/rv32m1_sdk_riscv/rtos/freertos_9.0.0/Source/timers.c:783:4
	lw	a1, -60(s0)
	beq	a1, a0, .LBB17_30
	j	.LBB17_35
.LBB17_19:                              # %sw.bb
                                        #   in Loop: Header=BB17_1 Depth=1
.Ltmp166:
	.loc	2 791 38 is_stmt 1              # C:/Vega/rv32m1_sdk_riscv/rtos/freertos_9.0.0/Source/timers.c:791:38
	lw	a0, -28(s0)
	.loc	2 791 75 is_stmt 0              # C:/Vega/rv32m1_sdk_riscv/rtos/freertos_9.0.0/Source/timers.c:791:75
	lw	a1, -20(s0)
	.loc	2 791 100                       # C:/Vega/rv32m1_sdk_riscv/rtos/freertos_9.0.0/Source/timers.c:791:100
	lw	a2, 24(a0)
	.loc	2 791 89                        # C:/Vega/rv32m1_sdk_riscv/rtos/freertos_9.0.0/Source/timers.c:791:89
	add	a2, a1, a2
	.loc	2 791 121                       # C:/Vega/rv32m1_sdk_riscv/rtos/freertos_9.0.0/Source/timers.c:791:121
	lw	a3, -40(s0)
	.loc	2 791 10                        # C:/Vega/rv32m1_sdk_riscv/rtos/freertos_9.0.0/Source/timers.c:791:10
	sw	a1, -64(s0)
	mv	a1, a2
	mv	a2, a3
	lw	a3, -64(s0)
	call	prvInsertTimerInActiveList
	mv	a1, zero
.Ltmp167:
	.loc	2 791 10                        # C:/Vega/rv32m1_sdk_riscv/rtos/freertos_9.0.0/Source/timers.c:791:10
	beq	a0, a1, .LBB17_27
	j	.LBB17_20
.LBB17_20:                              # %if.then29
                                        #   in Loop: Header=BB17_1 Depth=1
.Ltmp168:
	.loc	2 795 7 is_stmt 1               # C:/Vega/rv32m1_sdk_riscv/rtos/freertos_9.0.0/Source/timers.c:795:7
	lw	a0, -28(s0)
	.loc	2 795 16 is_stmt 0              # C:/Vega/rv32m1_sdk_riscv/rtos/freertos_9.0.0/Source/timers.c:795:16
	lw	a1, 36(a0)
	.loc	2 795 7                         # C:/Vega/rv32m1_sdk_riscv/rtos/freertos_9.0.0/Source/timers.c:795:7
	jalr	a1
.Ltmp169:
	.loc	2 798 11 is_stmt 1              # C:/Vega/rv32m1_sdk_riscv/rtos/freertos_9.0.0/Source/timers.c:798:11
	lw	a0, -28(s0)
	.loc	2 798 20 is_stmt 0              # C:/Vega/rv32m1_sdk_riscv/rtos/freertos_9.0.0/Source/timers.c:798:20
	lw	a0, 28(a0)
	addi	a1, zero, 1
.Ltmp170:
	.loc	2 798 11                        # C:/Vega/rv32m1_sdk_riscv/rtos/freertos_9.0.0/Source/timers.c:798:11
	bne	a0, a1, .LBB17_25
	j	.LBB17_21
.LBB17_21:                              # %if.then33
                                        #   in Loop: Header=BB17_1 Depth=1
.Ltmp171:
	.loc	2 800 40 is_stmt 1              # C:/Vega/rv32m1_sdk_riscv/rtos/freertos_9.0.0/Source/timers.c:800:40
	lw	a0, -28(s0)
	.loc	2 800 99 is_stmt 0              # C:/Vega/rv32m1_sdk_riscv/rtos/freertos_9.0.0/Source/timers.c:800:99
	lw	a1, -20(s0)
	.loc	2 800 124                       # C:/Vega/rv32m1_sdk_riscv/rtos/freertos_9.0.0/Source/timers.c:800:124
	lw	a2, 24(a0)
	.loc	2 800 113                       # C:/Vega/rv32m1_sdk_riscv/rtos/freertos_9.0.0/Source/timers.c:800:113
	add	a2, a1, a2
	mv	a1, zero
	.loc	2 800 18                        # C:/Vega/rv32m1_sdk_riscv/rtos/freertos_9.0.0/Source/timers.c:800:18
	sw	a1, -68(s0)
	lw	a3, -68(s0)
	lw	a4, -68(s0)
	call	xTimerGenericCommand
	.loc	2 800 16                        # C:/Vega/rv32m1_sdk_riscv/rtos/freertos_9.0.0/Source/timers.c:800:16
	sw	a0, -36(s0)
.Ltmp172:
	.loc	2 801 13 is_stmt 1              # C:/Vega/rv32m1_sdk_riscv/rtos/freertos_9.0.0/Source/timers.c:801:13
	lw	a0, -36(s0)
.Ltmp173:
	.loc	2 801 11 is_stmt 0              # C:/Vega/rv32m1_sdk_riscv/rtos/freertos_9.0.0/Source/timers.c:801:11
	lw	a1, -68(s0)
	bne	a0, a1, .LBB17_24
	j	.LBB17_22
.LBB17_22:                              # %if.then42
.Ltmp174:
	.loc	2 801 29                        # C:/Vega/rv32m1_sdk_riscv/rtos/freertos_9.0.0/Source/timers.c:801:29
	call	vPortSetInterruptMask
	.loc	2 801 54                        # C:/Vega/rv32m1_sdk_riscv/rtos/freertos_9.0.0/Source/timers.c:801:54
	j	.LBB17_23
.LBB17_23:                              # %for.cond44
                                        # =>This Inner Loop Header: Depth=1
.Ltmp175:
	.loc	2 801 54                        # C:/Vega/rv32m1_sdk_riscv/rtos/freertos_9.0.0/Source/timers.c:801:54
	j	.LBB17_23
.Ltmp176:
.LBB17_24:                              # %if.end45
                                        #   in Loop: Header=BB17_1 Depth=1
	.loc	2 803 7 is_stmt 1               # C:/Vega/rv32m1_sdk_riscv/rtos/freertos_9.0.0/Source/timers.c:803:7
	j	.LBB17_26
.Ltmp177:
.LBB17_25:                              # %if.else46
                                        #   in Loop: Header=BB17_1 Depth=1
	.loc	2 0 7 is_stmt 0                 # C:/Vega/rv32m1_sdk_riscv/rtos/freertos_9.0.0/Source/timers.c:0:7
	j	.LBB17_26
.LBB17_26:                              # %if.end47
                                        #   in Loop: Header=BB17_1 Depth=1
	.loc	2 808 6 is_stmt 1               # C:/Vega/rv32m1_sdk_riscv/rtos/freertos_9.0.0/Source/timers.c:808:6
	j	.LBB17_28
.Ltmp178:
.LBB17_27:                              # %if.else48
                                        #   in Loop: Header=BB17_1 Depth=1
	.loc	2 0 6 is_stmt 0                 # C:/Vega/rv32m1_sdk_riscv/rtos/freertos_9.0.0/Source/timers.c:0:6
	j	.LBB17_28
.LBB17_28:                              # %if.end49
                                        #   in Loop: Header=BB17_1 Depth=1
	.loc	2 813 6 is_stmt 1               # C:/Vega/rv32m1_sdk_riscv/rtos/freertos_9.0.0/Source/timers.c:813:6
	j	.LBB17_36
.LBB17_29:                              # %sw.bb50
                                        #   in Loop: Header=BB17_1 Depth=1
	.loc	2 819 6                         # C:/Vega/rv32m1_sdk_riscv/rtos/freertos_9.0.0/Source/timers.c:819:6
	j	.LBB17_36
.LBB17_30:                              # %sw.bb51
                                        #   in Loop: Header=BB17_1 Depth=1
	.loc	2 823 65                        # C:/Vega/rv32m1_sdk_riscv/rtos/freertos_9.0.0/Source/timers.c:823:65
	lw	a0, -20(s0)
	.loc	2 823 6 is_stmt 0               # C:/Vega/rv32m1_sdk_riscv/rtos/freertos_9.0.0/Source/timers.c:823:6
	lw	a1, -28(s0)
	.loc	2 823 35                        # C:/Vega/rv32m1_sdk_riscv/rtos/freertos_9.0.0/Source/timers.c:823:35
	sw	a0, 24(a1)
.Ltmp179:
	.loc	2 824 13 is_stmt 1              # C:/Vega/rv32m1_sdk_riscv/rtos/freertos_9.0.0/Source/timers.c:824:13
	lw	a0, -28(s0)
	.loc	2 824 22 is_stmt 0              # C:/Vega/rv32m1_sdk_riscv/rtos/freertos_9.0.0/Source/timers.c:824:22
	lw	a0, 24(a0)
	mv	a1, zero
.Ltmp180:
	.loc	2 824 9                         # C:/Vega/rv32m1_sdk_riscv/rtos/freertos_9.0.0/Source/timers.c:824:9
	bne	a0, a1, .LBB17_33
	j	.LBB17_31
.LBB17_31:                              # %if.then61
.Ltmp181:
	.loc	2 824 56                        # C:/Vega/rv32m1_sdk_riscv/rtos/freertos_9.0.0/Source/timers.c:824:56
	call	vPortSetInterruptMask
	.loc	2 824 81                        # C:/Vega/rv32m1_sdk_riscv/rtos/freertos_9.0.0/Source/timers.c:824:81
	j	.LBB17_32
.LBB17_32:                              # %for.cond63
                                        # =>This Inner Loop Header: Depth=1
.Ltmp182:
	.loc	2 824 81                        # C:/Vega/rv32m1_sdk_riscv/rtos/freertos_9.0.0/Source/timers.c:824:81
	j	.LBB17_32
.Ltmp183:
.LBB17_33:                              # %if.end64
                                        #   in Loop: Header=BB17_1 Depth=1
	.loc	2 832 43 is_stmt 1              # C:/Vega/rv32m1_sdk_riscv/rtos/freertos_9.0.0/Source/timers.c:832:43
	lw	a0, -28(s0)
	.loc	2 832 54 is_stmt 0              # C:/Vega/rv32m1_sdk_riscv/rtos/freertos_9.0.0/Source/timers.c:832:54
	lw	a1, -40(s0)
	.loc	2 832 74                        # C:/Vega/rv32m1_sdk_riscv/rtos/freertos_9.0.0/Source/timers.c:832:74
	lw	a2, 24(a0)
	.loc	2 832 63                        # C:/Vega/rv32m1_sdk_riscv/rtos/freertos_9.0.0/Source/timers.c:832:63
	add	a2, a1, a2
	.loc	2 832 15                        # C:/Vega/rv32m1_sdk_riscv/rtos/freertos_9.0.0/Source/timers.c:832:15
	sw	a1, -72(s0)
	mv	a1, a2
	lw	a2, -72(s0)
	lw	a3, -72(s0)
	call	prvInsertTimerInActiveList
	.loc	2 833 6 is_stmt 1               # C:/Vega/rv32m1_sdk_riscv/rtos/freertos_9.0.0/Source/timers.c:833:6
	j	.LBB17_36
.LBB17_34:                              # %sw.bb68
                                        #   in Loop: Header=BB17_1 Depth=1
.Ltmp184:
	.loc	2 843 18                        # C:/Vega/rv32m1_sdk_riscv/rtos/freertos_9.0.0/Source/timers.c:843:18
	lw	a0, -28(s0)
	.loc	2 843 7 is_stmt 0               # C:/Vega/rv32m1_sdk_riscv/rtos/freertos_9.0.0/Source/timers.c:843:7
	call	vPortFree
.Ltmp185:
	.loc	2 860 6 is_stmt 1               # C:/Vega/rv32m1_sdk_riscv/rtos/freertos_9.0.0/Source/timers.c:860:6
	j	.LBB17_36
.LBB17_35:                              # %sw.default
                                        #   in Loop: Header=BB17_1 Depth=1
	.loc	2 864 6                         # C:/Vega/rv32m1_sdk_riscv/rtos/freertos_9.0.0/Source/timers.c:864:6
	j	.LBB17_36
.Ltmp186:
.LBB17_36:                              # %sw.epilog
                                        #   in Loop: Header=BB17_1 Depth=1
	.loc	2 866 3                         # C:/Vega/rv32m1_sdk_riscv/rtos/freertos_9.0.0/Source/timers.c:866:3
	j	.LBB17_37
.Ltmp187:
.LBB17_37:                              # %if.end69
                                        #   in Loop: Header=BB17_1 Depth=1
	.loc	2 731 2                         # C:/Vega/rv32m1_sdk_riscv/rtos/freertos_9.0.0/Source/timers.c:731:2
	j	.LBB17_1
.LBB17_38:                              # %while.end
	.loc	2 868 1                         # C:/Vega/rv32m1_sdk_riscv/rtos/freertos_9.0.0/Source/timers.c:868:1
	lw	s0, 72(sp)
	lw	ra, 76(sp)
	addi	sp, sp, 80
	ret
.Ltmp188:
.Lfunc_end17:
	.size	prvProcessReceivedCommands, .Lfunc_end17-prvProcessReceivedCommands
	.cfi_endproc
                                        # -- End function
	.section	.text.prvSampleTimeNow,"ax",@progbits
	.p2align	2                               # -- Begin function prvSampleTimeNow
	.type	prvSampleTimeNow,@function
prvSampleTimeNow:                       # @prvSampleTimeNow
.Lfunc_begin18:
	.loc	2 661 0                         # C:/Vega/rv32m1_sdk_riscv/rtos/freertos_9.0.0/Source/timers.c:661:0
	.cfi_startproc
# %bb.0:                                # %entry
	addi	sp, sp, -16
	.cfi_def_cfa_offset 16
	sw	ra, 12(sp)
	sw	s0, 8(sp)
	.cfi_offset ra, -4
	.cfi_offset s0, -8
	addi	s0, sp, 16
	.cfi_def_cfa s0, 0
	sw	a0, -12(s0)
.Ltmp189:
	.loc	2 665 13 prologue_end           # C:/Vega/rv32m1_sdk_riscv/rtos/freertos_9.0.0/Source/timers.c:665:13
	call	xTaskGetTickCount
	.loc	2 665 11 is_stmt 0              # C:/Vega/rv32m1_sdk_riscv/rtos/freertos_9.0.0/Source/timers.c:665:11
	sw	a0, -16(s0)
.Ltmp190:
	.loc	2 667 6 is_stmt 1               # C:/Vega/rv32m1_sdk_riscv/rtos/freertos_9.0.0/Source/timers.c:667:6
	lw	a0, -16(s0)
	.loc	2 667 17 is_stmt 0              # C:/Vega/rv32m1_sdk_riscv/rtos/freertos_9.0.0/Source/timers.c:667:17
	lui	a1, %hi(prvSampleTimeNow.xLastTime)
	lw	a1, %lo(prvSampleTimeNow.xLastTime)(a1)
.Ltmp191:
	.loc	2 667 6                         # C:/Vega/rv32m1_sdk_riscv/rtos/freertos_9.0.0/Source/timers.c:667:6
	bgeu	a0, a1, .LBB18_2
	j	.LBB18_1
.LBB18_1:                               # %if.then
.Ltmp192:
	.loc	2 669 3 is_stmt 1               # C:/Vega/rv32m1_sdk_riscv/rtos/freertos_9.0.0/Source/timers.c:669:3
	call	prvSwitchTimerLists
	.loc	2 670 4                         # C:/Vega/rv32m1_sdk_riscv/rtos/freertos_9.0.0/Source/timers.c:670:4
	lw	a0, -12(s0)
	addi	a1, zero, 1
	.loc	2 670 29 is_stmt 0              # C:/Vega/rv32m1_sdk_riscv/rtos/freertos_9.0.0/Source/timers.c:670:29
	sw	a1, 0(a0)
	.loc	2 671 2 is_stmt 1               # C:/Vega/rv32m1_sdk_riscv/rtos/freertos_9.0.0/Source/timers.c:671:2
	j	.LBB18_3
.Ltmp193:
.LBB18_2:                               # %if.else
	.loc	2 674 4                         # C:/Vega/rv32m1_sdk_riscv/rtos/freertos_9.0.0/Source/timers.c:674:4
	lw	a0, -12(s0)
	mv	a1, zero
	.loc	2 674 29 is_stmt 0              # C:/Vega/rv32m1_sdk_riscv/rtos/freertos_9.0.0/Source/timers.c:674:29
	sw	a1, 0(a0)
	j	.LBB18_3
.Ltmp194:
.LBB18_3:                               # %if.end
	.loc	2 677 14 is_stmt 1              # C:/Vega/rv32m1_sdk_riscv/rtos/freertos_9.0.0/Source/timers.c:677:14
	lw	a0, -16(s0)
	.loc	2 677 12 is_stmt 0              # C:/Vega/rv32m1_sdk_riscv/rtos/freertos_9.0.0/Source/timers.c:677:12
	lui	a1, %hi(prvSampleTimeNow.xLastTime)
	sw	a0, %lo(prvSampleTimeNow.xLastTime)(a1)
	.loc	2 679 9 is_stmt 1               # C:/Vega/rv32m1_sdk_riscv/rtos/freertos_9.0.0/Source/timers.c:679:9
	lw	a0, -16(s0)
	.loc	2 679 2 is_stmt 0               # C:/Vega/rv32m1_sdk_riscv/rtos/freertos_9.0.0/Source/timers.c:679:2
	lw	s0, 8(sp)
	lw	ra, 12(sp)
	addi	sp, sp, 16
	ret
.Ltmp195:
.Lfunc_end18:
	.size	prvSampleTimeNow, .Lfunc_end18-prvSampleTimeNow
	.cfi_endproc
                                        # -- End function
	.section	.text.prvProcessExpiredTimer,"ax",@progbits
	.p2align	2                               # -- Begin function prvProcessExpiredTimer
	.type	prvProcessExpiredTimer,@function
prvProcessExpiredTimer:                 # @prvProcessExpiredTimer
.Lfunc_begin19:
	.loc	2 499 0 is_stmt 1               # C:/Vega/rv32m1_sdk_riscv/rtos/freertos_9.0.0/Source/timers.c:499:0
	.cfi_startproc
# %bb.0:                                # %entry
	addi	sp, sp, -32
	.cfi_def_cfa_offset 32
	sw	ra, 28(sp)
	sw	s0, 24(sp)
	.cfi_offset ra, -4
	.cfi_offset s0, -8
	addi	s0, sp, 32
	.cfi_def_cfa s0, 0
	sw	a0, -12(s0)
	sw	a1, -16(s0)
.Ltmp196:
	.loc	2 501 49 prologue_end           # C:/Vega/rv32m1_sdk_riscv/rtos/freertos_9.0.0/Source/timers.c:501:49
	lui	a0, %hi(pxCurrentTimerList)
	lw	a0, %lo(pxCurrentTimerList)(a0)
	.loc	2 501 84 is_stmt 0              # C:/Vega/rv32m1_sdk_riscv/rtos/freertos_9.0.0/Source/timers.c:501:84
	lw	a0, 12(a0)
	.loc	2 501 92                        # C:/Vega/rv32m1_sdk_riscv/rtos/freertos_9.0.0/Source/timers.c:501:92
	lw	a0, 12(a0)
	.loc	2 501 17                        # C:/Vega/rv32m1_sdk_riscv/rtos/freertos_9.0.0/Source/timers.c:501:17
	sw	a0, -24(s0)
	.loc	2 505 28 is_stmt 1              # C:/Vega/rv32m1_sdk_riscv/rtos/freertos_9.0.0/Source/timers.c:505:28
	lw	a0, -24(s0)
	.loc	2 505 37 is_stmt 0              # C:/Vega/rv32m1_sdk_riscv/rtos/freertos_9.0.0/Source/timers.c:505:37
	addi	a0, a0, 4
	.loc	2 505 11                        # C:/Vega/rv32m1_sdk_riscv/rtos/freertos_9.0.0/Source/timers.c:505:11
	call	uxListRemove
.Ltmp197:
	.loc	2 510 6 is_stmt 1               # C:/Vega/rv32m1_sdk_riscv/rtos/freertos_9.0.0/Source/timers.c:510:6
	lw	a1, -24(s0)
	.loc	2 510 15 is_stmt 0              # C:/Vega/rv32m1_sdk_riscv/rtos/freertos_9.0.0/Source/timers.c:510:15
	lw	a1, 28(a1)
	addi	a2, zero, 1
.Ltmp198:
	.loc	2 510 6                         # C:/Vega/rv32m1_sdk_riscv/rtos/freertos_9.0.0/Source/timers.c:510:6
	bne	a1, a2, .LBB19_8
	j	.LBB19_1
.LBB19_1:                               # %if.then
.Ltmp199:
	.loc	2 515 35 is_stmt 1              # C:/Vega/rv32m1_sdk_riscv/rtos/freertos_9.0.0/Source/timers.c:515:35
	lw	a0, -24(s0)
	.loc	2 515 46 is_stmt 0              # C:/Vega/rv32m1_sdk_riscv/rtos/freertos_9.0.0/Source/timers.c:515:46
	lw	a1, -12(s0)
	.loc	2 515 73                        # C:/Vega/rv32m1_sdk_riscv/rtos/freertos_9.0.0/Source/timers.c:515:73
	lw	a2, 24(a0)
	.loc	2 515 62                        # C:/Vega/rv32m1_sdk_riscv/rtos/freertos_9.0.0/Source/timers.c:515:62
	add	a2, a1, a2
	.loc	2 515 96                        # C:/Vega/rv32m1_sdk_riscv/rtos/freertos_9.0.0/Source/timers.c:515:96
	lw	a3, -16(s0)
	.loc	2 515 7                         # C:/Vega/rv32m1_sdk_riscv/rtos/freertos_9.0.0/Source/timers.c:515:7
	sw	a1, -28(s0)
	mv	a1, a2
	mv	a2, a3
	lw	a3, -28(s0)
	call	prvInsertTimerInActiveList
	mv	a1, zero
.Ltmp200:
	.loc	2 515 7                         # C:/Vega/rv32m1_sdk_riscv/rtos/freertos_9.0.0/Source/timers.c:515:7
	beq	a0, a1, .LBB19_6
	j	.LBB19_2
.LBB19_2:                               # %if.then3
.Ltmp201:
	.loc	2 519 36 is_stmt 1              # C:/Vega/rv32m1_sdk_riscv/rtos/freertos_9.0.0/Source/timers.c:519:36
	lw	a0, -24(s0)
	.loc	2 519 67 is_stmt 0              # C:/Vega/rv32m1_sdk_riscv/rtos/freertos_9.0.0/Source/timers.c:519:67
	lw	a2, -12(s0)
	mv	a1, zero
	.loc	2 519 14                        # C:/Vega/rv32m1_sdk_riscv/rtos/freertos_9.0.0/Source/timers.c:519:14
	sw	a1, -32(s0)
	lw	a3, -32(s0)
	lw	a4, -32(s0)
	call	xTimerGenericCommand
	.loc	2 519 12                        # C:/Vega/rv32m1_sdk_riscv/rtos/freertos_9.0.0/Source/timers.c:519:12
	sw	a0, -20(s0)
.Ltmp202:
	.loc	2 520 9 is_stmt 1               # C:/Vega/rv32m1_sdk_riscv/rtos/freertos_9.0.0/Source/timers.c:520:9
	lw	a0, -20(s0)
.Ltmp203:
	.loc	2 520 7 is_stmt 0               # C:/Vega/rv32m1_sdk_riscv/rtos/freertos_9.0.0/Source/timers.c:520:7
	lw	a1, -32(s0)
	bne	a0, a1, .LBB19_5
	j	.LBB19_3
.LBB19_3:                               # %if.then6
.Ltmp204:
	.loc	2 520 25                        # C:/Vega/rv32m1_sdk_riscv/rtos/freertos_9.0.0/Source/timers.c:520:25
	call	vPortSetInterruptMask
	.loc	2 520 50                        # C:/Vega/rv32m1_sdk_riscv/rtos/freertos_9.0.0/Source/timers.c:520:50
	j	.LBB19_4
.LBB19_4:                               # %for.cond
                                        # =>This Inner Loop Header: Depth=1
.Ltmp205:
	.loc	2 520 50                        # C:/Vega/rv32m1_sdk_riscv/rtos/freertos_9.0.0/Source/timers.c:520:50
	j	.LBB19_4
.Ltmp206:
.LBB19_5:                               # %if.end
	.loc	2 522 3 is_stmt 1               # C:/Vega/rv32m1_sdk_riscv/rtos/freertos_9.0.0/Source/timers.c:522:3
	j	.LBB19_7
.Ltmp207:
.LBB19_6:                               # %if.else
	.loc	2 0 3 is_stmt 0                 # C:/Vega/rv32m1_sdk_riscv/rtos/freertos_9.0.0/Source/timers.c:0:3
	j	.LBB19_7
.LBB19_7:                               # %if.end8
	.loc	2 527 2 is_stmt 1               # C:/Vega/rv32m1_sdk_riscv/rtos/freertos_9.0.0/Source/timers.c:527:2
	j	.LBB19_9
.Ltmp208:
.LBB19_8:                               # %if.else9
	.loc	2 0 2 is_stmt 0                 # C:/Vega/rv32m1_sdk_riscv/rtos/freertos_9.0.0/Source/timers.c:0:2
	j	.LBB19_9
.LBB19_9:                               # %if.end10
	.loc	2 534 2 is_stmt 1               # C:/Vega/rv32m1_sdk_riscv/rtos/freertos_9.0.0/Source/timers.c:534:2
	lw	a0, -24(s0)
	.loc	2 534 11 is_stmt 0              # C:/Vega/rv32m1_sdk_riscv/rtos/freertos_9.0.0/Source/timers.c:534:11
	lw	a1, 36(a0)
	.loc	2 534 2                         # C:/Vega/rv32m1_sdk_riscv/rtos/freertos_9.0.0/Source/timers.c:534:2
	jalr	a1
	.loc	2 535 1 is_stmt 1               # C:/Vega/rv32m1_sdk_riscv/rtos/freertos_9.0.0/Source/timers.c:535:1
	lw	s0, 24(sp)
	lw	ra, 28(sp)
	addi	sp, sp, 32
	ret
.Ltmp209:
.Lfunc_end19:
	.size	prvProcessExpiredTimer, .Lfunc_end19-prvProcessExpiredTimer
	.cfi_endproc
                                        # -- End function
	.section	.text.prvSwitchTimerLists,"ax",@progbits
	.p2align	2                               # -- Begin function prvSwitchTimerLists
	.type	prvSwitchTimerLists,@function
prvSwitchTimerLists:                    # @prvSwitchTimerLists
.Lfunc_begin20:
	.loc	2 872 0                         # C:/Vega/rv32m1_sdk_riscv/rtos/freertos_9.0.0/Source/timers.c:872:0
	.cfi_startproc
# %bb.0:                                # %entry
	addi	sp, sp, -48
	.cfi_def_cfa_offset 48
.Ltmp210:
	.loc	2 882 2 prologue_end            # C:/Vega/rv32m1_sdk_riscv/rtos/freertos_9.0.0/Source/timers.c:882:2
	sw	ra, 44(sp)
	sw	s0, 40(sp)
	.cfi_offset ra, -4
	.cfi_offset s0, -8
	addi	s0, sp, 48
	.cfi_def_cfa s0, 0
	j	.LBB20_1
.LBB20_1:                               # %while.cond
                                        # =>This Inner Loop Header: Depth=1
	.loc	2 882 30 is_stmt 0              # C:/Vega/rv32m1_sdk_riscv/rtos/freertos_9.0.0/Source/timers.c:882:30
	lui	a0, %hi(pxCurrentTimerList)
	lw	a0, %lo(pxCurrentTimerList)(a0)
	.loc	2 882 52                        # C:/Vega/rv32m1_sdk_riscv/rtos/freertos_9.0.0/Source/timers.c:882:52
	lw	a0, 0(a0)
	mv	a1, zero
	.loc	2 882 2                         # C:/Vega/rv32m1_sdk_riscv/rtos/freertos_9.0.0/Source/timers.c:882:2
	beq	a0, a1, .LBB20_12
	j	.LBB20_2
.LBB20_2:                               # %while.body
                                        #   in Loop: Header=BB20_1 Depth=1
.Ltmp211:
	.loc	2 884 27 is_stmt 1              # C:/Vega/rv32m1_sdk_riscv/rtos/freertos_9.0.0/Source/timers.c:884:27
	lui	a0, %hi(pxCurrentTimerList)
	lw	a1, %lo(pxCurrentTimerList)(a0)
	.loc	2 884 60 is_stmt 0              # C:/Vega/rv32m1_sdk_riscv/rtos/freertos_9.0.0/Source/timers.c:884:60
	lw	a1, 12(a1)
	.loc	2 884 68                        # C:/Vega/rv32m1_sdk_riscv/rtos/freertos_9.0.0/Source/timers.c:884:68
	lw	a1, 0(a1)
	.loc	2 884 19                        # C:/Vega/rv32m1_sdk_riscv/rtos/freertos_9.0.0/Source/timers.c:884:19
	sw	a1, -12(s0)
	.loc	2 887 35 is_stmt 1              # C:/Vega/rv32m1_sdk_riscv/rtos/freertos_9.0.0/Source/timers.c:887:35
	lw	a0, %lo(pxCurrentTimerList)(a0)
	.loc	2 887 70 is_stmt 0              # C:/Vega/rv32m1_sdk_riscv/rtos/freertos_9.0.0/Source/timers.c:887:70
	lw	a0, 12(a0)
	.loc	2 887 78                        # C:/Vega/rv32m1_sdk_riscv/rtos/freertos_9.0.0/Source/timers.c:887:78
	lw	a0, 12(a0)
	.loc	2 887 11                        # C:/Vega/rv32m1_sdk_riscv/rtos/freertos_9.0.0/Source/timers.c:887:11
	sw	a0, -24(s0)
	.loc	2 888 29 is_stmt 1              # C:/Vega/rv32m1_sdk_riscv/rtos/freertos_9.0.0/Source/timers.c:888:29
	lw	a0, -24(s0)
	.loc	2 888 38 is_stmt 0              # C:/Vega/rv32m1_sdk_riscv/rtos/freertos_9.0.0/Source/timers.c:888:38
	addi	a0, a0, 4
	.loc	2 888 12                        # C:/Vega/rv32m1_sdk_riscv/rtos/freertos_9.0.0/Source/timers.c:888:12
	call	uxListRemove
	.loc	2 894 3 is_stmt 1               # C:/Vega/rv32m1_sdk_riscv/rtos/freertos_9.0.0/Source/timers.c:894:3
	lw	a1, -24(s0)
	.loc	2 894 12 is_stmt 0              # C:/Vega/rv32m1_sdk_riscv/rtos/freertos_9.0.0/Source/timers.c:894:12
	lw	a2, 36(a1)
	.loc	2 894 3                         # C:/Vega/rv32m1_sdk_riscv/rtos/freertos_9.0.0/Source/timers.c:894:3
	sw	a0, -32(s0)
	mv	a0, a1
	jalr	a2
.Ltmp212:
	.loc	2 896 7 is_stmt 1               # C:/Vega/rv32m1_sdk_riscv/rtos/freertos_9.0.0/Source/timers.c:896:7
	lw	a0, -24(s0)
	.loc	2 896 16 is_stmt 0              # C:/Vega/rv32m1_sdk_riscv/rtos/freertos_9.0.0/Source/timers.c:896:16
	lw	a0, 28(a0)
	addi	a1, zero, 1
.Ltmp213:
	.loc	2 896 7                         # C:/Vega/rv32m1_sdk_riscv/rtos/freertos_9.0.0/Source/timers.c:896:7
	bne	a0, a1, .LBB20_10
	j	.LBB20_3
.LBB20_3:                               # %if.then
                                        #   in Loop: Header=BB20_1 Depth=1
.Ltmp214:
	.loc	2 904 20 is_stmt 1              # C:/Vega/rv32m1_sdk_riscv/rtos/freertos_9.0.0/Source/timers.c:904:20
	lw	a0, -12(s0)
	.loc	2 904 38 is_stmt 0              # C:/Vega/rv32m1_sdk_riscv/rtos/freertos_9.0.0/Source/timers.c:904:38
	lw	a1, -24(s0)
	.loc	2 904 47                        # C:/Vega/rv32m1_sdk_riscv/rtos/freertos_9.0.0/Source/timers.c:904:47
	lw	a1, 24(a1)
	.loc	2 904 36                        # C:/Vega/rv32m1_sdk_riscv/rtos/freertos_9.0.0/Source/timers.c:904:36
	add	a0, a0, a1
	.loc	2 904 16                        # C:/Vega/rv32m1_sdk_riscv/rtos/freertos_9.0.0/Source/timers.c:904:16
	sw	a0, -16(s0)
.Ltmp215:
	.loc	2 905 8 is_stmt 1               # C:/Vega/rv32m1_sdk_riscv/rtos/freertos_9.0.0/Source/timers.c:905:8
	lw	a0, -16(s0)
	.loc	2 905 22 is_stmt 0              # C:/Vega/rv32m1_sdk_riscv/rtos/freertos_9.0.0/Source/timers.c:905:22
	lw	a1, -12(s0)
.Ltmp216:
	.loc	2 905 8                         # C:/Vega/rv32m1_sdk_riscv/rtos/freertos_9.0.0/Source/timers.c:905:8
	bgeu	a1, a0, .LBB20_5
	j	.LBB20_4
.LBB20_4:                               # %if.then9
                                        #   in Loop: Header=BB20_1 Depth=1
.Ltmp217:
	.loc	2 907 56 is_stmt 1              # C:/Vega/rv32m1_sdk_riscv/rtos/freertos_9.0.0/Source/timers.c:907:56
	lw	a0, -16(s0)
	.loc	2 907 12 is_stmt 0              # C:/Vega/rv32m1_sdk_riscv/rtos/freertos_9.0.0/Source/timers.c:907:12
	lw	a1, -24(s0)
	.loc	2 907 52                        # C:/Vega/rv32m1_sdk_riscv/rtos/freertos_9.0.0/Source/timers.c:907:52
	sw	a0, 4(a1)
	.loc	2 908 64 is_stmt 1              # C:/Vega/rv32m1_sdk_riscv/rtos/freertos_9.0.0/Source/timers.c:908:64
	lw	a0, -24(s0)
	.loc	2 908 49 is_stmt 0              # C:/Vega/rv32m1_sdk_riscv/rtos/freertos_9.0.0/Source/timers.c:908:49
	sw	a0, 16(a0)
	.loc	2 909 18 is_stmt 1              # C:/Vega/rv32m1_sdk_riscv/rtos/freertos_9.0.0/Source/timers.c:909:18
	lui	a0, %hi(pxCurrentTimerList)
	lw	a0, %lo(pxCurrentTimerList)(a0)
	.loc	2 909 41 is_stmt 0              # C:/Vega/rv32m1_sdk_riscv/rtos/freertos_9.0.0/Source/timers.c:909:41
	lw	a1, -24(s0)
	.loc	2 909 50                        # C:/Vega/rv32m1_sdk_riscv/rtos/freertos_9.0.0/Source/timers.c:909:50
	addi	a1, a1, 4
	.loc	2 909 5                         # C:/Vega/rv32m1_sdk_riscv/rtos/freertos_9.0.0/Source/timers.c:909:5
	call	vListInsert
	.loc	2 910 4 is_stmt 1               # C:/Vega/rv32m1_sdk_riscv/rtos/freertos_9.0.0/Source/timers.c:910:4
	j	.LBB20_9
.Ltmp218:
.LBB20_5:                               # %if.else
                                        #   in Loop: Header=BB20_1 Depth=1
	.loc	2 913 37                        # C:/Vega/rv32m1_sdk_riscv/rtos/freertos_9.0.0/Source/timers.c:913:37
	lw	a0, -24(s0)
	.loc	2 913 68 is_stmt 0              # C:/Vega/rv32m1_sdk_riscv/rtos/freertos_9.0.0/Source/timers.c:913:68
	lw	a2, -12(s0)
	mv	a1, zero
	.loc	2 913 15                        # C:/Vega/rv32m1_sdk_riscv/rtos/freertos_9.0.0/Source/timers.c:913:15
	sw	a1, -36(s0)
	lw	a3, -36(s0)
	lw	a4, -36(s0)
	call	xTimerGenericCommand
	.loc	2 913 13                        # C:/Vega/rv32m1_sdk_riscv/rtos/freertos_9.0.0/Source/timers.c:913:13
	sw	a0, -28(s0)
.Ltmp219:
	.loc	2 914 10 is_stmt 1              # C:/Vega/rv32m1_sdk_riscv/rtos/freertos_9.0.0/Source/timers.c:914:10
	lw	a0, -28(s0)
.Ltmp220:
	.loc	2 914 8 is_stmt 0               # C:/Vega/rv32m1_sdk_riscv/rtos/freertos_9.0.0/Source/timers.c:914:8
	lw	a1, -36(s0)
	bne	a0, a1, .LBB20_8
	j	.LBB20_6
.LBB20_6:                               # %if.then18
.Ltmp221:
	.loc	2 914 26                        # C:/Vega/rv32m1_sdk_riscv/rtos/freertos_9.0.0/Source/timers.c:914:26
	call	vPortSetInterruptMask
	.loc	2 914 51                        # C:/Vega/rv32m1_sdk_riscv/rtos/freertos_9.0.0/Source/timers.c:914:51
	j	.LBB20_7
.LBB20_7:                               # %for.cond
                                        # =>This Inner Loop Header: Depth=1
.Ltmp222:
	.loc	2 914 51                        # C:/Vega/rv32m1_sdk_riscv/rtos/freertos_9.0.0/Source/timers.c:914:51
	j	.LBB20_7
.Ltmp223:
.LBB20_8:                               # %if.end
                                        #   in Loop: Header=BB20_1 Depth=1
	.loc	2 0 51                          # C:/Vega/rv32m1_sdk_riscv/rtos/freertos_9.0.0/Source/timers.c:0:51
	j	.LBB20_9
.LBB20_9:                               # %if.end20
                                        #   in Loop: Header=BB20_1 Depth=1
	.loc	2 917 3 is_stmt 1               # C:/Vega/rv32m1_sdk_riscv/rtos/freertos_9.0.0/Source/timers.c:917:3
	j	.LBB20_11
.Ltmp224:
.LBB20_10:                              # %if.else21
                                        #   in Loop: Header=BB20_1 Depth=1
	.loc	2 0 3 is_stmt 0                 # C:/Vega/rv32m1_sdk_riscv/rtos/freertos_9.0.0/Source/timers.c:0:3
	j	.LBB20_11
.LBB20_11:                              # %if.end22
                                        #   in Loop: Header=BB20_1 Depth=1
	.loc	2 882 2 is_stmt 1               # C:/Vega/rv32m1_sdk_riscv/rtos/freertos_9.0.0/Source/timers.c:882:2
	j	.LBB20_1
.LBB20_12:                              # %while.end
	.loc	2 924 11                        # C:/Vega/rv32m1_sdk_riscv/rtos/freertos_9.0.0/Source/timers.c:924:11
	lui	a0, %hi(pxCurrentTimerList)
	lw	a1, %lo(pxCurrentTimerList)(a0)
	.loc	2 924 9 is_stmt 0               # C:/Vega/rv32m1_sdk_riscv/rtos/freertos_9.0.0/Source/timers.c:924:9
	sw	a1, -20(s0)
	.loc	2 925 23 is_stmt 1              # C:/Vega/rv32m1_sdk_riscv/rtos/freertos_9.0.0/Source/timers.c:925:23
	lui	a1, %hi(pxOverflowTimerList)
	lw	a2, %lo(pxOverflowTimerList)(a1)
	.loc	2 925 21 is_stmt 0              # C:/Vega/rv32m1_sdk_riscv/rtos/freertos_9.0.0/Source/timers.c:925:21
	sw	a2, %lo(pxCurrentTimerList)(a0)
	.loc	2 926 24 is_stmt 1              # C:/Vega/rv32m1_sdk_riscv/rtos/freertos_9.0.0/Source/timers.c:926:24
	lw	a0, -20(s0)
	.loc	2 926 22 is_stmt 0              # C:/Vega/rv32m1_sdk_riscv/rtos/freertos_9.0.0/Source/timers.c:926:22
	sw	a0, %lo(pxOverflowTimerList)(a1)
	.loc	2 927 1 is_stmt 1               # C:/Vega/rv32m1_sdk_riscv/rtos/freertos_9.0.0/Source/timers.c:927:1
	lw	s0, 40(sp)
	lw	ra, 44(sp)
	addi	sp, sp, 48
	ret
.Ltmp225:
.Lfunc_end20:
	.size	prvSwitchTimerLists, .Lfunc_end20-prvSwitchTimerLists
	.cfi_endproc
                                        # -- End function
	.section	.text.prvInsertTimerInActiveList,"ax",@progbits
	.p2align	2                               # -- Begin function prvInsertTimerInActiveList
	.type	prvInsertTimerInActiveList,@function
prvInsertTimerInActiveList:             # @prvInsertTimerInActiveList
.Lfunc_begin21:
	.loc	2 684 0                         # C:/Vega/rv32m1_sdk_riscv/rtos/freertos_9.0.0/Source/timers.c:684:0
	.cfi_startproc
# %bb.0:                                # %entry
	addi	sp, sp, -32
	.cfi_def_cfa_offset 32
	sw	ra, 28(sp)
	sw	s0, 24(sp)
	.cfi_offset ra, -4
	.cfi_offset s0, -8
	addi	s0, sp, 32
	.cfi_def_cfa s0, 0
	sw	a0, -12(s0)
	sw	a1, -16(s0)
	sw	a2, -20(s0)
	sw	a3, -24(s0)
	mv	a0, zero
.Ltmp226:
	.loc	2 685 12 prologue_end           # C:/Vega/rv32m1_sdk_riscv/rtos/freertos_9.0.0/Source/timers.c:685:12
	sw	a0, -28(s0)
	.loc	2 687 53                        # C:/Vega/rv32m1_sdk_riscv/rtos/freertos_9.0.0/Source/timers.c:687:53
	lw	a0, -16(s0)
	.loc	2 687 9 is_stmt 0               # C:/Vega/rv32m1_sdk_riscv/rtos/freertos_9.0.0/Source/timers.c:687:9
	lw	a1, -12(s0)
	.loc	2 687 49                        # C:/Vega/rv32m1_sdk_riscv/rtos/freertos_9.0.0/Source/timers.c:687:49
	sw	a0, 4(a1)
	.loc	2 688 61 is_stmt 1              # C:/Vega/rv32m1_sdk_riscv/rtos/freertos_9.0.0/Source/timers.c:688:61
	lw	a0, -12(s0)
	.loc	2 688 46 is_stmt 0              # C:/Vega/rv32m1_sdk_riscv/rtos/freertos_9.0.0/Source/timers.c:688:46
	sw	a0, 16(a0)
.Ltmp227:
	.loc	2 690 6 is_stmt 1               # C:/Vega/rv32m1_sdk_riscv/rtos/freertos_9.0.0/Source/timers.c:690:6
	lw	a0, -16(s0)
	.loc	2 690 25 is_stmt 0              # C:/Vega/rv32m1_sdk_riscv/rtos/freertos_9.0.0/Source/timers.c:690:25
	lw	a1, -20(s0)
.Ltmp228:
	.loc	2 690 6                         # C:/Vega/rv32m1_sdk_riscv/rtos/freertos_9.0.0/Source/timers.c:690:6
	bltu	a1, a0, .LBB21_5
	j	.LBB21_1
.LBB21_1:                               # %if.then
.Ltmp229:
	.loc	2 694 26 is_stmt 1              # C:/Vega/rv32m1_sdk_riscv/rtos/freertos_9.0.0/Source/timers.c:694:26
	lw	a0, -20(s0)
	.loc	2 694 37 is_stmt 0              # C:/Vega/rv32m1_sdk_riscv/rtos/freertos_9.0.0/Source/timers.c:694:37
	lw	a1, -24(s0)
	.loc	2 694 35                        # C:/Vega/rv32m1_sdk_riscv/rtos/freertos_9.0.0/Source/timers.c:694:35
	sub	a0, a0, a1
	.loc	2 694 57                        # C:/Vega/rv32m1_sdk_riscv/rtos/freertos_9.0.0/Source/timers.c:694:57
	lw	a1, -12(s0)
	.loc	2 694 66                        # C:/Vega/rv32m1_sdk_riscv/rtos/freertos_9.0.0/Source/timers.c:694:66
	lw	a1, 24(a1)
.Ltmp230:
	.loc	2 694 7                         # C:/Vega/rv32m1_sdk_riscv/rtos/freertos_9.0.0/Source/timers.c:694:7
	bltu	a0, a1, .LBB21_3
	j	.LBB21_2
.LBB21_2:                               # %if.then3
	.loc	2 0 7                           # C:/Vega/rv32m1_sdk_riscv/rtos/freertos_9.0.0/Source/timers.c:0:7
	addi	a0, zero, 1
.Ltmp231:
	.loc	2 698 21 is_stmt 1              # C:/Vega/rv32m1_sdk_riscv/rtos/freertos_9.0.0/Source/timers.c:698:21
	sw	a0, -28(s0)
	.loc	2 699 3                         # C:/Vega/rv32m1_sdk_riscv/rtos/freertos_9.0.0/Source/timers.c:699:3
	j	.LBB21_4
.Ltmp232:
.LBB21_3:                               # %if.else
	.loc	2 702 17                        # C:/Vega/rv32m1_sdk_riscv/rtos/freertos_9.0.0/Source/timers.c:702:17
	lui	a0, %hi(pxOverflowTimerList)
	lw	a0, %lo(pxOverflowTimerList)(a0)
	.loc	2 702 41 is_stmt 0              # C:/Vega/rv32m1_sdk_riscv/rtos/freertos_9.0.0/Source/timers.c:702:41
	lw	a1, -12(s0)
	.loc	2 702 50                        # C:/Vega/rv32m1_sdk_riscv/rtos/freertos_9.0.0/Source/timers.c:702:50
	addi	a1, a1, 4
	.loc	2 702 4                         # C:/Vega/rv32m1_sdk_riscv/rtos/freertos_9.0.0/Source/timers.c:702:4
	call	vListInsert
	j	.LBB21_4
.Ltmp233:
.LBB21_4:                               # %if.end
	.loc	2 704 2 is_stmt 1               # C:/Vega/rv32m1_sdk_riscv/rtos/freertos_9.0.0/Source/timers.c:704:2
	j	.LBB21_10
.Ltmp234:
.LBB21_5:                               # %if.else5
	.loc	2 707 9                         # C:/Vega/rv32m1_sdk_riscv/rtos/freertos_9.0.0/Source/timers.c:707:9
	lw	a0, -20(s0)
	.loc	2 707 20 is_stmt 0              # C:/Vega/rv32m1_sdk_riscv/rtos/freertos_9.0.0/Source/timers.c:707:20
	lw	a1, -24(s0)
	.loc	2 707 35                        # C:/Vega/rv32m1_sdk_riscv/rtos/freertos_9.0.0/Source/timers.c:707:35
	bgeu	a0, a1, .LBB21_8
	j	.LBB21_6
.LBB21_6:                               # %land.lhs.true
	.loc	2 707 40                        # C:/Vega/rv32m1_sdk_riscv/rtos/freertos_9.0.0/Source/timers.c:707:40
	lw	a0, -16(s0)
	.loc	2 707 59                        # C:/Vega/rv32m1_sdk_riscv/rtos/freertos_9.0.0/Source/timers.c:707:59
	lw	a1, -24(s0)
.Ltmp235:
	.loc	2 707 7                         # C:/Vega/rv32m1_sdk_riscv/rtos/freertos_9.0.0/Source/timers.c:707:7
	bltu	a0, a1, .LBB21_8
	j	.LBB21_7
.LBB21_7:                               # %if.then8
	.loc	2 0 7                           # C:/Vega/rv32m1_sdk_riscv/rtos/freertos_9.0.0/Source/timers.c:0:7
	addi	a0, zero, 1
.Ltmp236:
	.loc	2 712 21 is_stmt 1              # C:/Vega/rv32m1_sdk_riscv/rtos/freertos_9.0.0/Source/timers.c:712:21
	sw	a0, -28(s0)
	.loc	2 713 3                         # C:/Vega/rv32m1_sdk_riscv/rtos/freertos_9.0.0/Source/timers.c:713:3
	j	.LBB21_9
.Ltmp237:
.LBB21_8:                               # %if.else9
	.loc	2 716 17                        # C:/Vega/rv32m1_sdk_riscv/rtos/freertos_9.0.0/Source/timers.c:716:17
	lui	a0, %hi(pxCurrentTimerList)
	lw	a0, %lo(pxCurrentTimerList)(a0)
	.loc	2 716 40 is_stmt 0              # C:/Vega/rv32m1_sdk_riscv/rtos/freertos_9.0.0/Source/timers.c:716:40
	lw	a1, -12(s0)
	.loc	2 716 49                        # C:/Vega/rv32m1_sdk_riscv/rtos/freertos_9.0.0/Source/timers.c:716:49
	addi	a1, a1, 4
	.loc	2 716 4                         # C:/Vega/rv32m1_sdk_riscv/rtos/freertos_9.0.0/Source/timers.c:716:4
	call	vListInsert
	j	.LBB21_9
.Ltmp238:
.LBB21_9:                               # %if.end11
	.loc	2 0 4                           # C:/Vega/rv32m1_sdk_riscv/rtos/freertos_9.0.0/Source/timers.c:0:4
	j	.LBB21_10
.LBB21_10:                              # %if.end12
	.loc	2 720 9 is_stmt 1               # C:/Vega/rv32m1_sdk_riscv/rtos/freertos_9.0.0/Source/timers.c:720:9
	lw	a0, -28(s0)
	.loc	2 720 2 is_stmt 0               # C:/Vega/rv32m1_sdk_riscv/rtos/freertos_9.0.0/Source/timers.c:720:2
	lw	s0, 24(sp)
	lw	ra, 28(sp)
	addi	sp, sp, 32
	ret
.Ltmp239:
.Lfunc_end21:
	.size	prvInsertTimerInActiveList, .Lfunc_end21-prvInsertTimerInActiveList
	.cfi_endproc
                                        # -- End function
	.type	xTimerQueue,@object             # @xTimerQueue
	.section	.sbss,"aw",@nobits
	.p2align	2
xTimerQueue:
	.word	0
	.size	xTimerQueue, 4

	.type	.L.str,@object                  # @.str
	.section	.rodata.str1.1,"aMS",@progbits,1
.L.str:
	.asciz	"Tmr Svc"
	.size	.L.str, 8

	.type	xTimerTaskHandle,@object        # @xTimerTaskHandle
	.section	.sbss,"aw",@nobits
	.p2align	2
xTimerTaskHandle:
	.word	0
	.size	xTimerTaskHandle, 4

	.type	pxCurrentTimerList,@object      # @pxCurrentTimerList
	.p2align	2
pxCurrentTimerList:
	.word	0
	.size	pxCurrentTimerList, 4

	.type	pxOverflowTimerList,@object     # @pxOverflowTimerList
	.p2align	2
pxOverflowTimerList:
	.word	0
	.size	pxOverflowTimerList, 4

	.type	prvSampleTimeNow.xLastTime,@object # @prvSampleTimeNow.xLastTime
	.p2align	2
prvSampleTimeNow.xLastTime:
	.word	0                               # 0x0
	.size	prvSampleTimeNow.xLastTime, 4

	.type	xActiveTimerList1,@object       # @xActiveTimerList1
	.section	.bss.xActiveTimerList1,"aw",@nobits
	.p2align	2
xActiveTimerList1:
	.zero	20
	.size	xActiveTimerList1, 20

	.type	xActiveTimerList2,@object       # @xActiveTimerList2
	.section	.bss.xActiveTimerList2,"aw",@nobits
	.p2align	2
xActiveTimerList2:
	.zero	20
	.size	xActiveTimerList2, 20

	.type	.L.str.1,@object                # @.str.1
	.section	.rodata.str1.1,"aMS",@progbits,1
.L.str.1:
	.asciz	"TmrQ"
	.size	.L.str.1, 5

	.section	".note.GNU-stack","",@progbits
	.addrsig
	.addrsig_sym prvCheckForValidListAndQueue
	.addrsig_sym xTaskCreate
	.addrsig_sym prvTimerTask
	.addrsig_sym vPortSetInterruptMask
	.addrsig_sym pvPortMalloc
	.addrsig_sym prvInitialiseNewTimer
	.addrsig_sym xTimerGenericCommand
	.addrsig_sym xTaskGetSchedulerState
	.addrsig_sym xQueueGenericSend
	.addrsig_sym xQueueGenericSendFromISR
	.addrsig_sym vPortEnterCritical
	.addrsig_sym vPortExitCritical
	.addrsig_sym vListInitialiseItem
	.addrsig_sym prvGetNextExpireTime
	.addrsig_sym prvProcessTimerOrBlockTask
	.addrsig_sym prvProcessReceivedCommands
	.addrsig_sym vTaskSuspendAll
	.addrsig_sym prvSampleTimeNow
	.addrsig_sym xTaskResumeAll
	.addrsig_sym prvProcessExpiredTimer
	.addrsig_sym vQueueWaitForMessageRestricted
	.addrsig_sym portYIELD
	.addrsig_sym xTaskGetTickCount
	.addrsig_sym prvSwitchTimerLists
	.addrsig_sym uxListRemove
	.addrsig_sym vListInsert
	.addrsig_sym prvInsertTimerInActiveList
	.addrsig_sym xQueueGenericReceive
	.addrsig_sym vPortFree
	.addrsig_sym vListInitialise
	.addrsig_sym xQueueGenericCreate
	.addrsig_sym vQueueAddToRegistry
	.addrsig_sym xTimerQueue
	.addrsig_sym xTimerTaskHandle
	.addrsig_sym pxCurrentTimerList
	.addrsig_sym pxOverflowTimerList
	.addrsig_sym prvSampleTimeNow.xLastTime
	.addrsig_sym xActiveTimerList1
	.addrsig_sym xActiveTimerList2